 skel

 Timestamp is 5b6b2b46 (Wed Aug  8 18:41:26 2018)

 Preferred load address is 00400000

 Start         Length     Name                   Class
 0001:00000000 00000540H .text$di                CODE
 0001:00000540 00182ae0H .text$mn                CODE
 0001:00183020 00003fa0H .text$x                 CODE
 0001:00186fc0 0000039fH .text$yd                CODE
 0002:00000000 000005b8H .idata$5                DATA
 0002:000005b8 00000004H .00cfg                  DATA
 0002:000005bc 00000004H .CRT$XCA                DATA
 0002:000005c0 00000004H .CRT$XCAA               DATA
 0002:000005c4 00000004H .CRT$XCL                DATA
 0002:000005c8 0000002cH .CRT$XCU                DATA
 0002:000005f4 00000004H .CRT$XCZ                DATA
 0002:000005f8 00000004H .CRT$XIA                DATA
 0002:000005fc 00000004H .CRT$XIAA               DATA
 0002:00000600 00000004H .CRT$XIAC               DATA
 0002:00000604 00000004H .CRT$XIC                DATA
 0002:00000608 00000004H .CRT$XIZ                DATA
 0002:0000060c 00000004H .CRT$XLA                DATA
 0002:00000610 00000004H .CRT$XLZ                DATA
 0002:00000614 00000004H .CRT$XPA                DATA
 0002:00000618 00000004H .CRT$XPZ                DATA
 0002:0000061c 00000004H .CRT$XTA                DATA
 0002:00000620 00000020H .CRT$XTZ                DATA
 0002:00000624 00000000H .gfids$y                DATA
 0002:00000640 0003a748H .rdata                  DATA
 0002:0003ad88 00000018H .rdata$T                DATA
 0002:0003ada0 00000130H .rdata$r                DATA
 0002:0003aed0 000004f0H .rdata$sxdata           DATA
 0002:0003b3c0 000003c0H .rdata$zzzdbg           DATA
 0002:0003b780 00000004H .rtc$IAA                DATA
 0002:0003b784 00000004H .rtc$IZZ                DATA
 0002:0003b788 00000004H .rtc$TAA                DATA
 0002:0003b78c 00000004H .rtc$TZZ                DATA
 0002:0003b790 00000004H .tls                    DATA
 0002:0003b794 00000004H .tls$                   DATA
 0002:0003b798 00000008H .tls$ZZZ                DATA
 0002:0003b7a0 00005520H .xdata$x                DATA
 0002:00040cc0 00000060H .edata                  DATA
 0002:00040d20 000000c8H .idata$2                DATA
 0002:00040de8 00000014H .idata$3                DATA
 0002:00040dfc 000005b8H .idata$4                DATA
 0002:000413b4 000022fcH .idata$6                DATA
 0003:00000000 0000638cH .data                   DATA
 0003:0000638c 00000114H .data$r                 DATA
 0003:000064a0 0000a148H .bss                    DATA
 0004:00000000 00000060H .rsrc$01                DATA
 0004:00000060 00000180H .rsrc$02                DATA

  Address         Publics by Value              Rva+Base       Lib:Object

 0000:00000000       ___guard_iat_count         00000000     <absolute>
 0000:00000000       ___dynamic_value_reloc_table 00000000     <absolute>
 0000:00000000       ___hybrid_code_map         00000000     <absolute>
 0000:00000000       ___hybrid_code_map_count   00000000     <absolute>
 0000:00000000       ___guard_longjmp_table     00000000     <absolute>
 0000:00000000       ___guard_iat_table         00000000     <absolute>
 0000:00000000       ___enclave_config          00000000     <absolute>
 0000:00000000       ___guard_fids_count        00000000     <absolute>
 0000:00000000       ___guard_longjmp_count     00000000     <absolute>
 0000:00000000       ___guard_fids_table        00000000     <absolute>
 0000:00000000       ___hybrid_auxiliary_iat    00000000     <absolute>
 0000:0000002c       __tls_array                0000002c     <absolute>
 0000:00000100       ___guard_flags             00000100     <absolute>
 0000:0000013c       ___safe_se_handler_count   0000013c     <absolute>
 0000:00000000       ___ImageBase               00400000     <linker-defined>
 0001:00000650       ?CreateProject@BuildTool@Skel@@SAXV?$basic_string@DVallocator@eastl@@@eastl@@0@Z 00401650 f   BuildTool.obj
 0001:00000a80       ?CreateBuildProjectFile@BuildTool@Skel@@SAXV?$basic_string@DVallocator@eastl@@@eastl@@000@Z 00401a80 f   BuildTool.obj
 0001:00001730       ?GenerateVSProject@BuildTool@Skel@@SAXV?$basic_string@DVallocator@eastl@@@eastl@@@Z 00402730 f   BuildTool.obj
 0001:000017f0       ?CompileProject@BuildTool@Skel@@SAXV?$basic_string@DVallocator@eastl@@@eastl@@0@Z 004027f0 f   BuildTool.obj
 0001:00001950       ?CreateEProject@BuildTool@Skel@@SAXV?$basic_string@DVallocator@eastl@@@eastl@@0@Z 00402950 f   BuildTool.obj
 0001:00001c30       ??$?0AAV?$_Tree_iterator@V?$_Tree_val@U?$_Tree_simple_types@U?$pair@$$CBV?$basic_string@DU?$char_traits@D@std@@V?$allocator@D@2@@std@@V?$basic_json@Vmap@std@@Vvector@2@V?$basic_string@DU?$char_traits@D@std@@V?$allocator@D@2@@2@_N_J_KNVallocator@2@Uadl_serializer@nlohmann@@@nlohmann@@@std@@@std@@@std@@@std@@_N$0A@@?$pair@V?$_Tree_iterator@V?$_Tree_val@U?$_Tree_simple_types@U?$pair@$$CBV?$basic_string@DU?$char_traits@D@std@@V?$allocator@D@2@@std@@V?$basic_json@Vmap@std@@Vvector@2@V?$basic_string@DU?$char_traits@D@std@@V?$allocator@D@2@@2@_N_J_KNVallocator@2@Uadl_serializer@nlohmann@@@nlohmann@@@std@@@std@@@std@@@std@@_N@std@@QAE@AAV?$_Tree_iterator@V?$_Tree_val@U?$_Tree_simple_types@U?$pair@$$CBV?$basic_string@DU?$char_traits@D@std@@V?$allocator@D@2@@std@@V?$basic_json@Vmap@std@@Vvector@2@V?$basic_string@DU?$char_traits@D@std@@V?$allocator@D@2@@2@_N_J_KNVallocator@2@Uadl_serializer@nlohmann@@@nlohmann@@@std@@@std@@@std@@@1@$$QA_N@Z 00402c30 f i BuildTool.obj
 0001:00001c90       ??$?0PADX@?$basic_string@DU?$char_traits@D@std@@V?$allocator@D@2@@std@@QAE@PAD0ABV?$allocator@D@1@@Z 00402c90 f i BuildTool.obj
 0001:00001db0       ??$?0PBDPBD$0A@@?$basic_json@Vmap@std@@Vvector@2@V?$basic_string@DU?$char_traits@D@std@@V?$allocator@D@2@@2@_N_J_KNVallocator@2@Uadl_serializer@nlohmann@@@nlohmann@@QAE@$$QAPBD@Z 00402db0 f i BuildTool.obj
 0001:00001e10       ??$?0V?$output_stream_adapter@D@detail@nlohmann@@$0A@@?$shared_ptr@U?$output_adapter_protocol@D@detail@nlohmann@@@std@@QAE@$$QAV?$shared_ptr@V?$output_stream_adapter@D@detail@nlohmann@@@1@@Z 00402e10 f i BuildTool.obj
 0001:00001e70       ??$?0V?$tuple@$$QAV?$basic_string@DU?$char_traits@D@std@@V?$allocator@D@2@@std@@@std@@V?$tuple@$$V@1@$0A@$$Z$S@?$pair@$$CBV?$basic_string@DU?$char_traits@D@std@@V?$allocator@D@2@@std@@V?$basic_json@Vmap@std@@Vvector@2@V?$basic_string@DU?$char_traits@D@std@@V?$allocator@D@2@@2@_N_J_KNVallocator@2@Uadl_serializer@nlohmann@@@nlohmann@@@std@@QAE@AAV?$tuple@$$QAV?$basic_string@DU?$char_traits@D@std@@V?$allocator@D@2@@std@@@1@AAV?$tuple@$$V@1@U?$integer_sequence@I$0A@@1@U?$integer_sequence@I$S@1@@Z 00402e70 f i BuildTool.obj
 0001:00002190       ??$?A$$CBD@?$basic_json@Vmap@std@@Vvector@2@V?$basic_string@DU?$char_traits@D@std@@V?$allocator@D@2@@2@_N_J_KNVallocator@2@Uadl_serializer@nlohmann@@@nlohmann@@QAEAAV01@PBD@Z 00403190 f i BuildTool.obj
 0001:00002360       ??$?HDU?$char_traits@D@std@@V?$allocator@D@1@@std@@YA?AV?$basic_string@DU?$char_traits@D@std@@V?$allocator@D@2@@0@$$QAV10@0@Z 00403360 f i BuildTool.obj
 0001:00002470       ??$?HDU?$char_traits@D@std@@V?$allocator@D@1@@std@@YA?AV?$basic_string@DU?$char_traits@D@std@@V?$allocator@D@2@@0@$$QAV10@ABV10@@Z 00403470 f i BuildTool.obj
 0001:000024b0       ??$?HDU?$char_traits@D@std@@V?$allocator@D@1@@std@@YA?AV?$basic_string@DU?$char_traits@D@std@@V?$allocator@D@2@@0@$$QAV10@QBD@Z 004034b0 f i BuildTool.obj
 0001:00002530       ??$?HDU?$char_traits@D@std@@V?$allocator@D@1@@std@@YA?AV?$basic_string@DU?$char_traits@D@std@@V?$allocator@D@2@@0@QBD$$QAV10@@Z 00403530 f i BuildTool.obj
 0001:000025b0       ??$?HDU?$char_traits@D@std@@V?$allocator@D@1@@std@@YA?AV?$basic_string@DU?$char_traits@D@std@@V?$allocator@D@2@@0@QBDABV10@@Z 004035b0 f i BuildTool.obj
 0001:000026f0       ??$?HDVallocator@eastl@@@eastl@@YA?AV?$basic_string@DVallocator@eastl@@@0@$$QAV10@ABV10@@Z 004036f0 f i BuildTool.obj
 0001:00002730       ??$?HDVallocator@eastl@@@eastl@@YA?AV?$basic_string@DVallocator@eastl@@@0@$$QAV10@PBD@Z 00403730 f i BuildTool.obj
 0001:000027a0       ??$?HDVallocator@eastl@@@eastl@@YA?AV?$basic_string@DVallocator@eastl@@@0@ABV10@0@Z 004037a0 f i BuildTool.obj
 0001:00002880       ??$?HDVallocator@eastl@@@eastl@@YA?AV?$basic_string@DVallocator@eastl@@@0@ABV10@PBD@Z 00403880 f i BuildTool.obj
 0001:00002980       ??$_Allocate_manually_vector_aligned@U_Default_allocate_traits@std@@@std@@YAPAXI@Z 00403980 f i BuildTool.obj
 0001:00002a40       ??$_Buynode@ABUpiecewise_construct_t@std@@V?$tuple@$$QAV?$basic_string@DU?$char_traits@D@std@@V?$allocator@D@2@@std@@@2@V?$tuple@$$V@2@@?$_Tree_comp_alloc@V?$_Tmap_traits@V?$basic_string@DU?$char_traits@D@std@@V?$allocator@D@2@@std@@V?$basic_json@Vmap@std@@Vvector@2@V?$basic_string@DU?$char_traits@D@std@@V?$allocator@D@2@@2@_N_J_KNVallocator@2@Uadl_serializer@nlohmann@@@nlohmann@@U?$less@V?$basic_string@DU?$char_traits@D@std@@V?$allocator@D@2@@std@@@2@V?$allocator@U?$pair@$$CBV?$basic_string@DU?$char_traits@D@std@@V?$allocator@D@2@@std@@V?$basic_json@Vmap@std@@Vvector@2@V?$basic_string@DU?$char_traits@D@std@@V?$allocator@D@2@@2@_N_J_KNVallocator@2@Uadl_serializer@nlohmann@@@nlohmann@@@std@@@2@$0A@@std@@@std@@QAEPAU?$_Tree_node@U?$pair@$$CBV?$basic_string@DU?$char_traits@D@std@@V?$allocator@D@2@@std@@V?$basic_json@Vmap@std@@Vvector@2@V?$basic_string@DU?$char_traits@D@std@@V?$allocator@D@2@@2@_N_J_KNVallocator@2@Uadl_serializer@nlohmann@@@nlohmann@@@std@@PAX@1@ABUpiecewise_construct_t@1@$$QAV?$tuple@$$QAV?$basic_string@DU?$char_traits@D@std@@V?$allocator@D@2@@std@@@1@$$QAV?$tuple@$$V@1@@Z 00403a40 f i BuildTool.obj
 0001:00002b50       ??$_Debug_lt_pred@AAU?$less@V?$basic_string@DU?$char_traits@D@std@@V?$allocator@D@2@@std@@@std@@AAV?$basic_string@DU?$char_traits@D@std@@V?$allocator@D@2@@2@ABV32@@std@@YA_NAAU?$less@V?$basic_string@DU?$char_traits@D@std@@V?$allocator@D@2@@std@@@0@AAV?$basic_string@DU?$char_traits@D@std@@V?$allocator@D@2@@0@ABV20@PB_WI@Z 00403b50 f i BuildTool.obj
 0001:00002c10       ??$_Debug_lt_pred@AAU?$less@V?$basic_string@DU?$char_traits@D@std@@V?$allocator@D@2@@std@@@std@@ABV?$basic_string@DU?$char_traits@D@std@@V?$allocator@D@2@@2@ABV32@@std@@YA_NAAU?$less@V?$basic_string@DU?$char_traits@D@std@@V?$allocator@D@2@@std@@@0@ABV?$basic_string@DU?$char_traits@D@std@@V?$allocator@D@2@@0@1PB_WI@Z 00403c10 f i BuildTool.obj
 0001:00002cd0       ??$_Debug_lt_pred@ABU?$less@V?$basic_string@DU?$char_traits@D@std@@V?$allocator@D@2@@std@@@std@@ABV?$basic_string@DU?$char_traits@D@std@@V?$allocator@D@2@@2@ABV32@@std@@YA_NABU?$less@V?$basic_string@DU?$char_traits@D@std@@V?$allocator@D@2@@std@@@0@ABV?$basic_string@DU?$char_traits@D@std@@V?$allocator@D@2@@0@1PB_WI@Z 00403cd0 f i BuildTool.obj
 0001:00002d90       ??$_Destroy_range@V?$allocator@V?$basic_json@Vmap@std@@Vvector@2@V?$basic_string@DU?$char_traits@D@std@@V?$allocator@D@2@@2@_N_J_KNVallocator@2@Uadl_serializer@nlohmann@@@nlohmann@@@std@@@std@@YAXPAV?$basic_json@Vmap@std@@Vvector@2@V?$basic_string@DU?$char_traits@D@std@@V?$allocator@D@2@@2@_N_J_KNVallocator@2@Uadl_serializer@nlohmann@@@nlohmann@@0AAV?$allocator@V?$basic_json@Vmap@std@@Vvector@2@V?$basic_string@DU?$char_traits@D@std@@V?$allocator@D@2@@2@_N_J_KNVallocator@2@Uadl_serializer@nlohmann@@@nlohmann@@@0@@Z 00403d90 f i BuildTool.obj
 0001:00002df0       ??$_Enable_shared_from_this1@V?$output_stream_adapter@D@detail@nlohmann@@V123@@std@@YAXABV?$shared_ptr@V?$output_stream_adapter@D@detail@nlohmann@@@0@PAV?$output_stream_adapter@D@detail@nlohmann@@U?$integral_constant@_N$0A@@0@@Z 00403df0 f i BuildTool.obj
 0001:00002e00       ??$_Enable_shared_from_this@V?$output_stream_adapter@D@detail@nlohmann@@V123@@std@@YAXABV?$shared_ptr@V?$output_stream_adapter@D@detail@nlohmann@@@0@PAV?$output_stream_adapter@D@detail@nlohmann@@@Z 00403e00 f i BuildTool.obj
 0001:00002e30       ??$_Freenode0@V?$allocator@U?$_Tree_node@U?$pair@$$CBV?$basic_string@DU?$char_traits@D@std@@V?$allocator@D@2@@std@@V?$basic_json@Vmap@std@@Vvector@2@V?$basic_string@DU?$char_traits@D@std@@V?$allocator@D@2@@2@_N_J_KNVallocator@2@Uadl_serializer@nlohmann@@@nlohmann@@@std@@PAX@std@@@std@@@?$_Tree_node@U?$pair@$$CBV?$basic_string@DU?$char_traits@D@std@@V?$allocator@D@2@@std@@V?$basic_json@Vmap@std@@Vvector@2@V?$basic_string@DU?$char_traits@D@std@@V?$allocator@D@2@@2@_N_J_KNVallocator@2@Uadl_serializer@nlohmann@@@nlohmann@@@std@@PAX@std@@SAXAAV?$allocator@U?$_Tree_node@U?$pair@$$CBV?$basic_string@DU?$char_traits@D@std@@V?$allocator@D@2@@std@@V?$basic_json@Vmap@std@@Vvector@2@V?$basic_string@DU?$char_traits@D@std@@V?$allocator@D@2@@2@_N_J_KNVallocator@2@Uadl_serializer@nlohmann@@@nlohmann@@@std@@PAX@std@@@1@PAU01@@Z 00403e30 f i BuildTool.obj
 0001:00002ec0       ??$_Getvals@_W@?$time_get@DV?$istreambuf_iterator@DU?$char_traits@D@std@@@std@@@std@@IAEX_WABV_Locinfo@1@@Z 00403ec0 f i BuildTool.obj
 0001:00002fb0       ??$_Getvals@_W@?$time_get@_WV?$istreambuf_iterator@_WU?$char_traits@_W@std@@@std@@@std@@IAEX_WABV_Locinfo@1@@Z 00403fb0 f i BuildTool.obj
 0001:000030a0       ??$_Insert_at@AAU?$pair@$$CBV?$basic_string@DU?$char_traits@D@std@@V?$allocator@D@2@@std@@V?$basic_json@Vmap@std@@Vvector@2@V?$basic_string@DU?$char_traits@D@std@@V?$allocator@D@2@@2@_N_J_KNVallocator@2@Uadl_serializer@nlohmann@@@nlohmann@@@std@@PAU?$_Tree_node@U?$pair@$$CBV?$basic_string@DU?$char_traits@D@std@@V?$allocator@D@2@@std@@V?$basic_json@Vmap@std@@Vvector@2@V?$basic_string@DU?$char_traits@D@std@@V?$allocator@D@2@@2@_N_J_KNVallocator@2@Uadl_serializer@nlohmann@@@nlohmann@@@std@@PAX@2@@?$_Tree@V?$_Tmap_traits@V?$basic_string@DU?$char_traits@D@std@@V?$allocator@D@2@@std@@V?$basic_json@Vmap@std@@Vvector@2@V?$basic_string@DU?$char_traits@D@std@@V?$allocator@D@2@@2@_N_J_KNVallocator@2@Uadl_serializer@nlohmann@@@nlohmann@@U?$less@V?$basic_string@DU?$char_traits@D@std@@V?$allocator@D@2@@std@@@2@V?$allocator@U?$pair@$$CBV?$basic_string@DU?$char_traits@D@std@@V?$allocator@D@2@@std@@V?$basic_json@Vmap@std@@Vvector@2@V?$basic_string@DU?$char_traits@D@std@@V?$allocator@D@2@@2@_N_J_KNVallocator@2@Uadl_serializer@nlohmann@@@nlohmann@@@std@@@2@$0A@@std@@@std@@IAE?AV?$_Tree_iterator@V?$_Tree_val@U?$_Tree_simple_types@U?$pair@$$CBV?$basic_string@DU?$char_traits@D@std@@V?$allocator@D@2@@std@@V?$basic_json@Vmap@std@@Vvector@2@V?$basic_string@DU?$char_traits@D@std@@V?$allocator@D@2@@2@_N_J_KNVallocator@2@Uadl_serializer@nlohmann@@@nlohmann@@@std@@@std@@@std@@@1@_NPAU?$_Tree_node@U?$pair@$$CBV?$basic_string@DU?$char_traits@D@std@@V?$allocator@D@2@@std@@V?$basic_json@Vmap@std@@Vvector@2@V?$basic_string@DU?$char_traits@D@std@@V?$allocator@D@2@@2@_N_J_KNVallocator@2@Uadl_serializer@nlohmann@@@nlohmann@@@std@@PAX@1@AAU?$pair@$$CBV?$basic_string@DU?$char_traits@D@std@@V?$allocator@D@2@@std@@V?$basic_json@Vmap@std@@Vvector@2@V?$basic_string@DU?$char_traits@D@std@@V?$allocator@D@2@@2@_N_J_KNVallocator@2@Uadl_serializer@nlohmann@@@nlohmann@@@1@1@Z 004040a0 f i BuildTool.obj
 0001:00003350       ??$_Insert_hint@AAU?$pair@$$CBV?$basic_string@DU?$char_traits@D@std@@V?$allocator@D@2@@std@@V?$basic_json@Vmap@std@@Vvector@2@V?$basic_string@DU?$char_traits@D@std@@V?$allocator@D@2@@2@_N_J_KNVallocator@2@Uadl_serializer@nlohmann@@@nlohmann@@@std@@PAU?$_Tree_node@U?$pair@$$CBV?$basic_string@DU?$char_traits@D@std@@V?$allocator@D@2@@std@@V?$basic_json@Vmap@std@@Vvector@2@V?$basic_string@DU?$char_traits@D@std@@V?$allocator@D@2@@2@_N_J_KNVallocator@2@Uadl_serializer@nlohmann@@@nlohmann@@@std@@PAX@2@@?$_Tree@V?$_Tmap_traits@V?$basic_string@DU?$char_traits@D@std@@V?$allocator@D@2@@std@@V?$basic_json@Vmap@std@@Vvector@2@V?$basic_string@DU?$char_traits@D@std@@V?$allocator@D@2@@2@_N_J_KNVallocator@2@Uadl_serializer@nlohmann@@@nlohmann@@U?$less@V?$basic_string@DU?$char_traits@D@std@@V?$allocator@D@2@@std@@@2@V?$allocator@U?$pair@$$CBV?$basic_string@DU?$char_traits@D@std@@V?$allocator@D@2@@std@@V?$basic_json@Vmap@std@@Vvector@2@V?$basic_string@DU?$char_traits@D@std@@V?$allocator@D@2@@2@_N_J_KNVallocator@2@Uadl_serializer@nlohmann@@@nlohmann@@@std@@@2@$0A@@std@@@std@@IAE?AV?$_Tree_iterator@V?$_Tree_val@U?$_Tree_simple_types@U?$pair@$$CBV?$basic_string@DU?$char_traits@D@std@@V?$allocator@D@2@@std@@V?$basic_json@Vmap@std@@Vvector@2@V?$basic_string@DU?$char_traits@D@std@@V?$allocator@D@2@@2@_N_J_KNVallocator@2@Uadl_serializer@nlohmann@@@nlohmann@@@std@@@std@@@std@@@1@V?$_Tree_const_iterator@V?$_Tree_val@U?$_Tree_simple_types@U?$pair@$$CBV?$basic_string@DU?$char_traits@D@std@@V?$allocator@D@2@@std@@V?$basic_json@Vmap@std@@Vvector@2@V?$basic_string@DU?$char_traits@D@std@@V?$allocator@D@2@@2@_N_J_KNVallocator@2@Uadl_serializer@nlohmann@@@nlohmann@@@std@@@std@@@std@@@1@AAU?$pair@$$CBV?$basic_string@DU?$char_traits@D@std@@V?$allocator@D@2@@std@@V?$basic_json@Vmap@std@@Vvector@2@V?$basic_string@DU?$char_traits@D@std@@V?$allocator@D@2@@2@_N_J_KNVallocator@2@Uadl_serializer@nlohmann@@@nlohmann@@@1@PAU?$_Tree_node@U?$pair@$$CBV?$basic_string@DU?$char_traits@D@std@@V?$allocator@D@2@@std@@V?$basic_json@Vmap@std@@Vvector@2@V?$basic_string@DU?$char_traits@D@std@@V?$allocator@D@2@@2@_N_J_KNVallocator@2@Uadl_serializer@nlohmann@@@nlohmann@@@std@@PAX@1@@Z 00404350 f i BuildTool.obj
 0001:00004640       ??$_Insert_nohint@AAU?$pair@$$CBV?$basic_string@DU?$char_traits@D@std@@V?$allocator@D@2@@std@@V?$basic_json@Vmap@std@@Vvector@2@V?$basic_string@DU?$char_traits@D@std@@V?$allocator@D@2@@2@_N_J_KNVallocator@2@Uadl_serializer@nlohmann@@@nlohmann@@@std@@PAU?$_Tree_node@U?$pair@$$CBV?$basic_string@DU?$char_traits@D@std@@V?$allocator@D@2@@std@@V?$basic_json@Vmap@std@@Vvector@2@V?$basic_string@DU?$char_traits@D@std@@V?$allocator@D@2@@2@_N_J_KNVallocator@2@Uadl_serializer@nlohmann@@@nlohmann@@@std@@PAX@2@@?$_Tree@V?$_Tmap_traits@V?$basic_string@DU?$char_traits@D@std@@V?$allocator@D@2@@std@@V?$basic_json@Vmap@std@@Vvector@2@V?$basic_string@DU?$char_traits@D@std@@V?$allocator@D@2@@2@_N_J_KNVallocator@2@Uadl_serializer@nlohmann@@@nlohmann@@U?$less@V?$basic_string@DU?$char_traits@D@std@@V?$allocator@D@2@@std@@@2@V?$allocator@U?$pair@$$CBV?$basic_string@DU?$char_traits@D@std@@V?$allocator@D@2@@std@@V?$basic_json@Vmap@std@@Vvector@2@V?$basic_string@DU?$char_traits@D@std@@V?$allocator@D@2@@2@_N_J_KNVallocator@2@Uadl_serializer@nlohmann@@@nlohmann@@@std@@@2@$0A@@std@@@std@@IAE?AU?$pair@V?$_Tree_iterator@V?$_Tree_val@U?$_Tree_simple_types@U?$pair@$$CBV?$basic_string@DU?$char_traits@D@std@@V?$allocator@D@2@@std@@V?$basic_json@Vmap@std@@Vvector@2@V?$basic_string@DU?$char_traits@D@std@@V?$allocator@D@2@@2@_N_J_KNVallocator@2@Uadl_serializer@nlohmann@@@nlohmann@@@std@@@std@@@std@@@std@@_N@1@_NAAU?$pair@$$CBV?$basic_string@DU?$char_traits@D@std@@V?$allocator@D@2@@std@@V?$basic_json@Vmap@std@@Vvector@2@V?$basic_string@DU?$char_traits@D@std@@V?$allocator@D@2@@2@_N_J_KNVallocator@2@Uadl_serializer@nlohmann@@@nlohmann@@@1@PAU?$_Tree_node@U?$pair@$$CBV?$basic_string@DU?$char_traits@D@std@@V?$allocator@D@2@@std@@V?$basic_json@Vmap@std@@Vvector@2@V?$basic_string@DU?$char_traits@D@std@@V?$allocator@D@2@@2@_N_J_KNVallocator@2@Uadl_serializer@nlohmann@@@nlohmann@@@std@@PAX@1@@Z 00405640 f i BuildTool.obj
 0001:00004ae0       ??$_Integral_to_string@DH@std@@YA?AV?$basic_string@DU?$char_traits@D@std@@V?$allocator@D@2@@0@H@Z 00405ae0 f i BuildTool.obj
 0001:00004b80       ??$_Integral_to_string@DI@std@@YA?AV?$basic_string@DU?$char_traits@D@std@@V?$allocator@D@2@@0@I@Z 00405b80 f i BuildTool.obj
 0001:00004c20       ??$_Lbound@V?$basic_string@DU?$char_traits@D@std@@V?$allocator@D@2@@std@@@?$_Tree@V?$_Tmap_traits@V?$basic_string@DU?$char_traits@D@std@@V?$allocator@D@2@@std@@V?$basic_json@Vmap@std@@Vvector@2@V?$basic_string@DU?$char_traits@D@std@@V?$allocator@D@2@@2@_N_J_KNVallocator@2@Uadl_serializer@nlohmann@@@nlohmann@@U?$less@V?$basic_string@DU?$char_traits@D@std@@V?$allocator@D@2@@std@@@2@V?$allocator@U?$pair@$$CBV?$basic_string@DU?$char_traits@D@std@@V?$allocator@D@2@@std@@V?$basic_json@Vmap@std@@Vvector@2@V?$basic_string@DU?$char_traits@D@std@@V?$allocator@D@2@@2@_N_J_KNVallocator@2@Uadl_serializer@nlohmann@@@nlohmann@@@std@@@2@$0A@@std@@@std@@IBEPAU?$_Tree_node@U?$pair@$$CBV?$basic_string@DU?$char_traits@D@std@@V?$allocator@D@2@@std@@V?$basic_json@Vmap@std@@Vvector@2@V?$basic_string@DU?$char_traits@D@std@@V?$allocator@D@2@@2@_N_J_KNVallocator@2@Uadl_serializer@nlohmann@@@nlohmann@@@std@@PAX@1@ABV?$basic_string@DU?$char_traits@D@std@@V?$allocator@D@2@@1@@Z 00405c20 f i BuildTool.obj
 0001:00004cb0       ??$_Maklocstr@D@std@@YAPADPBDPADABU_Cvtvec@@@Z 00405cb0 f i BuildTool.obj
 0001:00004d50       ??$_Maklocstr@_W@std@@YAPA_WPBDPA_WABU_Cvtvec@@@Z 00405d50 f i BuildTool.obj
 0001:00005850       ??$_Try_emplace@V?$basic_string@DU?$char_traits@D@std@@V?$allocator@D@2@@std@@$$V@?$map@V?$basic_string@DU?$char_traits@D@std@@V?$allocator@D@2@@std@@V?$basic_json@Vmap@std@@Vvector@2@V?$basic_string@DU?$char_traits@D@std@@V?$allocator@D@2@@2@_N_J_KNVallocator@2@Uadl_serializer@nlohmann@@@nlohmann@@U?$less@V?$basic_string@DU?$char_traits@D@std@@V?$allocator@D@2@@std@@@2@V?$allocator@U?$pair@$$CBV?$basic_string@DU?$char_traits@D@std@@V?$allocator@D@2@@std@@V?$basic_json@Vmap@std@@Vvector@2@V?$basic_string@DU?$char_traits@D@std@@V?$allocator@D@2@@2@_N_J_KNVallocator@2@Uadl_serializer@nlohmann@@@nlohmann@@@std@@@2@@std@@QAE?AU?$pair@V?$_Tree_iterator@V?$_Tree_val@U?$_Tree_simple_types@U?$pair@$$CBV?$basic_string@DU?$char_traits@D@std@@V?$allocator@D@2@@std@@V?$basic_json@Vmap@std@@Vvector@2@V?$basic_string@DU?$char_traits@D@std@@V?$allocator@D@2@@2@_N_J_KNVallocator@2@Uadl_serializer@nlohmann@@@nlohmann@@@std@@@std@@@std@@@std@@_N@1@$$QAV?$basic_string@DU?$char_traits@D@std@@V?$allocator@D@2@@1@@Z 00406850 f i BuildTool.obj
 0001:00005b70       ??$_UIntegral_to_buff@DI@std@@YAPADPADI@Z 00406b70 f i BuildTool.obj
 0001:00005c30       ??$compute_boundaries@N@dtoa_impl@detail@nlohmann@@YA?AUboundaries@012@N@Z 00406c30 f i BuildTool.obj
 0001:00006070       ??$create@V?$basic_string@DU?$char_traits@D@std@@V?$allocator@D@2@@std@@AAY00$$CBD@?$basic_json@Vmap@std@@Vvector@2@V?$basic_string@DU?$char_traits@D@std@@V?$allocator@D@2@@2@_N_J_KNVallocator@2@Uadl_serializer@nlohmann@@@nlohmann@@CAPAV?$basic_string@DU?$char_traits@D@std@@V?$allocator@D@2@@std@@AAY00$$CBD@Z 00407070 f i BuildTool.obj
 0001:000061a0       ??$create@V?$basic_string@DU?$char_traits@D@std@@V?$allocator@D@2@@std@@ABQBD@?$basic_json@Vmap@std@@Vvector@2@V?$basic_string@DU?$char_traits@D@std@@V?$allocator@D@2@@2@_N_J_KNVallocator@2@Uadl_serializer@nlohmann@@@nlohmann@@CAPAV?$basic_string@DU?$char_traits@D@std@@V?$allocator@D@2@@std@@ABQBD@Z 004071a0 f i BuildTool.obj
 0001:000062d0       ??$create@V?$map@V?$basic_string@DU?$char_traits@D@std@@V?$allocator@D@2@@std@@V?$basic_json@Vmap@std@@Vvector@2@V?$basic_string@DU?$char_traits@D@std@@V?$allocator@D@2@@2@_N_J_KNVallocator@2@Uadl_serializer@nlohmann@@@nlohmann@@U?$less@V?$basic_string@DU?$char_traits@D@std@@V?$allocator@D@2@@std@@@2@V?$allocator@U?$pair@$$CBV?$basic_string@DU?$char_traits@D@std@@V?$allocator@D@2@@std@@V?$basic_json@Vmap@std@@Vvector@2@V?$basic_string@DU?$char_traits@D@std@@V?$allocator@D@2@@2@_N_J_KNVallocator@2@Uadl_serializer@nlohmann@@@nlohmann@@@std@@@2@@std@@$$V@?$basic_json@Vmap@std@@Vvector@2@V?$basic_string@DU?$char_traits@D@std@@V?$allocator@D@2@@2@_N_J_KNVallocator@2@Uadl_serializer@nlohmann@@@nlohmann@@CAPAV?$map@V?$basic_string@DU?$char_traits@D@std@@V?$allocator@D@2@@std@@V?$basic_json@Vmap@std@@Vvector@2@V?$basic_string@DU?$char_traits@D@std@@V?$allocator@D@2@@2@_N_J_KNVallocator@2@Uadl_serializer@nlohmann@@@nlohmann@@U?$less@V?$basic_string@DU?$char_traits@D@std@@V?$allocator@D@2@@std@@@2@V?$allocator@U?$pair@$$CBV?$basic_string@DU?$char_traits@D@std@@V?$allocator@D@2@@std@@V?$basic_json@Vmap@std@@Vvector@2@V?$basic_string@DU?$char_traits@D@std@@V?$allocator@D@2@@2@_N_J_KNVallocator@2@Uadl_serializer@nlohmann@@@nlohmann@@@std@@@2@@std@@XZ 004072d0 f i BuildTool.obj
 0001:000063f0       ??$create@V?$vector@V?$basic_json@Vmap@std@@Vvector@2@V?$basic_string@DU?$char_traits@D@std@@V?$allocator@D@2@@2@_N_J_KNVallocator@2@Uadl_serializer@nlohmann@@@nlohmann@@V?$allocator@V?$basic_json@Vmap@std@@Vvector@2@V?$basic_string@DU?$char_traits@D@std@@V?$allocator@D@2@@2@_N_J_KNVallocator@2@Uadl_serializer@nlohmann@@@nlohmann@@@std@@@std@@$$V@?$basic_json@Vmap@std@@Vvector@2@V?$basic_string@DU?$char_traits@D@std@@V?$allocator@D@2@@2@_N_J_KNVallocator@2@Uadl_serializer@nlohmann@@@nlohmann@@CAPAV?$vector@V?$basic_json@Vmap@std@@Vvector@2@V?$basic_string@DU?$char_traits@D@std@@V?$allocator@D@2@@2@_N_J_KNVallocator@2@Uadl_serializer@nlohmann@@@nlohmann@@V?$allocator@V?$basic_json@Vmap@std@@Vvector@2@V?$basic_string@DU?$char_traits@D@std@@V?$allocator@D@2@@2@_N_J_KNVallocator@2@Uadl_serializer@nlohmann@@@nlohmann@@@std@@@std@@XZ 004073f0 f i BuildTool.obj
 0001:00006510       ??$dump_integer@_J$0A@@?$serializer@V?$basic_json@Vmap@std@@Vvector@2@V?$basic_string@DU?$char_traits@D@std@@V?$allocator@D@2@@2@_N_J_KNVallocator@2@Uadl_serializer@nlohmann@@@nlohmann@@@detail@nlohmann@@AAEX_J@Z 00407510 f i BuildTool.obj
 0001:00006770       ??$dump_integer@_K$0A@@?$serializer@V?$basic_json@Vmap@std@@Vvector@2@V?$basic_string@DU?$char_traits@D@std@@V?$allocator@D@2@@2@_N_J_KNVallocator@2@Uadl_serializer@nlohmann@@@nlohmann@@@detail@nlohmann@@AAEX_K@Z 00407770 f i BuildTool.obj
 0001:000069d0       ??$emplace_hint@ABUpiecewise_construct_t@std@@V?$tuple@$$QAV?$basic_string@DU?$char_traits@D@std@@V?$allocator@D@2@@std@@@2@V?$tuple@$$V@2@@?$_Tree@V?$_Tmap_traits@V?$basic_string@DU?$char_traits@D@std@@V?$allocator@D@2@@std@@V?$basic_json@Vmap@std@@Vvector@2@V?$basic_string@DU?$char_traits@D@std@@V?$allocator@D@2@@2@_N_J_KNVallocator@2@Uadl_serializer@nlohmann@@@nlohmann@@U?$less@V?$basic_string@DU?$char_traits@D@std@@V?$allocator@D@2@@std@@@2@V?$allocator@U?$pair@$$CBV?$basic_string@DU?$char_traits@D@std@@V?$allocator@D@2@@std@@V?$basic_json@Vmap@std@@Vvector@2@V?$basic_string@DU?$char_traits@D@std@@V?$allocator@D@2@@2@_N_J_KNVallocator@2@Uadl_serializer@nlohmann@@@nlohmann@@@std@@@2@$0A@@std@@@std@@QAE?AV?$_Tree_iterator@V?$_Tree_val@U?$_Tree_simple_types@U?$pair@$$CBV?$basic_string@DU?$char_traits@D@std@@V?$allocator@D@2@@std@@V?$basic_json@Vmap@std@@Vvector@2@V?$basic_string@DU?$char_traits@D@std@@V?$allocator@D@2@@2@_N_J_KNVallocator@2@Uadl_serializer@nlohmann@@@nlohmann@@@std@@@std@@@std@@@1@V?$_Tree_const_iterator@V?$_Tree_val@U?$_Tree_simple_types@U?$pair@$$CBV?$basic_string@DU?$char_traits@D@std@@V?$allocator@D@2@@std@@V?$basic_json@Vmap@std@@Vvector@2@V?$basic_string@DU?$char_traits@D@std@@V?$allocator@D@2@@2@_N_J_KNVallocator@2@Uadl_serializer@nlohmann@@@nlohmann@@@std@@@std@@@std@@@1@ABUpiecewise_construct_t@1@$$QAV?$tuple@$$QAV?$basic_string@DU?$char_traits@D@std@@V?$allocator@D@2@@std@@@1@$$QAV?$tuple@$$V@1@@Z 004079d0 f i BuildTool.obj
 0001:00006ad0       ??$endl@DU?$char_traits@D@std@@@std@@YAAAV?$basic_ostream@DU?$char_traits@D@std@@@0@AAV10@@Z 00407ad0 f i BuildTool.obj
 0001:00006b10       ??$grisu2@N@dtoa_impl@detail@nlohmann@@YAXPADAAH1N@Z 00407b10 f i BuildTool.obj
 0001:00006c40       ??$make_shared@V?$output_stream_adapter@D@detail@nlohmann@@AAV?$basic_ostream@DU?$char_traits@D@std@@@std@@@std@@YA?AV?$shared_ptr@V?$output_stream_adapter@D@detail@nlohmann@@@0@AAV?$basic_ostream@DU?$char_traits@D@std@@@0@@Z 00407c40 f i BuildTool.obj
 0001:00006da0       ??$next@V?$_Tree_const_iterator@V?$_Tree_val@U?$_Tree_simple_types@U?$pair@$$CBV?$basic_string@DU?$char_traits@D@std@@V?$allocator@D@2@@std@@V?$basic_json@Vmap@std@@Vvector@2@V?$basic_string@DU?$char_traits@D@std@@V?$allocator@D@2@@2@_N_J_KNVallocator@2@Uadl_serializer@nlohmann@@@nlohmann@@@std@@@std@@@std@@@std@@@std@@YA?AV?$_Tree_const_iterator@V?$_Tree_val@U?$_Tree_simple_types@U?$pair@$$CBV?$basic_string@DU?$char_traits@D@std@@V?$allocator@D@2@@std@@V?$basic_json@Vmap@std@@Vvector@2@V?$basic_string@DU?$char_traits@D@std@@V?$allocator@D@2@@2@_N_J_KNVallocator@2@Uadl_serializer@nlohmann@@@nlohmann@@@std@@@std@@@std@@@0@V10@H@Z 00407da0 f i BuildTool.obj
 0001:00006e90       ??$reinterpret_bits@_KN@dtoa_impl@detail@nlohmann@@YA_KN@Z 00407e90 f i BuildTool.obj
 0001:00006eb0       ??$reverse@V?$_Array_iterator@D$0EA@@std@@@std@@YAXV?$_Array_iterator@D$0EA@@0@0@Z 00407eb0 f i BuildTool.obj
 0001:00006fa0       ??$search@PBDPBD@eastl@@YAPBDPBD000@Z 00407fa0 f i BuildTool.obj
 0001:000070c0       ??$swap@ULayout@?$basic_string@DVallocator@eastl@@@eastl@@@eastl@@YAXAAULayout@?$basic_string@DVallocator@eastl@@@0@0@Z 004080c0 f i BuildTool.obj
 0001:00007210       ??$to_chars@N@detail@nlohmann@@YAPADPAD0N@Z 00408210 f i BuildTool.obj
 0001:00007410       ??$to_json@V?$basic_json@Vmap@std@@Vvector@2@V?$basic_string@DU?$char_traits@D@std@@V?$allocator@D@2@@2@_N_J_KNVallocator@2@Uadl_serializer@nlohmann@@@nlohmann@@PBD$0A@@detail@nlohmann@@YAXAAV?$basic_json@Vmap@std@@Vvector@2@V?$basic_string@DU?$char_traits@D@std@@V?$allocator@D@2@@2@_N_J_KNVallocator@2@Uadl_serializer@nlohmann@@@1@ABQBD@Z 00408410 f i BuildTool.obj
 0001:00007440       ??$use_facet@V?$codecvt@DDU_Mbstatet@@@std@@@std@@YAABV?$codecvt@DDU_Mbstatet@@@0@ABVlocale@0@@Z 00408440 f i BuildTool.obj
 0001:000075a0       ??0?$_String_alloc@U?$_String_base_types@DV?$allocator@D@std@@@std@@@std@@QAE@XZ 004085a0 f i BuildTool.obj
 0001:00007620       ??0?$_String_val@U?$_Simple_types@D@std@@@std@@QAE@XZ 00408620 f i BuildTool.obj
 0001:00007650       ??0?$_Tree_comp_alloc@V?$_Tmap_traits@V?$basic_string@DU?$char_traits@D@std@@V?$allocator@D@2@@std@@V?$basic_json@Vmap@std@@Vvector@2@V?$basic_string@DU?$char_traits@D@std@@V?$allocator@D@2@@2@_N_J_KNVallocator@2@Uadl_serializer@nlohmann@@@nlohmann@@U?$less@V?$basic_string@DU?$char_traits@D@std@@V?$allocator@D@2@@std@@@2@V?$allocator@U?$pair@$$CBV?$basic_string@DU?$char_traits@D@std@@V?$allocator@D@2@@std@@V?$basic_json@Vmap@std@@Vvector@2@V?$basic_string@DU?$char_traits@D@std@@V?$allocator@D@2@@2@_N_J_KNVallocator@2@Uadl_serializer@nlohmann@@@nlohmann@@@std@@@2@$0A@@std@@@std@@QAE@ABU?$less@V?$basic_string@DU?$char_traits@D@std@@V?$allocator@D@2@@std@@@1@@Z 00408650 f i BuildTool.obj
 0001:000076b0       ??0?$_Tree_const_iterator@V?$_Tree_val@U?$_Tree_simple_types@U?$pair@$$CBV?$basic_string@DU?$char_traits@D@std@@V?$allocator@D@2@@std@@V?$basic_json@Vmap@std@@Vvector@2@V?$basic_string@DU?$char_traits@D@std@@V?$allocator@D@2@@2@_N_J_KNVallocator@2@Uadl_serializer@nlohmann@@@nlohmann@@@std@@@std@@@std@@@std@@QAE@$$QAV01@@Z 004086b0 f i BuildTool.obj
 0001:000076f0       ??0?$_Tree_const_iterator@V?$_Tree_val@U?$_Tree_simple_types@U?$pair@$$CBV?$basic_string@DU?$char_traits@D@std@@V?$allocator@D@2@@std@@V?$basic_json@Vmap@std@@Vvector@2@V?$basic_string@DU?$char_traits@D@std@@V?$allocator@D@2@@2@_N_J_KNVallocator@2@Uadl_serializer@nlohmann@@@nlohmann@@@std@@@std@@@std@@@std@@QAE@ABV01@@Z 004086f0 f i BuildTool.obj
 0001:00007730       ??0?$_Tree_const_iterator@V?$_Tree_val@U?$_Tree_simple_types@U?$pair@$$CBV?$basic_string@DU?$char_traits@D@std@@V?$allocator@D@2@@std@@V?$basic_json@Vmap@std@@Vvector@2@V?$basic_string@DU?$char_traits@D@std@@V?$allocator@D@2@@2@_N_J_KNVallocator@2@Uadl_serializer@nlohmann@@@nlohmann@@@std@@@std@@@std@@@std@@QAE@PAU?$_Tree_node@U?$pair@$$CBV?$basic_string@DU?$char_traits@D@std@@V?$allocator@D@2@@std@@V?$basic_json@Vmap@std@@Vvector@2@V?$basic_string@DU?$char_traits@D@std@@V?$allocator@D@2@@2@_N_J_KNVallocator@2@Uadl_serializer@nlohmann@@@nlohmann@@@std@@PAX@1@PBV?$_Tree_val@U?$_Tree_simple_types@U?$pair@$$CBV?$basic_string@DU?$char_traits@D@std@@V?$allocator@D@2@@std@@V?$basic_json@Vmap@std@@Vvector@2@V?$basic_string@DU?$char_traits@D@std@@V?$allocator@D@2@@2@_N_J_KNVallocator@2@Uadl_serializer@nlohmann@@@nlohmann@@@std@@@std@@@1@@Z 00408730 f i BuildTool.obj
 0001:00007770       ??0?$_Tree_iterator@V?$_Tree_val@U?$_Tree_simple_types@U?$pair@$$CBV?$basic_string@DU?$char_traits@D@std@@V?$allocator@D@2@@std@@V?$basic_json@Vmap@std@@Vvector@2@V?$basic_string@DU?$char_traits@D@std@@V?$allocator@D@2@@2@_N_J_KNVallocator@2@Uadl_serializer@nlohmann@@@nlohmann@@@std@@@std@@@std@@@std@@QAE@$$QAV01@@Z 00408770 f i BuildTool.obj
 0001:000077b0       ??0?$_Tree_iterator@V?$_Tree_val@U?$_Tree_simple_types@U?$pair@$$CBV?$basic_string@DU?$char_traits@D@std@@V?$allocator@D@2@@std@@V?$basic_json@Vmap@std@@Vvector@2@V?$basic_string@DU?$char_traits@D@std@@V?$allocator@D@2@@2@_N_J_KNVallocator@2@Uadl_serializer@nlohmann@@@nlohmann@@@std@@@std@@@std@@@std@@QAE@PAU?$_Tree_node@U?$pair@$$CBV?$basic_string@DU?$char_traits@D@std@@V?$allocator@D@2@@std@@V?$basic_json@Vmap@std@@Vvector@2@V?$basic_string@DU?$char_traits@D@std@@V?$allocator@D@2@@2@_N_J_KNVallocator@2@Uadl_serializer@nlohmann@@@nlohmann@@@std@@PAX@1@PBV?$_Tree_val@U?$_Tree_simple_types@U?$pair@$$CBV?$basic_string@DU?$char_traits@D@std@@V?$allocator@D@2@@std@@V?$basic_json@Vmap@std@@Vvector@2@V?$basic_string@DU?$char_traits@D@std@@V?$allocator@D@2@@2@_N_J_KNVallocator@2@Uadl_serializer@nlohmann@@@nlohmann@@@std@@@std@@@1@@Z 004087b0 f i BuildTool.obj
 0001:000077f0       ??0?$_Tree_unchecked_const_iterator@V?$_Tree_val@U?$_Tree_simple_types@U?$pair@$$CBV?$basic_string@DU?$char_traits@D@std@@V?$allocator@D@2@@std@@V?$basic_json@Vmap@std@@Vvector@2@V?$basic_string@DU?$char_traits@D@std@@V?$allocator@D@2@@2@_N_J_KNVallocator@2@Uadl_serializer@nlohmann@@@nlohmann@@@std@@@std@@@std@@U_Iterator_base12@2@@std@@QAE@ABV01@@Z 004087f0 f i BuildTool.obj
 0001:00007830       ??0?$_Tree_unchecked_const_iterator@V?$_Tree_val@U?$_Tree_simple_types@U?$pair@$$CBV?$basic_string@DU?$char_traits@D@std@@V?$allocator@D@2@@std@@V?$basic_json@Vmap@std@@Vvector@2@V?$basic_string@DU?$char_traits@D@std@@V?$allocator@D@2@@2@_N_J_KNVallocator@2@Uadl_serializer@nlohmann@@@nlohmann@@@std@@@std@@@std@@U_Iterator_base12@2@@std@@QAE@PAU?$_Tree_node@U?$pair@$$CBV?$basic_string@DU?$char_traits@D@std@@V?$allocator@D@2@@std@@V?$basic_json@Vmap@std@@Vvector@2@V?$basic_string@DU?$char_traits@D@std@@V?$allocator@D@2@@2@_N_J_KNVallocator@2@Uadl_serializer@nlohmann@@@nlohmann@@@std@@PAX@1@PBV?$_Tree_val@U?$_Tree_simple_types@U?$pair@$$CBV?$basic_string@DU?$char_traits@D@std@@V?$allocator@D@2@@std@@V?$basic_json@Vmap@std@@Vvector@2@V?$basic_string@DU?$char_traits@D@std@@V?$allocator@D@2@@2@_N_J_KNVallocator@2@Uadl_serializer@nlohmann@@@nlohmann@@@std@@@std@@@1@@Z 00408830 f i BuildTool.obj
 0001:00007870       ??0?$_Tree_unchecked_const_iterator@V?$_Tree_val@U?$_Tree_simple_types@U?$pair@$$CBV?$basic_string@DU?$char_traits@D@std@@V?$allocator@D@2@@std@@V?$basic_json@Vmap@std@@Vvector@2@V?$basic_string@DU?$char_traits@D@std@@V?$allocator@D@2@@2@_N_J_KNVallocator@2@Uadl_serializer@nlohmann@@@nlohmann@@@std@@@std@@@std@@U_Iterator_base12@2@@std@@QAE@XZ 00408870 f i BuildTool.obj
 0001:000078a0       ??0?$_Vector_alloc@U?$_Vec_base_types@V?$basic_json@Vmap@std@@Vvector@2@V?$basic_string@DU?$char_traits@D@std@@V?$allocator@D@2@@2@_N_J_KNVallocator@2@Uadl_serializer@nlohmann@@@nlohmann@@V?$allocator@V?$basic_json@Vmap@std@@Vvector@2@V?$basic_string@DU?$char_traits@D@std@@V?$allocator@D@2@@2@_N_J_KNVallocator@2@Uadl_serializer@nlohmann@@@nlohmann@@@std@@@std@@@std@@QAE@XZ 004088a0 f i BuildTool.obj
 0001:000078f0       ??0?$basic_ofstream@DU?$char_traits@D@std@@@std@@QAE@PBDHH@Z 004088f0 f i BuildTool.obj
 0001:00007a10       ??0?$basic_string@DU?$char_traits@D@std@@V?$allocator@D@2@@std@@QAE@$$QAV01@@Z 00408a10 f i BuildTool.obj
 0001:00007ac0       ??0?$basic_string@DU?$char_traits@D@std@@V?$allocator@D@2@@std@@QAE@ID@Z 00408ac0 f i BuildTool.obj
 0001:00007b60       ??0?$basic_string@DU?$char_traits@D@std@@V?$allocator@D@2@@std@@QAE@QBD@Z 00408b60 f i BuildTool.obj
 0001:00007c30       ??0?$basic_string@DU?$char_traits@D@std@@V?$allocator@D@2@@std@@QAE@XZ 00408c30 f i BuildTool.obj
 0001:00007cb0       ??0?$basic_string@DVallocator@eastl@@@eastl@@QAE@$$QAV01@@Z 00408cb0 f i BuildTool.obj
 0001:00007db0       ??0?$basic_string@DVallocator@eastl@@@eastl@@QAE@ABV01@@Z 00408db0 f i BuildTool.obj
 0001:00007e30       ??0?$basic_string@DVallocator@eastl@@@eastl@@QAE@IDABVallocator@1@@Z 00408e30 f i BuildTool.obj
 0001:00007e70       ??0?$basic_string@DVallocator@eastl@@@eastl@@QAE@PBD0ABVallocator@1@@Z 00408e70 f i BuildTool.obj
 0001:00007eb0       ??0?$basic_string@DVallocator@eastl@@@eastl@@QAE@PBDABVallocator@1@@Z 00408eb0 f i BuildTool.obj
 0001:00007f20       ??0?$basic_string@DVallocator@eastl@@@eastl@@QAE@UCtorDoNotInitialize@01@IABVallocator@1@@Z 00408f20 f i BuildTool.obj
 0001:00007f70       ??0?$basic_string@DVallocator@eastl@@@eastl@@QAE@XZ 00408f70 f i BuildTool.obj
 0001:00007fc0       ??0?$compressed_pair_imp@ULayout@?$basic_string@DVallocator@eastl@@@eastl@@Vallocator@3@$0A@@eastl@@QAE@ABVallocator@1@@Z 00408fc0 f i BuildTool.obj
 0001:00008010       ??0?$serializer@V?$basic_json@Vmap@std@@Vvector@2@V?$basic_string@DU?$char_traits@D@std@@V?$allocator@D@2@@2@_N_J_KNVallocator@2@Uadl_serializer@nlohmann@@@nlohmann@@@detail@nlohmann@@QAE@V?$shared_ptr@U?$output_adapter_protocol@D@detail@nlohmann@@@std@@D@Z 00409010 f i BuildTool.obj
 0001:00008170       ??0bad_cast@std@@QAE@ABV01@@Z 00409170 f i BuildTool.obj
 0001:000081c0       ??0bad_cast@std@@QAE@XZ    004091c0 f i BuildTool.obj
 0001:00008200       ??0exception@detail@nlohmann@@QAE@ABV012@@Z 00409200 f i BuildTool.obj
 0001:000082a0       ??0exception@std@@QAE@ABV01@@Z 004092a0 f i BuildTool.obj
 0001:000082e0       ??0json_value@?$basic_json@Vmap@std@@Vvector@2@V?$basic_string@DU?$char_traits@D@std@@V?$allocator@D@2@@2@_N_J_KNVallocator@2@Uadl_serializer@nlohmann@@@nlohmann@@QAE@W4value_t@detail@2@@Z 004092e0 f i BuildTool.obj
 0001:00008450       ??0other_error@detail@nlohmann@@QAE@ABV012@@Z 00409450 f i BuildTool.obj
 0001:00008480       ??0runtime_error@std@@QAE@PBD@Z 00409480 f i BuildTool.obj
 0001:000084d0       ??0type_error@detail@nlohmann@@QAE@ABV012@@Z 004094d0 f i BuildTool.obj
 0001:00008500       ??1?$_Compressed_pair@V?$allocator@D@std@@V?$_String_val@U?$_Simple_types@D@std@@@2@$00@std@@QAE@XZ 00409500 f i BuildTool.obj
 0001:00008510       ??1?$_String_alloc@U?$_String_base_types@DV?$allocator@D@std@@@std@@@std@@QAE@XZ 00409510 f i BuildTool.obj
 0001:00008550       ??1?$_String_const_iterator@V?$_String_val@U?$_Simple_types@D@std@@@std@@@std@@QAE@XZ 00409550 f i BuildTool.obj
 0001:000085c0       ??1?$_String_iterator@V?$_String_val@U?$_Simple_types@D@std@@@std@@@std@@QAE@XZ 004095c0 f i BuildTool.obj
 0001:00008630       ??1?$_Tree_comp_alloc@V?$_Tmap_traits@V?$basic_string@DU?$char_traits@D@std@@V?$allocator@D@2@@std@@V?$basic_json@Vmap@std@@Vvector@2@V?$basic_string@DU?$char_traits@D@std@@V?$allocator@D@2@@2@_N_J_KNVallocator@2@Uadl_serializer@nlohmann@@@nlohmann@@U?$less@V?$basic_string@DU?$char_traits@D@std@@V?$allocator@D@2@@std@@@2@V?$allocator@U?$pair@$$CBV?$basic_string@DU?$char_traits@D@std@@V?$allocator@D@2@@std@@V?$basic_json@Vmap@std@@Vvector@2@V?$basic_string@DU?$char_traits@D@std@@V?$allocator@D@2@@2@_N_J_KNVallocator@2@Uadl_serializer@nlohmann@@@nlohmann@@@std@@@2@$0A@@std@@@std@@QAE@XZ 00409630 f i BuildTool.obj
 0001:000086b0       ??1?$_Tree_const_iterator@V?$_Tree_val@U?$_Tree_simple_types@U?$pair@$$CBV?$basic_string@DU?$char_traits@D@std@@V?$allocator@D@2@@std@@V?$basic_json@Vmap@std@@Vvector@2@V?$basic_string@DU?$char_traits@D@std@@V?$allocator@D@2@@2@_N_J_KNVallocator@2@Uadl_serializer@nlohmann@@@nlohmann@@@std@@@std@@@std@@@std@@QAE@XZ 004096b0 f i BuildTool.obj
 0001:00008720       ??1?$_Tree_iterator@V?$_Tree_val@U?$_Tree_simple_types@U?$pair@$$CBV?$basic_string@DU?$char_traits@D@std@@V?$allocator@D@2@@std@@V?$basic_json@Vmap@std@@Vvector@2@V?$basic_string@DU?$char_traits@D@std@@V?$allocator@D@2@@2@_N_J_KNVallocator@2@Uadl_serializer@nlohmann@@@nlohmann@@@std@@@std@@@std@@@std@@QAE@XZ 00409720 f i BuildTool.obj
 0001:00008790       ??1?$_Vector_const_iterator@V?$_Vector_val@U?$_Simple_types@V?$basic_json@Vmap@std@@Vvector@2@V?$basic_string@DU?$char_traits@D@std@@V?$allocator@D@2@@2@_N_J_KNVallocator@2@Uadl_serializer@nlohmann@@@nlohmann@@@std@@@std@@@std@@QAE@XZ 00409790 f i BuildTool.obj
 0001:00008800       ??1?$basic_filebuf@DU?$char_traits@D@std@@@std@@UAE@XZ 00409800 f i BuildTool.obj
 0001:00008880       ??1?$basic_json@Vmap@std@@Vvector@2@V?$basic_string@DU?$char_traits@D@std@@V?$allocator@D@2@@2@_N_J_KNVallocator@2@Uadl_serializer@nlohmann@@@nlohmann@@QAE@XZ 00409880 f i BuildTool.obj
 0001:000088b0       ??1?$basic_ofstream@DU?$char_traits@D@std@@@std@@UAE@XZ 004098b0 f i BuildTool.obj
 0001:00008910       ??1?$basic_string@DU?$char_traits@D@std@@V?$allocator@D@2@@std@@QAE@XZ 00409910 f i BuildTool.obj
 0001:00008970       ??1?$basic_string@DVallocator@eastl@@@eastl@@QAE@XZ 00409970 f i BuildTool.obj
 0001:000089b0       ??1?$output_adapter@DV?$basic_string@DU?$char_traits@D@std@@V?$allocator@D@2@@std@@@detail@nlohmann@@QAE@XZ 004099b0 f i BuildTool.obj
 0001:00008a10       ??1?$pair@$$CBV?$basic_string@DU?$char_traits@D@std@@V?$allocator@D@2@@std@@V?$basic_json@Vmap@std@@Vvector@2@V?$basic_string@DU?$char_traits@D@std@@V?$allocator@D@2@@2@_N_J_KNVallocator@2@Uadl_serializer@nlohmann@@@nlohmann@@@std@@QAE@XZ 00409a10 f i BuildTool.obj
 0001:00008aa0       ??1?$pair@V?$_Tree_iterator@V?$_Tree_val@U?$_Tree_simple_types@U?$pair@$$CBV?$basic_string@DU?$char_traits@D@std@@V?$allocator@D@2@@std@@V?$basic_json@Vmap@std@@Vvector@2@V?$basic_string@DU?$char_traits@D@std@@V?$allocator@D@2@@2@_N_J_KNVallocator@2@Uadl_serializer@nlohmann@@@nlohmann@@@std@@@std@@@std@@@std@@_N@std@@QAE@XZ 00409aa0 f i BuildTool.obj
 0001:00008b10       ??1?$serializer@V?$basic_json@Vmap@std@@Vvector@2@V?$basic_string@DU?$char_traits@D@std@@V?$allocator@D@2@@2@_N_J_KNVallocator@2@Uadl_serializer@nlohmann@@@nlohmann@@@detail@nlohmann@@QAE@XZ 00409b10 f i BuildTool.obj
 0001:00008ba0       ??1?$shared_ptr@U?$output_adapter_protocol@D@detail@nlohmann@@@std@@QAE@XZ 00409ba0 f i BuildTool.obj
 0001:00008bf0       ??1?$shared_ptr@V?$output_stream_adapter@D@detail@nlohmann@@@std@@QAE@XZ 00409bf0 f i BuildTool.obj
 0001:00008f40       ??1?$unique_ptr@V_Facet_base@std@@U?$default_delete@V_Facet_base@std@@@2@@std@@QAE@XZ 00409f40 f i BuildTool.obj
 0001:00008fc0       ??1bad_cast@std@@UAE@XZ    00409fc0 f i BuildTool.obj
 0001:00008ff0       ??1exception@detail@nlohmann@@UAE@XZ 00409ff0 f i BuildTool.obj
 0001:00009040       ??1exception@std@@UAE@XZ   0040a040 f i BuildTool.obj
 0001:00009070       ??1locale@std@@QAE@XZ      0040a070 f i BuildTool.obj
 0001:000090f0       ??1other_error@detail@nlohmann@@UAE@XZ 0040a0f0 f i BuildTool.obj
 0001:00009110       ??1type_error@detail@nlohmann@@UAE@XZ 0040a110 f i BuildTool.obj
 0001:00009130       ??4?$_Tree_unchecked_const_iterator@V?$_Tree_val@U?$_Tree_simple_types@U?$pair@$$CBV?$basic_string@DU?$char_traits@D@std@@V?$allocator@D@2@@std@@V?$basic_json@Vmap@std@@Vvector@2@V?$basic_string@DU?$char_traits@D@std@@V?$allocator@D@2@@2@_N_J_KNVallocator@2@Uadl_serializer@nlohmann@@@nlohmann@@@std@@@std@@@std@@U_Iterator_base12@2@@std@@QAEAAV01@ABV01@@Z 0040a130 f i BuildTool.obj
 0001:00009160       ??4?$basic_json@Vmap@std@@Vvector@2@V?$basic_string@DU?$char_traits@D@std@@V?$allocator@D@2@@2@_N_J_KNVallocator@2@Uadl_serializer@nlohmann@@@nlohmann@@QAEAAV01@V01@@Z 0040a160 f i BuildTool.obj
 0001:00009220       ??4_Iterator_base12@std@@QAEAAU01@ABU01@@Z 0040a220 f i BuildTool.obj
 0001:000092a0       ??6nlohmann@@YAAAV?$basic_ostream@DU?$char_traits@D@std@@@std@@AAV12@ABV?$basic_json@Vmap@std@@Vvector@2@V?$basic_string@DU?$char_traits@D@std@@V?$allocator@D@2@@2@_N_J_KNVallocator@2@Uadl_serializer@nlohmann@@@0@@Z 0040a2a0 f i BuildTool.obj
 0001:00009530       ??8?$_Tree_const_iterator@V?$_Tree_val@U?$_Tree_simple_types@U?$pair@$$CBV?$basic_string@DU?$char_traits@D@std@@V?$allocator@D@2@@std@@V?$basic_json@Vmap@std@@Vvector@2@V?$basic_string@DU?$char_traits@D@std@@V?$allocator@D@2@@2@_N_J_KNVallocator@2@Uadl_serializer@nlohmann@@@nlohmann@@@std@@@std@@@std@@@std@@QBE_NABV01@@Z 0040a530 f i BuildTool.obj
 0001:000095e0       ??A?$array@D$0CAA@@std@@QAEAADI@Z 0040a5e0 f i BuildTool.obj
 0001:00009660       ??A?$array@D$0EA@@std@@QAEAADI@Z 0040a660 f i BuildTool.obj
 0001:000096e0       ??A?$array@E$0BJA@@std@@QBEABEI@Z 0040a6e0 f i BuildTool.obj
 0001:00009760       ??A?$basic_string@DU?$char_traits@D@std@@V?$allocator@D@2@@std@@QAEAADI@Z 0040a760 f i BuildTool.obj
 0001:00009800       ??A?$basic_string@DU?$char_traits@D@std@@V?$allocator@D@2@@std@@QBEABDI@Z 0040a800 f i BuildTool.obj
 0001:000098a0       ??A?$basic_string@DVallocator@eastl@@@eastl@@QAEAADI@Z 0040a8a0 f i BuildTool.obj
 0001:000098e0       ??A?$map@V?$basic_string@DU?$char_traits@D@std@@V?$allocator@D@2@@std@@V?$basic_json@Vmap@std@@Vvector@2@V?$basic_string@DU?$char_traits@D@std@@V?$allocator@D@2@@2@_N_J_KNVallocator@2@Uadl_serializer@nlohmann@@@nlohmann@@U?$less@V?$basic_string@DU?$char_traits@D@std@@V?$allocator@D@2@@std@@@2@V?$allocator@U?$pair@$$CBV?$basic_string@DU?$char_traits@D@std@@V?$allocator@D@2@@std@@V?$basic_json@Vmap@std@@Vvector@2@V?$basic_string@DU?$char_traits@D@std@@V?$allocator@D@2@@2@_N_J_KNVallocator@2@Uadl_serializer@nlohmann@@@nlohmann@@@std@@@2@@std@@QAEAAV?$basic_json@Vmap@std@@Vvector@2@V?$basic_string@DU?$char_traits@D@std@@V?$allocator@D@2@@2@_N_J_KNVallocator@2@Uadl_serializer@nlohmann@@@nlohmann@@$$QAV?$basic_string@DU?$char_traits@D@std@@V?$allocator@D@2@@1@@Z 0040a8e0 f i BuildTool.obj
 0001:000099a0       ??D?$_String_const_iterator@V?$_String_val@U?$_Simple_types@D@std@@@std@@@std@@QBEABDXZ 0040a9a0 f i BuildTool.obj
 0001:00009ae0       ??D?$_Tree_const_iterator@V?$_Tree_val@U?$_Tree_simple_types@U?$pair@$$CBV?$basic_string@DU?$char_traits@D@std@@V?$allocator@D@2@@std@@V?$basic_json@Vmap@std@@Vvector@2@V?$basic_string@DU?$char_traits@D@std@@V?$allocator@D@2@@2@_N_J_KNVallocator@2@Uadl_serializer@nlohmann@@@nlohmann@@@std@@@std@@@std@@@std@@QBEABU?$pair@$$CBV?$basic_string@DU?$char_traits@D@std@@V?$allocator@D@2@@std@@V?$basic_json@Vmap@std@@Vvector@2@V?$basic_string@DU?$char_traits@D@std@@V?$allocator@D@2@@2@_N_J_KNVallocator@2@Uadl_serializer@nlohmann@@@nlohmann@@@1@XZ 0040aae0 f i BuildTool.obj
 0001:00009b70       ??D?$_Vector_const_iterator@V?$_Vector_val@U?$_Simple_types@V?$basic_json@Vmap@std@@Vvector@2@V?$basic_string@DU?$char_traits@D@std@@V?$allocator@D@2@@2@_N_J_KNVallocator@2@Uadl_serializer@nlohmann@@@nlohmann@@@std@@@std@@@std@@QBEABV?$basic_json@Vmap@std@@Vvector@2@V?$basic_string@DU?$char_traits@D@std@@V?$allocator@D@2@@2@_N_J_KNVallocator@2@Uadl_serializer@nlohmann@@@nlohmann@@XZ 0040ab70 f i BuildTool.obj
 0001:00009c00       ??E?$_Tree_const_iterator@V?$_Tree_val@U?$_Tree_simple_types@U?$pair@$$CBV?$basic_string@DU?$char_traits@D@std@@V?$allocator@D@2@@std@@V?$basic_json@Vmap@std@@Vvector@2@V?$basic_string@DU?$char_traits@D@std@@V?$allocator@D@2@@2@_N_J_KNVallocator@2@Uadl_serializer@nlohmann@@@nlohmann@@@std@@@std@@@std@@@std@@QAE?AV01@H@Z 0040ac00 f i BuildTool.obj
 0001:00009ce0       ??E?$_Tree_const_iterator@V?$_Tree_val@U?$_Tree_simple_types@U?$pair@$$CBV?$basic_string@DU?$char_traits@D@std@@V?$allocator@D@2@@std@@V?$basic_json@Vmap@std@@Vvector@2@V?$basic_string@DU?$char_traits@D@std@@V?$allocator@D@2@@2@_N_J_KNVallocator@2@Uadl_serializer@nlohmann@@@nlohmann@@@std@@@std@@@std@@@std@@QAEAAV01@XZ 0040ace0 f i BuildTool.obj
 0001:00009d70       ??E?$_Tree_unchecked_const_iterator@V?$_Tree_val@U?$_Tree_simple_types@U?$pair@$$CBV?$basic_string@DU?$char_traits@D@std@@V?$allocator@D@2@@std@@V?$basic_json@Vmap@std@@Vvector@2@V?$basic_string@DU?$char_traits@D@std@@V?$allocator@D@2@@2@_N_J_KNVallocator@2@Uadl_serializer@nlohmann@@@nlohmann@@@std@@@std@@@std@@U_Iterator_base12@2@@std@@QAEAAV01@XZ 0040ad70 f i BuildTool.obj
 0001:00009e10       ??E?$_Vector_const_iterator@V?$_Vector_val@U?$_Simple_types@V?$basic_json@Vmap@std@@Vvector@2@V?$basic_string@DU?$char_traits@D@std@@V?$allocator@D@2@@2@_N_J_KNVallocator@2@Uadl_serializer@nlohmann@@@nlohmann@@@std@@@std@@@std@@QAEAAV01@XZ 0040ae10 f i BuildTool.obj
 0001:00009ea0       ??F?$_Tree_const_iterator@V?$_Tree_val@U?$_Tree_simple_types@U?$pair@$$CBV?$basic_string@DU?$char_traits@D@std@@V?$allocator@D@2@@std@@V?$basic_json@Vmap@std@@Vvector@2@V?$basic_string@DU?$char_traits@D@std@@V?$allocator@D@2@@2@_N_J_KNVallocator@2@Uadl_serializer@nlohmann@@@nlohmann@@@std@@@std@@@std@@@std@@QAEAAV01@XZ 0040aea0 f i BuildTool.obj
 0001:00009f70       ??F?$_Tree_unchecked_const_iterator@V?$_Tree_val@U?$_Tree_simple_types@U?$pair@$$CBV?$basic_string@DU?$char_traits@D@std@@V?$allocator@D@2@@std@@V?$basic_json@Vmap@std@@Vvector@2@V?$basic_string@DU?$char_traits@D@std@@V?$allocator@D@2@@2@_N_J_KNVallocator@2@Uadl_serializer@nlohmann@@@nlohmann@@@std@@@std@@@std@@U_Iterator_base12@2@@std@@QAEAAV01@XZ 0040af70 f i BuildTool.obj
 0001:0000a030       ??G?$_String_const_iterator@V?$_String_val@U?$_Simple_types@D@std@@@std@@@std@@QBE?AV01@H@Z 0040b030 f i BuildTool.obj
 0001:0000a120       ??G?$_Vector_const_iterator@V?$_Vector_val@U?$_Simple_types@V?$basic_json@Vmap@std@@Vvector@2@V?$basic_string@DU?$char_traits@D@std@@V?$allocator@D@2@@2@_N_J_KNVallocator@2@Uadl_serializer@nlohmann@@@nlohmann@@@std@@@std@@@std@@QBE?AV01@H@Z 0040b120 f i BuildTool.obj
 0001:0000a210       ??M?$_Array_const_iterator@D$0EA@@std@@QBE_NABV01@@Z 0040b210 f i BuildTool.obj
 0001:0000a290       ??Y?$_Array_const_iterator@D$0EA@@std@@QAEAAV01@H@Z 0040b290 f i BuildTool.obj
 0001:0000a300       ??Y?$_String_const_iterator@V?$_String_val@U?$_Simple_types@D@std@@@std@@@std@@QAEAAV01@H@Z 0040b300 f i BuildTool.obj
 0001:0000a4a0       ??Y?$_Vector_const_iterator@V?$_Vector_val@U?$_Simple_types@V?$basic_json@Vmap@std@@Vvector@2@V?$basic_string@DU?$char_traits@D@std@@V?$allocator@D@2@@2@_N_J_KNVallocator@2@Uadl_serializer@nlohmann@@@nlohmann@@@std@@@std@@@std@@QAEAAV01@H@Z 0040b4a0 f i BuildTool.obj
 0001:0000a560       ??_D?$basic_ofstream@DU?$char_traits@D@std@@@std@@QAEXXZ 0040b560 f i BuildTool.obj
 0001:0000a582       ??_E?$basic_ofstream@DU?$char_traits@D@std@@@std@@$4PPPPPPPM@A@AEPAXI@Z 0040b582 f i BuildTool.obj
 0001:0000a590       ??_E?$_Ref_count_obj@V?$output_stream_adapter@D@detail@nlohmann@@@std@@UAEPAXI@Z 0040b590 f i BuildTool.obj
 0001:0000a590       ??_G?$_Ref_count_obj@V?$output_stream_adapter@D@detail@nlohmann@@@std@@UAEPAXI@Z 0040b590 f i BuildTool.obj
 0001:0000a5c0       ??_G?$basic_filebuf@DU?$char_traits@D@std@@@std@@UAEPAXI@Z 0040b5c0 f i BuildTool.obj
 0001:0000a5c0       ??_E?$basic_filebuf@DU?$char_traits@D@std@@@std@@UAEPAXI@Z 0040b5c0 f i BuildTool.obj
 0001:0000a600       ??_G?$basic_ofstream@DU?$char_traits@D@std@@@std@@UAEPAXI@Z 0040b600 f i BuildTool.obj
 0001:0000a600       ??_E?$basic_ofstream@DU?$char_traits@D@std@@@std@@UAEPAXI@Z 0040b600 f i BuildTool.obj
 0001:0000a660       ??_G?$output_adapter_protocol@D@detail@nlohmann@@UAEPAXI@Z 0040b660 f i BuildTool.obj
 0001:0000a660       ??_E?$output_adapter_protocol@D@detail@nlohmann@@UAEPAXI@Z 0040b660 f i BuildTool.obj
 0001:0000a690       ??_G?$output_stream_adapter@D@detail@nlohmann@@UAEPAXI@Z 0040b690 f i BuildTool.obj
 0001:0000a690       ??_E?$output_stream_adapter@D@detail@nlohmann@@UAEPAXI@Z 0040b690 f i BuildTool.obj
 0001:0000a6c0       ??_Ebad_cast@std@@UAEPAXI@Z 0040b6c0 f i BuildTool.obj
 0001:0000a6c0       ??_Gbad_cast@std@@UAEPAXI@Z 0040b6c0 f i BuildTool.obj
 0001:0000a700       ??_Gexception@detail@nlohmann@@UAEPAXI@Z 0040b700 f i BuildTool.obj
 0001:0000a700       ??_Eexception@detail@nlohmann@@UAEPAXI@Z 0040b700 f i BuildTool.obj
 0001:0000a730       ??_Eexception@std@@UAEPAXI@Z 0040b730 f i BuildTool.obj
 0001:0000a730       ??_Gexception@std@@UAEPAXI@Z 0040b730 f i BuildTool.obj
 0001:0000a770       ??_Eother_error@detail@nlohmann@@UAEPAXI@Z 0040b770 f i BuildTool.obj
 0001:0000a770       ??_Gother_error@detail@nlohmann@@UAEPAXI@Z 0040b770 f i BuildTool.obj
 0001:0000a7a0       ??_Eruntime_error@std@@UAEPAXI@Z 0040b7a0 f i BuildTool.obj
 0001:0000a7a0       ??_Gruntime_error@std@@UAEPAXI@Z 0040b7a0 f i BuildTool.obj
 0001:0000a7e0       ??_Gtype_error@detail@nlohmann@@UAEPAXI@Z 0040b7e0 f i BuildTool.obj
 0001:0000a7e0       ??_Etype_error@detail@nlohmann@@UAEPAXI@Z 0040b7e0 f i BuildTool.obj
 0001:0000a810       ?AllocateSelf@?$basic_string@DVallocator@eastl@@@eastl@@IAEXI@Z 0040b810 f i BuildTool.obj
 0001:0000a8d0       ?AllocateSelf@?$basic_string@DVallocator@eastl@@@eastl@@IAEXXZ 0040b8d0 f i BuildTool.obj
 0001:0000a910       ?BeginPtr@Layout@?$basic_string@DVallocator@eastl@@@eastl@@QAEPADXZ 0040b910 f i BuildTool.obj
 0001:0000a970       ?BeginPtr@Layout@?$basic_string@DVallocator@eastl@@@eastl@@QBEPBDXZ 0040b970 f i BuildTool.obj
 0001:0000a9d0       ?CapacityPtr@Layout@?$basic_string@DVallocator@eastl@@@eastl@@QBEPBDXZ 0040b9d0 f i BuildTool.obj
 0001:0000aa40       ?DeallocateSelf@?$basic_string@DVallocator@eastl@@@eastl@@IAEXXZ 0040ba40 f i BuildTool.obj
 0001:0000aad0       ?EndPtr@Layout@?$basic_string@DVallocator@eastl@@@eastl@@QAEPADXZ 0040bad0 f i BuildTool.obj
 0001:0000ab50       ?EndPtr@Layout@?$basic_string@DVallocator@eastl@@@eastl@@QBEPBDXZ 0040bb50 f i BuildTool.obj
 0001:0000abd0       ?GetSize@Layout@?$basic_string@DVallocator@eastl@@@eastl@@QBEIXZ 0040bbd0 f i BuildTool.obj
 0001:0000ac40       ?RangeInitialize@?$basic_string@DVallocator@eastl@@@eastl@@IAEXPBD0@Z 0040bc40 f i BuildTool.obj
 0001:0000ad00       ?ReadFile@FileSystem@Skel@@SAXV?$basic_string@DVallocator@eastl@@@eastl@@AAV34@@Z 0040bd00 f i BuildTool.obj
 0001:0000ae90       ?SizeInitialize@?$basic_string@DVallocator@eastl@@@eastl@@IAEXID@Z 0040be90 f i BuildTool.obj
 0001:0000af50       ?WriteFile@FileSystem@Skel@@SAXV?$basic_string@DVallocator@eastl@@@eastl@@0@Z 0040bf50 f i BuildTool.obj
 0001:0000b000       ?_Adjust_manually_vector_aligned@std@@YAXAAPAXAAI@Z 0040c000 f i BuildTool.obj
 0001:0000b0b0       ?_Adopt@_Iterator_base12@std@@QAEXPBU_Container_base12@2@@Z 0040c0b0 f i BuildTool.obj
 0001:0000b160       ?_Alloc_proxy@?$_String_alloc@U?$_String_base_types@DV?$allocator@D@std@@@std@@@std@@QAEXXZ 0040c160 f i BuildTool.obj
 0001:0000b220       ?_Alloc_proxy@?$_Tree_comp_alloc@V?$_Tmap_traits@V?$basic_string@DU?$char_traits@D@std@@V?$allocator@D@2@@std@@V?$basic_json@Vmap@std@@Vvector@2@V?$basic_string@DU?$char_traits@D@std@@V?$allocator@D@2@@2@_N_J_KNVallocator@2@Uadl_serializer@nlohmann@@@nlohmann@@U?$less@V?$basic_string@DU?$char_traits@D@std@@V?$allocator@D@2@@std@@@2@V?$allocator@U?$pair@$$CBV?$basic_string@DU?$char_traits@D@std@@V?$allocator@D@2@@std@@V?$basic_json@Vmap@std@@Vvector@2@V?$basic_string@DU?$char_traits@D@std@@V?$allocator@D@2@@2@_N_J_KNVallocator@2@Uadl_serializer@nlohmann@@@nlohmann@@@std@@@2@$0A@@std@@@std@@QAEXXZ 0040c220 f i BuildTool.obj
 0001:0000b2f0       ?_Alloc_proxy@?$_Vector_alloc@U?$_Vec_base_types@V?$basic_json@Vmap@std@@Vvector@2@V?$basic_string@DU?$char_traits@D@std@@V?$allocator@D@2@@2@_N_J_KNVallocator@2@Uadl_serializer@nlohmann@@@nlohmann@@V?$allocator@V?$basic_json@Vmap@std@@Vvector@2@V?$basic_string@DU?$char_traits@D@std@@V?$allocator@D@2@@2@_N_J_KNVallocator@2@Uadl_serializer@nlohmann@@@nlohmann@@@std@@@std@@@std@@QAEXXZ 0040c2f0 f i BuildTool.obj
 0001:0000b3b0       ?_Assign_rv_contents_with_alloc_always_equal@?$basic_string@DU?$char_traits@D@std@@V?$allocator@D@2@@std@@QAEX$$QAV12@U?$integral_constant@_N$00@2@@Z 0040c3b0 f i BuildTool.obj
 0001:0000b4b0       ?_Become_small@?$basic_string@DU?$char_traits@D@std@@V?$allocator@D@2@@std@@QAEXXZ 0040c4b0 f i BuildTool.obj
 0001:0000b560       ?_Buyheadnode@?$_Tree_comp_alloc@V?$_Tmap_traits@V?$basic_string@DU?$char_traits@D@std@@V?$allocator@D@2@@std@@V?$basic_json@Vmap@std@@Vvector@2@V?$basic_string@DU?$char_traits@D@std@@V?$allocator@D@2@@2@_N_J_KNVallocator@2@Uadl_serializer@nlohmann@@@nlohmann@@U?$less@V?$basic_string@DU?$char_traits@D@std@@V?$allocator@D@2@@std@@@2@V?$allocator@U?$pair@$$CBV?$basic_string@DU?$char_traits@D@std@@V?$allocator@D@2@@std@@V?$basic_json@Vmap@std@@Vvector@2@V?$basic_string@DU?$char_traits@D@std@@V?$allocator@D@2@@2@_N_J_KNVallocator@2@Uadl_serializer@nlohmann@@@nlohmann@@@std@@@2@$0A@@std@@@std@@QAEPAU?$_Tree_node@U?$pair@$$CBV?$basic_string@DU?$char_traits@D@std@@V?$allocator@D@2@@std@@V?$basic_json@Vmap@std@@Vvector@2@V?$basic_string@DU?$char_traits@D@std@@V?$allocator@D@2@@2@_N_J_KNVallocator@2@Uadl_serializer@nlohmann@@@nlohmann@@@std@@PAX@2@XZ 0040c560 f i BuildTool.obj
 0001:0000b680       ?_Buynode0@?$_Tree_comp_alloc@V?$_Tmap_traits@V?$basic_string@DU?$char_traits@D@std@@V?$allocator@D@2@@std@@V?$basic_json@Vmap@std@@Vvector@2@V?$basic_string@DU?$char_traits@D@std@@V?$allocator@D@2@@2@_N_J_KNVallocator@2@Uadl_serializer@nlohmann@@@nlohmann@@U?$less@V?$basic_string@DU?$char_traits@D@std@@V?$allocator@D@2@@std@@@2@V?$allocator@U?$pair@$$CBV?$basic_string@DU?$char_traits@D@std@@V?$allocator@D@2@@std@@V?$basic_json@Vmap@std@@Vvector@2@V?$basic_string@DU?$char_traits@D@std@@V?$allocator@D@2@@2@_N_J_KNVallocator@2@Uadl_serializer@nlohmann@@@nlohmann@@@std@@@2@$0A@@std@@@std@@QAEPAU?$_Tree_node@U?$pair@$$CBV?$basic_string@DU?$char_traits@D@std@@V?$allocator@D@2@@std@@V?$basic_json@Vmap@std@@Vvector@2@V?$basic_string@DU?$char_traits@D@std@@V?$allocator@D@2@@2@_N_J_KNVallocator@2@Uadl_serializer@nlohmann@@@nlohmann@@@std@@PAX@2@XZ 0040c680 f i BuildTool.obj
 0001:0000b790       ?_Calculate_growth@?$basic_string@DU?$char_traits@D@std@@V?$allocator@D@2@@std@@QBEII@Z 0040c790 f i BuildTool.obj
 0001:0000b820       ?_Compat@?$_Vector_const_iterator@V?$_Vector_val@U?$_Simple_types@V?$basic_json@Vmap@std@@Vvector@2@V?$basic_string@DU?$char_traits@D@std@@V?$allocator@D@2@@2@_N_J_KNVallocator@2@Uadl_serializer@nlohmann@@@nlohmann@@@std@@@std@@@std@@QBEXABV12@@Z 0040c820 f i BuildTool.obj
 0001:0000b8b0       ?_Construct@?$_Tree_comp_alloc@V?$_Tmap_traits@V?$basic_string@DU?$char_traits@D@std@@V?$allocator@D@2@@std@@V?$basic_json@Vmap@std@@Vvector@2@V?$basic_string@DU?$char_traits@D@std@@V?$allocator@D@2@@2@_N_J_KNVallocator@2@Uadl_serializer@nlohmann@@@nlohmann@@U?$less@V?$basic_string@DU?$char_traits@D@std@@V?$allocator@D@2@@std@@@2@V?$allocator@U?$pair@$$CBV?$basic_string@DU?$char_traits@D@std@@V?$allocator@D@2@@std@@V?$basic_json@Vmap@std@@Vvector@2@V?$basic_string@DU?$char_traits@D@std@@V?$allocator@D@2@@2@_N_J_KNVallocator@2@Uadl_serializer@nlohmann@@@nlohmann@@@std@@@2@$0A@@std@@@std@@QAEXXZ 0040c8b0 f i BuildTool.obj
 0001:0000b950       ?_Decref@_Ref_count_base@std@@QAEXXZ 0040c950 f i BuildTool.obj
 0001:0000b9a0       ?_Delete_this@?$_Ref_count_obj@V?$output_stream_adapter@D@detail@nlohmann@@@std@@EAEXXZ 0040c9a0 f i BuildTool.obj
 0001:0000b9e0       ?_Destroy@?$_Ref_count_obj@V?$output_stream_adapter@D@detail@nlohmann@@@std@@EAEXXZ 0040c9e0 f i BuildTool.obj
 0001:0000ba10       ?_Destroy_if_node@?$_Tree@V?$_Tmap_traits@V?$basic_string@DU?$char_traits@D@std@@V?$allocator@D@2@@std@@V?$basic_json@Vmap@std@@Vvector@2@V?$basic_string@DU?$char_traits@D@std@@V?$allocator@D@2@@2@_N_J_KNVallocator@2@Uadl_serializer@nlohmann@@@nlohmann@@U?$less@V?$basic_string@DU?$char_traits@D@std@@V?$allocator@D@2@@std@@@2@V?$allocator@U?$pair@$$CBV?$basic_string@DU?$char_traits@D@std@@V?$allocator@D@2@@std@@V?$basic_json@Vmap@std@@Vvector@2@V?$basic_string@DU?$char_traits@D@std@@V?$allocator@D@2@@2@_N_J_KNVallocator@2@Uadl_serializer@nlohmann@@@nlohmann@@@std@@@2@$0A@@std@@@std@@IAEXPAU?$_Tree_node@U?$pair@$$CBV?$basic_string@DU?$char_traits@D@std@@V?$allocator@D@2@@std@@V?$basic_json@Vmap@std@@Vvector@2@V?$basic_string@DU?$char_traits@D@std@@V?$allocator@D@2@@2@_N_J_KNVallocator@2@Uadl_serializer@nlohmann@@@nlohmann@@@std@@PAX@2@@Z 0040ca10 f i BuildTool.obj
 0001:0000ba70       ?_Endwrite@?$basic_filebuf@DU?$char_traits@D@std@@@std@@IAE_NXZ 0040ca70 f i BuildTool.obj
 0001:0000bec0       ?_Eos@?$basic_string@DU?$char_traits@D@std@@V?$allocator@D@2@@std@@QAEXI@Z 0040cec0 f i BuildTool.obj
 0001:0000bf30       ?_Erase@?$_Tree@V?$_Tmap_traits@V?$basic_string@DU?$char_traits@D@std@@V?$allocator@D@2@@std@@V?$basic_json@Vmap@std@@Vvector@2@V?$basic_string@DU?$char_traits@D@std@@V?$allocator@D@2@@2@_N_J_KNVallocator@2@Uadl_serializer@nlohmann@@@nlohmann@@U?$less@V?$basic_string@DU?$char_traits@D@std@@V?$allocator@D@2@@std@@@2@V?$allocator@U?$pair@$$CBV?$basic_string@DU?$char_traits@D@std@@V?$allocator@D@2@@std@@V?$basic_json@Vmap@std@@Vvector@2@V?$basic_string@DU?$char_traits@D@std@@V?$allocator@D@2@@2@_N_J_KNVallocator@2@Uadl_serializer@nlohmann@@@nlohmann@@@std@@@2@$0A@@std@@@std@@IAEXPAU?$_Tree_node@U?$pair@$$CBV?$basic_string@DU?$char_traits@D@std@@V?$allocator@D@2@@std@@V?$basic_json@Vmap@std@@Vvector@2@V?$basic_string@DU?$char_traits@D@std@@V?$allocator@D@2@@2@_N_J_KNVallocator@2@Uadl_serializer@nlohmann@@@nlohmann@@@std@@PAX@2@@Z 0040cf30 f i BuildTool.obj
 0001:0000bfc0       ?_Extract@?$_Tree_val@U?$_Tree_simple_types@U?$pair@$$CBV?$basic_string@DU?$char_traits@D@std@@V?$allocator@D@2@@std@@V?$basic_json@Vmap@std@@Vvector@2@V?$basic_string@DU?$char_traits@D@std@@V?$allocator@D@2@@2@_N_J_KNVallocator@2@Uadl_serializer@nlohmann@@@nlohmann@@@std@@@std@@@std@@QAEPAU?$_Tree_node@U?$pair@$$CBV?$basic_string@DU?$char_traits@D@std@@V?$allocator@D@2@@std@@V?$basic_json@Vmap@std@@Vvector@2@V?$basic_string@DU?$char_traits@D@std@@V?$allocator@D@2@@2@_N_J_KNVallocator@2@Uadl_serializer@nlohmann@@@nlohmann@@@std@@PAX@2@V?$_Tree_const_iterator@V?$_Tree_val@U?$_Tree_simple_types@U?$pair@$$CBV?$basic_string@DU?$char_traits@D@std@@V?$allocator@D@2@@std@@V?$basic_json@Vmap@std@@Vvector@2@V?$basic_string@DU?$char_traits@D@std@@V?$allocator@D@2@@2@_N_J_KNVallocator@2@Uadl_serializer@nlohmann@@@nlohmann@@@std@@@std@@@std@@@2@@Z 0040cfc0 f i BuildTool.obj
 0001:0000c510       ?_Free_proxy@?$_String_alloc@U?$_String_base_types@DV?$allocator@D@std@@@std@@@std@@QAEXXZ 0040d510 f i BuildTool.obj
 0001:0000c5c0       ?_Free_proxy@?$_Tree_comp_alloc@V?$_Tmap_traits@V?$basic_string@DU?$char_traits@D@std@@V?$allocator@D@2@@std@@V?$basic_json@Vmap@std@@Vvector@2@V?$basic_string@DU?$char_traits@D@std@@V?$allocator@D@2@@2@_N_J_KNVallocator@2@Uadl_serializer@nlohmann@@@nlohmann@@U?$less@V?$basic_string@DU?$char_traits@D@std@@V?$allocator@D@2@@std@@@2@V?$allocator@U?$pair@$$CBV?$basic_string@DU?$char_traits@D@std@@V?$allocator@D@2@@std@@V?$basic_json@Vmap@std@@Vvector@2@V?$basic_string@DU?$char_traits@D@std@@V?$allocator@D@2@@2@_N_J_KNVallocator@2@Uadl_serializer@nlohmann@@@nlohmann@@@std@@@2@$0A@@std@@@std@@QAEXXZ 0040d5c0 f i BuildTool.obj
 0001:0000c690       ?_Free_proxy@?$_Vector_alloc@U?$_Vec_base_types@V?$basic_json@Vmap@std@@Vvector@2@V?$basic_string@DU?$char_traits@D@std@@V?$allocator@D@2@@2@_N_J_KNVallocator@2@Uadl_serializer@nlohmann@@@nlohmann@@V?$allocator@V?$basic_json@Vmap@std@@Vvector@2@V?$basic_string@DU?$char_traits@D@std@@V?$allocator@D@2@@2@_N_J_KNVallocator@2@Uadl_serializer@nlohmann@@@nlohmann@@@std@@@std@@@std@@QAEXXZ 0040d690 f i BuildTool.obj
 0001:0000c740       ?_Freeheadnode@?$_Tree_comp_alloc@V?$_Tmap_traits@V?$basic_string@DU?$char_traits@D@std@@V?$allocator@D@2@@std@@V?$basic_json@Vmap@std@@Vvector@2@V?$basic_string@DU?$char_traits@D@std@@V?$allocator@D@2@@2@_N_J_KNVallocator@2@Uadl_serializer@nlohmann@@@nlohmann@@U?$less@V?$basic_string@DU?$char_traits@D@std@@V?$allocator@D@2@@std@@@2@V?$allocator@U?$pair@$$CBV?$basic_string@DU?$char_traits@D@std@@V?$allocator@D@2@@std@@V?$basic_json@Vmap@std@@Vvector@2@V?$basic_string@DU?$char_traits@D@std@@V?$allocator@D@2@@2@_N_J_KNVallocator@2@Uadl_serializer@nlohmann@@@nlohmann@@@std@@@2@$0A@@std@@@std@@QAEXPAU?$_Tree_node@U?$pair@$$CBV?$basic_string@DU?$char_traits@D@std@@V?$allocator@D@2@@std@@V?$basic_json@Vmap@std@@Vvector@2@V?$basic_string@DU?$char_traits@D@std@@V?$allocator@D@2@@2@_N_J_KNVallocator@2@Uadl_serializer@nlohmann@@@nlohmann@@@std@@PAX@2@@Z 0040d740 f i BuildTool.obj
 0001:0000c780       ?_Freenode0@?$_Tree_comp_alloc@V?$_Tmap_traits@V?$basic_string@DU?$char_traits@D@std@@V?$allocator@D@2@@std@@V?$basic_json@Vmap@std@@Vvector@2@V?$basic_string@DU?$char_traits@D@std@@V?$allocator@D@2@@2@_N_J_KNVallocator@2@Uadl_serializer@nlohmann@@@nlohmann@@U?$less@V?$basic_string@DU?$char_traits@D@std@@V?$allocator@D@2@@std@@@2@V?$allocator@U?$pair@$$CBV?$basic_string@DU?$char_traits@D@std@@V?$allocator@D@2@@std@@V?$basic_json@Vmap@std@@Vvector@2@V?$basic_string@DU?$char_traits@D@std@@V?$allocator@D@2@@2@_N_J_KNVallocator@2@Uadl_serializer@nlohmann@@@nlohmann@@@std@@@2@$0A@@std@@@std@@QAEXPAU?$_Tree_node@U?$pair@$$CBV?$basic_string@DU?$char_traits@D@std@@V?$allocator@D@2@@std@@V?$basic_json@Vmap@std@@Vvector@2@V?$basic_string@DU?$char_traits@D@std@@V?$allocator@D@2@@2@_N_J_KNVallocator@2@Uadl_serializer@nlohmann@@@nlohmann@@@std@@PAX@2@@Z 0040d780 f i BuildTool.obj
 0001:0000c7c0       ?_Get_deleter@_Ref_count_base@std@@UBEPAXABVtype_info@@@Z 0040d7c0 f i BuildTool.obj
 0001:0000c7d0       ?_Getfacet@locale@std@@QBEPBVfacet@12@I@Z 0040d7d0 f i BuildTool.obj
 0001:0000c860       ?_Init@?$basic_filebuf@DU?$char_traits@D@std@@@std@@IAEXPAU_iobuf@@W4_Initfl@12@@Z 0040d860 f i BuildTool.obj
 0001:0000c930       ?_Lock@?$basic_filebuf@DU?$char_traits@D@std@@@std@@UAEXXZ 0040d930 f i BuildTool.obj
 0001:0000c960       ?_Lrotate@?$_Tree_val@U?$_Tree_simple_types@U?$pair@$$CBV?$basic_string@DU?$char_traits@D@std@@V?$allocator@D@2@@std@@V?$basic_json@Vmap@std@@Vvector@2@V?$basic_string@DU?$char_traits@D@std@@V?$allocator@D@2@@2@_N_J_KNVallocator@2@Uadl_serializer@nlohmann@@@nlohmann@@@std@@@std@@@std@@QAEXPAU?$_Tree_node@U?$pair@$$CBV?$basic_string@DU?$char_traits@D@std@@V?$allocator@D@2@@std@@V?$basic_json@Vmap@std@@Vvector@2@V?$basic_string@DU?$char_traits@D@std@@V?$allocator@D@2@@2@_N_J_KNVallocator@2@Uadl_serializer@nlohmann@@@nlohmann@@@std@@PAX@2@@Z 0040d960 f i BuildTool.obj
 0001:0000ca00       ?_Maklocwcs@std@@YAPA_WPB_W@Z 0040da00 f i BuildTool.obj
 0001:0000ca90       ?_Orphan_all@_Container_base12@std@@QAEXXZ 0040da90 f i BuildTool.obj
 0001:0000cb20       ?_Orphan_me@_Iterator_base12@std@@QAEXXZ 0040db20 f i BuildTool.obj
 0001:0000cbe0       ?_Orphan_ptr@?$_Tree@V?$_Tmap_traits@V?$basic_string@DU?$char_traits@D@std@@V?$allocator@D@2@@std@@V?$basic_json@Vmap@std@@Vvector@2@V?$basic_string@DU?$char_traits@D@std@@V?$allocator@D@2@@2@_N_J_KNVallocator@2@Uadl_serializer@nlohmann@@@nlohmann@@U?$less@V?$basic_string@DU?$char_traits@D@std@@V?$allocator@D@2@@std@@@2@V?$allocator@U?$pair@$$CBV?$basic_string@DU?$char_traits@D@std@@V?$allocator@D@2@@std@@V?$basic_json@Vmap@std@@Vvector@2@V?$basic_string@DU?$char_traits@D@std@@V?$allocator@D@2@@2@_N_J_KNVallocator@2@Uadl_serializer@nlohmann@@@nlohmann@@@std@@@2@$0A@@std@@@std@@IAEXPAU?$_Tree_node@U?$pair@$$CBV?$basic_string@DU?$char_traits@D@std@@V?$allocator@D@2@@std@@V?$basic_json@Vmap@std@@Vvector@2@V?$basic_string@DU?$char_traits@D@std@@V?$allocator@D@2@@2@_N_J_KNVallocator@2@Uadl_serializer@nlohmann@@@nlohmann@@@std@@PAX@2@@Z 0040dbe0 f i BuildTool.obj
 0001:0000ccd0       ?_Reset_back@?$basic_filebuf@DU?$char_traits@D@std@@@std@@AAEXXZ 0040dcd0 f i BuildTool.obj
 0001:0000cd10       ?_Rrotate@?$_Tree_val@U?$_Tree_simple_types@U?$pair@$$CBV?$basic_string@DU?$char_traits@D@std@@V?$allocator@D@2@@std@@V?$basic_json@Vmap@std@@Vvector@2@V?$basic_string@DU?$char_traits@D@std@@V?$allocator@D@2@@2@_N_J_KNVallocator@2@Uadl_serializer@nlohmann@@@nlohmann@@@std@@@std@@@std@@QAEXPAU?$_Tree_node@U?$pair@$$CBV?$basic_string@DU?$char_traits@D@std@@V?$allocator@D@2@@std@@V?$basic_json@Vmap@std@@Vvector@2@V?$basic_string@DU?$char_traits@D@std@@V?$allocator@D@2@@2@_N_J_KNVallocator@2@Uadl_serializer@nlohmann@@@nlohmann@@@std@@PAX@2@@Z 0040dd10 f i BuildTool.obj
 0001:0000cdb0       ?_Set_back@?$basic_filebuf@DU?$char_traits@D@std@@@std@@AAEXXZ 0040ddb0 f i BuildTool.obj
 0001:0000ce10       ?_Swap_all@_Container_base12@std@@QAEXAAU12@@Z 0040de10 f i BuildTool.obj
 0001:0000cea0       ?_Tidy@?$_Tree@V?$_Tmap_traits@V?$basic_string@DU?$char_traits@D@std@@V?$allocator@D@2@@std@@V?$basic_json@Vmap@std@@Vvector@2@V?$basic_string@DU?$char_traits@D@std@@V?$allocator@D@2@@2@_N_J_KNVallocator@2@Uadl_serializer@nlohmann@@@nlohmann@@U?$less@V?$basic_string@DU?$char_traits@D@std@@V?$allocator@D@2@@std@@@2@V?$allocator@U?$pair@$$CBV?$basic_string@DU?$char_traits@D@std@@V?$allocator@D@2@@std@@V?$basic_json@Vmap@std@@Vvector@2@V?$basic_string@DU?$char_traits@D@std@@V?$allocator@D@2@@2@_N_J_KNVallocator@2@Uadl_serializer@nlohmann@@@nlohmann@@@std@@@2@$0A@@std@@@std@@IAEXXZ 0040dea0 f i BuildTool.obj
 0001:0000d040       ?_Tidy@?$vector@V?$basic_json@Vmap@std@@Vvector@2@V?$basic_string@DU?$char_traits@D@std@@V?$allocator@D@2@@2@_N_J_KNVallocator@2@Uadl_serializer@nlohmann@@@nlohmann@@V?$allocator@V?$basic_json@Vmap@std@@Vvector@2@V?$basic_string@DU?$char_traits@D@std@@V?$allocator@D@2@@2@_N_J_KNVallocator@2@Uadl_serializer@nlohmann@@@nlohmann@@@std@@@std@@AAEXXZ 0040e040 f i BuildTool.obj
 0001:0000d210       ?_Tidy_deallocate@?$basic_string@DU?$char_traits@D@std@@V?$allocator@D@2@@std@@QAEXXZ 0040e210 f i BuildTool.obj
 0001:0000d2f0       ?_Tidy_init@?$basic_string@DU?$char_traits@D@std@@V?$allocator@D@2@@std@@QAEXXZ 0040e2f0 f i BuildTool.obj
 0001:0000d340       ?_Unlock@?$basic_filebuf@DU?$char_traits@D@std@@@std@@UAEXXZ 0040e340 f i BuildTool.obj
 0001:0000d370       ?_Xlen@?$basic_string@DU?$char_traits@D@std@@V?$allocator@D@2@@std@@SAXXZ 0040e370 f i BuildTool.obj
 0001:0000d380       ?_Xran@?$_String_val@U?$_Simple_types@D@std@@@std@@SAXXZ 0040e380 f i BuildTool.obj
 0001:0000d390       ?__empty_global_delete@@YAXPAX@Z 0040e390 f i BuildTool.obj
 0001:0000d3a0       ?__global_delete@@YAXPAXI@Z 0040e3a0 f i BuildTool.obj
 0001:0000d3a0       ?__empty_global_delete@@YAXPAXI@Z 0040e3a0 f i BuildTool.obj
 0001:0000d3b0       ?allocate@?$_Default_allocator_traits@V?$allocator@V?$basic_string@DU?$char_traits@D@std@@V?$allocator@D@2@@std@@@std@@@std@@SAPAV?$basic_string@DU?$char_traits@D@std@@V?$allocator@D@2@@2@AAV?$allocator@V?$basic_string@DU?$char_traits@D@std@@V?$allocator@D@2@@std@@@2@I@Z 0040e3b0 f i BuildTool.obj
 0001:0000d420       ?allocate@?$_Default_allocator_traits@V?$allocator@V?$map@V?$basic_string@DU?$char_traits@D@std@@V?$allocator@D@2@@std@@V?$basic_json@Vmap@std@@Vvector@2@V?$basic_string@DU?$char_traits@D@std@@V?$allocator@D@2@@2@_N_J_KNVallocator@2@Uadl_serializer@nlohmann@@@nlohmann@@U?$less@V?$basic_string@DU?$char_traits@D@std@@V?$allocator@D@2@@std@@@2@V?$allocator@U?$pair@$$CBV?$basic_string@DU?$char_traits@D@std@@V?$allocator@D@2@@std@@V?$basic_json@Vmap@std@@Vvector@2@V?$basic_string@DU?$char_traits@D@std@@V?$allocator@D@2@@2@_N_J_KNVallocator@2@Uadl_serializer@nlohmann@@@nlohmann@@@std@@@2@@std@@@std@@@std@@SAPAV?$map@V?$basic_string@DU?$char_traits@D@std@@V?$allocator@D@2@@std@@V?$basic_json@Vmap@std@@Vvector@2@V?$basic_string@DU?$char_traits@D@std@@V?$allocator@D@2@@2@_N_J_KNVallocator@2@Uadl_serializer@nlohmann@@@nlohmann@@U?$less@V?$basic_string@DU?$char_traits@D@std@@V?$allocator@D@2@@std@@@2@V?$allocator@U?$pair@$$CBV?$basic_string@DU?$char_traits@D@std@@V?$allocator@D@2@@std@@V?$basic_json@Vmap@std@@Vvector@2@V?$basic_string@DU?$char_traits@D@std@@V?$allocator@D@2@@2@_N_J_KNVallocator@2@Uadl_serializer@nlohmann@@@nlohmann@@@std@@@2@@2@AAV?$allocator@V?$map@V?$basic_string@DU?$char_traits@D@std@@V?$allocator@D@2@@std@@V?$basic_json@Vmap@std@@Vvector@2@V?$basic_string@DU?$char_traits@D@std@@V?$allocator@D@2@@2@_N_J_KNVallocator@2@Uadl_serializer@nlohmann@@@nlohmann@@U?$less@V?$basic_string@DU?$char_traits@D@std@@V?$allocator@D@2@@std@@@2@V?$allocator@U?$pair@$$CBV?$basic_string@DU?$char_traits@D@std@@V?$allocator@D@2@@std@@V?$basic_json@Vmap@std@@Vvector@2@V?$basic_string@DU?$char_traits@D@std@@V?$allocator@D@2@@2@_N_J_KNVallocator@2@Uadl_serializer@nlohmann@@@nlohmann@@@std@@@2@@std@@@2@I@Z 0040e420 f i BuildTool.obj
 0001:0000d490       ?allocate@?$_Default_allocator_traits@V?$allocator@V?$vector@V?$basic_json@Vmap@std@@Vvector@2@V?$basic_string@DU?$char_traits@D@std@@V?$allocator@D@2@@2@_N_J_KNVallocator@2@Uadl_serializer@nlohmann@@@nlohmann@@V?$allocator@V?$basic_json@Vmap@std@@Vvector@2@V?$basic_string@DU?$char_traits@D@std@@V?$allocator@D@2@@2@_N_J_KNVallocator@2@Uadl_serializer@nlohmann@@@nlohmann@@@std@@@std@@@std@@@std@@SAPAV?$vector@V?$basic_json@Vmap@std@@Vvector@2@V?$basic_string@DU?$char_traits@D@std@@V?$allocator@D@2@@2@_N_J_KNVallocator@2@Uadl_serializer@nlohmann@@@nlohmann@@V?$allocator@V?$basic_json@Vmap@std@@Vvector@2@V?$basic_string@DU?$char_traits@D@std@@V?$allocator@D@2@@2@_N_J_KNVallocator@2@Uadl_serializer@nlohmann@@@nlohmann@@@std@@@2@AAV?$allocator@V?$vector@V?$basic_json@Vmap@std@@Vvector@2@V?$basic_string@DU?$char_traits@D@std@@V?$allocator@D@2@@2@_N_J_KNVallocator@2@Uadl_serializer@nlohmann@@@nlohmann@@V?$allocator@V?$basic_json@Vmap@std@@Vvector@2@V?$basic_string@DU?$char_traits@D@std@@V?$allocator@D@2@@2@_N_J_KNVallocator@2@Uadl_serializer@nlohmann@@@nlohmann@@@std@@@std@@@2@I@Z 0040e490 f i BuildTool.obj
 0001:0000d500       ?allocate@?$allocator@U?$_Tree_node@U?$pair@$$CBV?$basic_string@DU?$char_traits@D@std@@V?$allocator@D@2@@std@@V?$basic_json@Vmap@std@@Vvector@2@V?$basic_string@DU?$char_traits@D@std@@V?$allocator@D@2@@2@_N_J_KNVallocator@2@Uadl_serializer@nlohmann@@@nlohmann@@@std@@PAX@std@@@std@@QAEPAU?$_Tree_node@U?$pair@$$CBV?$basic_string@DU?$char_traits@D@std@@V?$allocator@D@2@@std@@V?$basic_json@Vmap@std@@Vvector@2@V?$basic_string@DU?$char_traits@D@std@@V?$allocator@D@2@@2@_N_J_KNVallocator@2@Uadl_serializer@nlohmann@@@nlohmann@@@std@@PAX@2@I@Z 0040e500 f i BuildTool.obj
 0001:0000d570       ?allocate@?$allocator@U_Container_proxy@std@@@std@@QAEPAU_Container_proxy@2@I@Z 0040e570 f i BuildTool.obj
 0001:0000d5e0       ?append@?$basic_string@DU?$char_traits@D@std@@V?$allocator@D@2@@std@@QAEAAV12@ABV12@@Z 0040e5e0 f i BuildTool.obj
 0001:0000d650       ?append@?$basic_string@DU?$char_traits@D@std@@V?$allocator@D@2@@std@@QAEAAV12@ID@Z 0040e650 f i BuildTool.obj
 0001:0000d720       ?append@?$basic_string@DU?$char_traits@D@std@@V?$allocator@D@2@@std@@QAEAAV12@QBDI@Z 0040e720 f i BuildTool.obj
 0001:0000d7f0       ?append@?$basic_string@DVallocator@eastl@@@eastl@@QAEAAV12@ABV12@@Z 0040e7f0 f i BuildTool.obj
 0001:0000d830       ?append@?$basic_string@DVallocator@eastl@@@eastl@@QAEAAV12@PBD0@Z 0040e830 f i BuildTool.obj
 0001:0000da40       ?append_exponent@dtoa_impl@detail@nlohmann@@YAPADPADH@Z 0040ea40 f i BuildTool.obj
 0001:0000dbb0       ?assert_invariant@?$basic_json@Vmap@std@@Vvector@2@V?$basic_string@DU?$char_traits@D@std@@V?$allocator@D@2@@2@_N_J_KNVallocator@2@Uadl_serializer@nlohmann@@@nlohmann@@ABEXXZ 0040ebb0 f i BuildTool.obj
 0001:0000dc40       ?assign@?$basic_string@DU?$char_traits@D@std@@V?$allocator@D@2@@std@@QAEAAV12@ID@Z 0040ec40 f i BuildTool.obj
 0001:0000dcf0       ?assign@?$basic_string@DU?$char_traits@D@std@@V?$allocator@D@2@@std@@QAEAAV12@QBDI@Z 0040ecf0 f i BuildTool.obj
 0001:0000dda0       ?assign@?$basic_string@DVallocator@eastl@@@eastl@@QAEAAV12@$$QAV12@@Z 0040eda0 f i BuildTool.obj
 0001:0000de20       ?assign@?$basic_string@DVallocator@eastl@@@eastl@@QAEAAV12@PBD0@Z 0040ee20 f i BuildTool.obj
 0001:0000dee0       ?back@?$basic_string@DU?$char_traits@D@std@@V?$allocator@D@2@@std@@QBEABDXZ 0040eee0 f i BuildTool.obj
 0001:0000dfc0       ?back@?$vector@V?$basic_json@Vmap@std@@Vvector@2@V?$basic_string@DU?$char_traits@D@std@@V?$allocator@D@2@@2@_N_J_KNVallocator@2@Uadl_serializer@nlohmann@@@nlohmann@@V?$allocator@V?$basic_json@Vmap@std@@Vvector@2@V?$basic_string@DU?$char_traits@D@std@@V?$allocator@D@2@@2@_N_J_KNVallocator@2@Uadl_serializer@nlohmann@@@nlohmann@@@std@@@std@@QAEAAV?$basic_json@Vmap@std@@Vvector@2@V?$basic_string@DU?$char_traits@D@std@@V?$allocator@D@2@@2@_N_J_KNVallocator@2@Uadl_serializer@nlohmann@@@nlohmann@@XZ 0040efc0 f i BuildTool.obj
 0001:0000e040       ?begin@?$_Tree@V?$_Tmap_traits@V?$basic_string@DU?$char_traits@D@std@@V?$allocator@D@2@@std@@V?$basic_json@Vmap@std@@Vvector@2@V?$basic_string@DU?$char_traits@D@std@@V?$allocator@D@2@@2@_N_J_KNVallocator@2@Uadl_serializer@nlohmann@@@nlohmann@@U?$less@V?$basic_string@DU?$char_traits@D@std@@V?$allocator@D@2@@std@@@2@V?$allocator@U?$pair@$$CBV?$basic_string@DU?$char_traits@D@std@@V?$allocator@D@2@@std@@V?$basic_json@Vmap@std@@Vvector@2@V?$basic_string@DU?$char_traits@D@std@@V?$allocator@D@2@@2@_N_J_KNVallocator@2@Uadl_serializer@nlohmann@@@nlohmann@@@std@@@2@$0A@@std@@@std@@QAE?AV?$_Tree_iterator@V?$_Tree_val@U?$_Tree_simple_types@U?$pair@$$CBV?$basic_string@DU?$char_traits@D@std@@V?$allocator@D@2@@std@@V?$basic_json@Vmap@std@@Vvector@2@V?$basic_string@DU?$char_traits@D@std@@V?$allocator@D@2@@2@_N_J_KNVallocator@2@Uadl_serializer@nlohmann@@@nlohmann@@@std@@@std@@@std@@@2@XZ 0040f040 f i BuildTool.obj
 0001:0000e0a0       ?begin@?$_Tree@V?$_Tmap_traits@V?$basic_string@DU?$char_traits@D@std@@V?$allocator@D@2@@std@@V?$basic_json@Vmap@std@@Vvector@2@V?$basic_string@DU?$char_traits@D@std@@V?$allocator@D@2@@2@_N_J_KNVallocator@2@Uadl_serializer@nlohmann@@@nlohmann@@U?$less@V?$basic_string@DU?$char_traits@D@std@@V?$allocator@D@2@@std@@@2@V?$allocator@U?$pair@$$CBV?$basic_string@DU?$char_traits@D@std@@V?$allocator@D@2@@std@@V?$basic_json@Vmap@std@@Vvector@2@V?$basic_string@DU?$char_traits@D@std@@V?$allocator@D@2@@2@_N_J_KNVallocator@2@Uadl_serializer@nlohmann@@@nlohmann@@@std@@@2@$0A@@std@@@std@@QBE?AV?$_Tree_const_iterator@V?$_Tree_val@U?$_Tree_simple_types@U?$pair@$$CBV?$basic_string@DU?$char_traits@D@std@@V?$allocator@D@2@@std@@V?$basic_json@Vmap@std@@Vvector@2@V?$basic_string@DU?$char_traits@D@std@@V?$allocator@D@2@@2@_N_J_KNVallocator@2@Uadl_serializer@nlohmann@@@nlohmann@@@std@@@std@@@std@@@2@XZ 0040f0a0 f i BuildTool.obj
 0001:0000e100       ?begin@?$basic_string@DU?$char_traits@D@std@@V?$allocator@D@2@@std@@QAE?AV?$_String_iterator@V?$_String_val@U?$_Simple_types@D@std@@@std@@@2@XZ 0040f100 f i BuildTool.obj
 0001:0000e180       ?begin@?$vector@V?$basic_json@Vmap@std@@Vvector@2@V?$basic_string@DU?$char_traits@D@std@@V?$allocator@D@2@@2@_N_J_KNVallocator@2@Uadl_serializer@nlohmann@@@nlohmann@@V?$allocator@V?$basic_json@Vmap@std@@Vvector@2@V?$basic_string@DU?$char_traits@D@std@@V?$allocator@D@2@@2@_N_J_KNVallocator@2@Uadl_serializer@nlohmann@@@nlohmann@@@std@@@std@@QBE?AV?$_Vector_const_iterator@V?$_Vector_val@U?$_Simple_types@V?$basic_json@Vmap@std@@Vvector@2@V?$basic_string@DU?$char_traits@D@std@@V?$allocator@D@2@@2@_N_J_KNVallocator@2@Uadl_serializer@nlohmann@@@nlohmann@@@std@@@std@@@2@XZ 0040f180 f i BuildTool.obj
 0001:0000e1f0       ?capacity@?$basic_string@DVallocator@eastl@@@eastl@@QBEIXZ 0040f1f0 f i BuildTool.obj
 0001:0000e250       ?clear@?$_Tree@V?$_Tmap_traits@V?$basic_string@DU?$char_traits@D@std@@V?$allocator@D@2@@std@@V?$basic_json@Vmap@std@@Vvector@2@V?$basic_string@DU?$char_traits@D@std@@V?$allocator@D@2@@2@_N_J_KNVallocator@2@Uadl_serializer@nlohmann@@@nlohmann@@U?$less@V?$basic_string@DU?$char_traits@D@std@@V?$allocator@D@2@@std@@@2@V?$allocator@U?$pair@$$CBV?$basic_string@DU?$char_traits@D@std@@V?$allocator@D@2@@std@@V?$basic_json@Vmap@std@@Vvector@2@V?$basic_string@DU?$char_traits@D@std@@V?$allocator@D@2@@2@_N_J_KNVallocator@2@Uadl_serializer@nlohmann@@@nlohmann@@@std@@@2@$0A@@std@@@std@@QAEXXZ 0040f250 f i BuildTool.obj
 0001:0000e2f0       ?close@?$basic_filebuf@DU?$char_traits@D@std@@@std@@QAEPAV12@XZ 0040f2f0 f i BuildTool.obj
 0001:0000e360       ?compare@?$basic_string@DU?$char_traits@D@std@@V?$allocator@D@2@@std@@QBEHABV12@@Z 0040f360 f i BuildTool.obj
 0001:0000e480       ?create@other_error@detail@nlohmann@@SA?AV123@HABV?$basic_string@DU?$char_traits@D@std@@V?$allocator@D@2@@std@@@Z 0040f480 f i BuildTool.obj
 0001:0000e630       ?create@type_error@detail@nlohmann@@SA?AV123@HABV?$basic_string@DU?$char_traits@D@std@@V?$allocator@D@2@@std@@@Z 0040f630 f i BuildTool.obj
 0001:0000e7e0       ?deallocate@?$allocator@U?$_Tree_node@U?$pair@$$CBV?$basic_string@DU?$char_traits@D@std@@V?$allocator@D@2@@std@@V?$basic_json@Vmap@std@@Vvector@2@V?$basic_string@DU?$char_traits@D@std@@V?$allocator@D@2@@2@_N_J_KNVallocator@2@Uadl_serializer@nlohmann@@@nlohmann@@@std@@PAX@std@@@std@@QAEXQAU?$_Tree_node@U?$pair@$$CBV?$basic_string@DU?$char_traits@D@std@@V?$allocator@D@2@@std@@V?$basic_json@Vmap@std@@Vvector@2@V?$basic_string@DU?$char_traits@D@std@@V?$allocator@D@2@@2@_N_J_KNVallocator@2@Uadl_serializer@nlohmann@@@nlohmann@@@std@@PAX@2@I@Z 0040f7e0 f i BuildTool.obj
 0001:0000e830       ?decode@?$serializer@V?$basic_json@Vmap@std@@Vvector@2@V?$basic_string@DU?$char_traits@D@std@@V?$allocator@D@2@@2@_N_J_KNVallocator@2@Uadl_serializer@nlohmann@@@nlohmann@@@detail@nlohmann@@CAEAAEAAIE@Z 0040f830 f i BuildTool.obj
 0001:0000e8c0       ?destroy@json_value@?$basic_json@Vmap@std@@Vvector@2@V?$basic_string@DU?$char_traits@D@std@@V?$allocator@D@2@@2@_N_J_KNVallocator@2@Uadl_serializer@nlohmann@@@nlohmann@@QAEXW4value_t@detail@3@@Z 0040f8c0 f i BuildTool.obj
 0001:0000eab0       ?dump@?$serializer@V?$basic_json@Vmap@std@@Vvector@2@V?$basic_string@DU?$char_traits@D@std@@V?$allocator@D@2@@2@_N_J_KNVallocator@2@Uadl_serializer@nlohmann@@@nlohmann@@@detail@nlohmann@@QAEXABV?$basic_json@Vmap@std@@Vvector@2@V?$basic_string@DU?$char_traits@D@std@@V?$allocator@D@2@@2@_N_J_KNVallocator@2@Uadl_serializer@nlohmann@@@3@_N1II@Z 0040fab0 f i BuildTool.obj
 0001:000105c0       ?dump_escaped@?$serializer@V?$basic_json@Vmap@std@@Vvector@2@V?$basic_string@DU?$char_traits@D@std@@V?$allocator@D@2@@2@_N_J_KNVallocator@2@Uadl_serializer@nlohmann@@@nlohmann@@@detail@nlohmann@@AAEXABV?$basic_string@DU?$char_traits@D@std@@V?$allocator@D@2@@std@@_N@Z 004115c0 f i BuildTool.obj
 0001:00010f50       ?dump_float@?$serializer@V?$basic_json@Vmap@std@@Vvector@2@V?$basic_string@DU?$char_traits@D@std@@V?$allocator@D@2@@2@_N_J_KNVallocator@2@Uadl_serializer@nlohmann@@@nlohmann@@@detail@nlohmann@@AAEXN@Z 00411f50 f i BuildTool.obj
 0001:00010fe0       ?dump_float@?$serializer@V?$basic_json@Vmap@std@@Vvector@2@V?$basic_string@DU?$char_traits@D@std@@V?$allocator@D@2@@2@_N_J_KNVallocator@2@Uadl_serializer@nlohmann@@@nlohmann@@@detail@nlohmann@@AAEXNU?$integral_constant@_N$00@std@@@Z 00411fe0 f i BuildTool.obj
 0001:00011050       ?empty@?$vector@V?$basic_json@Vmap@std@@Vvector@2@V?$basic_string@DU?$char_traits@D@std@@V?$allocator@D@2@@2@_N_J_KNVallocator@2@Uadl_serializer@nlohmann@@@nlohmann@@V?$allocator@V?$basic_json@Vmap@std@@Vvector@2@V?$basic_string@DU?$char_traits@D@std@@V?$allocator@D@2@@2@_N_J_KNVallocator@2@Uadl_serializer@nlohmann@@@nlohmann@@@std@@@std@@QBE_NXZ 00412050 f i BuildTool.obj
 0001:000110b0       ?end@?$_Tree@V?$_Tmap_traits@V?$basic_string@DU?$char_traits@D@std@@V?$allocator@D@2@@std@@V?$basic_json@Vmap@std@@Vvector@2@V?$basic_string@DU?$char_traits@D@std@@V?$allocator@D@2@@2@_N_J_KNVallocator@2@Uadl_serializer@nlohmann@@@nlohmann@@U?$less@V?$basic_string@DU?$char_traits@D@std@@V?$allocator@D@2@@std@@@2@V?$allocator@U?$pair@$$CBV?$basic_string@DU?$char_traits@D@std@@V?$allocator@D@2@@std@@V?$basic_json@Vmap@std@@Vvector@2@V?$basic_string@DU?$char_traits@D@std@@V?$allocator@D@2@@2@_N_J_KNVallocator@2@Uadl_serializer@nlohmann@@@nlohmann@@@std@@@2@$0A@@std@@@std@@QAE?AV?$_Tree_iterator@V?$_Tree_val@U?$_Tree_simple_types@U?$pair@$$CBV?$basic_string@DU?$char_traits@D@std@@V?$allocator@D@2@@std@@V?$basic_json@Vmap@std@@Vvector@2@V?$basic_string@DU?$char_traits@D@std@@V?$allocator@D@2@@2@_N_J_KNVallocator@2@Uadl_serializer@nlohmann@@@nlohmann@@@std@@@std@@@std@@@2@XZ 004120b0 f i BuildTool.obj
 0001:00011110       ?end@?$_Tree@V?$_Tmap_traits@V?$basic_string@DU?$char_traits@D@std@@V?$allocator@D@2@@std@@V?$basic_json@Vmap@std@@Vvector@2@V?$basic_string@DU?$char_traits@D@std@@V?$allocator@D@2@@2@_N_J_KNVallocator@2@Uadl_serializer@nlohmann@@@nlohmann@@U?$less@V?$basic_string@DU?$char_traits@D@std@@V?$allocator@D@2@@std@@@2@V?$allocator@U?$pair@$$CBV?$basic_string@DU?$char_traits@D@std@@V?$allocator@D@2@@std@@V?$basic_json@Vmap@std@@Vvector@2@V?$basic_string@DU?$char_traits@D@std@@V?$allocator@D@2@@2@_N_J_KNVallocator@2@Uadl_serializer@nlohmann@@@nlohmann@@@std@@@2@$0A@@std@@@std@@QBE?AV?$_Tree_const_iterator@V?$_Tree_val@U?$_Tree_simple_types@U?$pair@$$CBV?$basic_string@DU?$char_traits@D@std@@V?$allocator@D@2@@std@@V?$basic_json@Vmap@std@@Vvector@2@V?$basic_string@DU?$char_traits@D@std@@V?$allocator@D@2@@2@_N_J_KNVallocator@2@Uadl_serializer@nlohmann@@@nlohmann@@@std@@@std@@@std@@@2@XZ 00412110 f i BuildTool.obj
 0001:00011170       ?end@?$basic_string@DU?$char_traits@D@std@@V?$allocator@D@2@@std@@QBE?AV?$_String_const_iterator@V?$_String_val@U?$_Simple_types@D@std@@@std@@@2@XZ 00412170 f i BuildTool.obj
 0001:00011200       ?end@?$vector@V?$basic_json@Vmap@std@@Vvector@2@V?$basic_string@DU?$char_traits@D@std@@V?$allocator@D@2@@2@_N_J_KNVallocator@2@Uadl_serializer@nlohmann@@@nlohmann@@V?$allocator@V?$basic_json@Vmap@std@@Vvector@2@V?$basic_string@DU?$char_traits@D@std@@V?$allocator@D@2@@2@_N_J_KNVallocator@2@Uadl_serializer@nlohmann@@@nlohmann@@@std@@@std@@QBE?AV?$_Vector_const_iterator@V?$_Vector_val@U?$_Simple_types@V?$basic_json@Vmap@std@@Vvector@2@V?$basic_string@DU?$char_traits@D@std@@V?$allocator@D@2@@2@_N_J_KNVallocator@2@Uadl_serializer@nlohmann@@@nlohmann@@@std@@@std@@@2@XZ 00412200 f i BuildTool.obj
 0001:00011270       ?erase@?$_Tree@V?$_Tmap_traits@V?$basic_string@DU?$char_traits@D@std@@V?$allocator@D@2@@std@@V?$basic_json@Vmap@std@@Vvector@2@V?$basic_string@DU?$char_traits@D@std@@V?$allocator@D@2@@2@_N_J_KNVallocator@2@Uadl_serializer@nlohmann@@@nlohmann@@U?$less@V?$basic_string@DU?$char_traits@D@std@@V?$allocator@D@2@@std@@@2@V?$allocator@U?$pair@$$CBV?$basic_string@DU?$char_traits@D@std@@V?$allocator@D@2@@std@@V?$basic_json@Vmap@std@@Vvector@2@V?$basic_string@DU?$char_traits@D@std@@V?$allocator@D@2@@2@_N_J_KNVallocator@2@Uadl_serializer@nlohmann@@@nlohmann@@@std@@@2@$0A@@std@@@std@@QAE?AV?$_Tree_iterator@V?$_Tree_val@U?$_Tree_simple_types@U?$pair@$$CBV?$basic_string@DU?$char_traits@D@std@@V?$allocator@D@2@@std@@V?$basic_json@Vmap@std@@Vvector@2@V?$basic_string@DU?$char_traits@D@std@@V?$allocator@D@2@@2@_N_J_KNVallocator@2@Uadl_serializer@nlohmann@@@nlohmann@@@std@@@std@@@std@@@2@V?$_Tree_const_iterator@V?$_Tree_val@U?$_Tree_simple_types@U?$pair@$$CBV?$basic_string@DU?$char_traits@D@std@@V?$allocator@D@2@@std@@V?$basic_json@Vmap@std@@Vvector@2@V?$basic_string@DU?$char_traits@D@std@@V?$allocator@D@2@@2@_N_J_KNVallocator@2@Uadl_serializer@nlohmann@@@nlohmann@@@std@@@std@@@std@@@2@0@Z 00412270 f i BuildTool.obj
 0001:000115e0       ?erase@?$_Tree@V?$_Tmap_traits@V?$basic_string@DU?$char_traits@D@std@@V?$allocator@D@2@@std@@V?$basic_json@Vmap@std@@Vvector@2@V?$basic_string@DU?$char_traits@D@std@@V?$allocator@D@2@@2@_N_J_KNVallocator@2@Uadl_serializer@nlohmann@@@nlohmann@@U?$less@V?$basic_string@DU?$char_traits@D@std@@V?$allocator@D@2@@std@@@2@V?$allocator@U?$pair@$$CBV?$basic_string@DU?$char_traits@D@std@@V?$allocator@D@2@@std@@V?$basic_json@Vmap@std@@Vvector@2@V?$basic_string@DU?$char_traits@D@std@@V?$allocator@D@2@@2@_N_J_KNVallocator@2@Uadl_serializer@nlohmann@@@nlohmann@@@std@@@2@$0A@@std@@@std@@QAE?AV?$_Tree_iterator@V?$_Tree_val@U?$_Tree_simple_types@U?$pair@$$CBV?$basic_string@DU?$char_traits@D@std@@V?$allocator@D@2@@std@@V?$basic_json@Vmap@std@@Vvector@2@V?$basic_string@DU?$char_traits@D@std@@V?$allocator@D@2@@2@_N_J_KNVallocator@2@Uadl_serializer@nlohmann@@@nlohmann@@@std@@@std@@@std@@@2@V?$_Tree_const_iterator@V?$_Tree_val@U?$_Tree_simple_types@U?$pair@$$CBV?$basic_string@DU?$char_traits@D@std@@V?$allocator@D@2@@std@@V?$basic_json@Vmap@std@@Vvector@2@V?$basic_string@DU?$char_traits@D@std@@V?$allocator@D@2@@2@_N_J_KNVallocator@2@Uadl_serializer@nlohmann@@@nlohmann@@@std@@@std@@@std@@@2@@Z 004125e0 f i BuildTool.obj
 0001:00011800       ?erase@?$basic_string@DU?$char_traits@D@std@@V?$allocator@D@2@@std@@QAEAAV12@II@Z 00412800 f i BuildTool.obj
 0001:000118f0       ?erase@?$basic_string@DVallocator@eastl@@@eastl@@QAEPADPBD0@Z 004128f0 f i BuildTool.obj
 0001:00011a10       ?find@?$basic_string@DVallocator@eastl@@@eastl@@QBEIABV12@I@Z 00412a10 f i BuildTool.obj
 0001:00011a80       ?find@?$basic_string@DVallocator@eastl@@@eastl@@QBEIPBDII@Z 00412a80 f i BuildTool.obj
 0001:00011b20       ?format_buffer@dtoa_impl@detail@nlohmann@@YAPADPADHHHH@Z 00412b20 f i BuildTool.obj
 0001:00011d10       ?get_cached_power_for_binary_exponent@dtoa_impl@detail@nlohmann@@YA?AUcached_power@123@H@Z 00412d10 f i BuildTool.obj
 0001:00011ea0       ?grisu2@dtoa_impl@detail@nlohmann@@YAXPADAAH1Udiyfp@123@22@Z 00412ea0 f i BuildTool.obj
 0001:00012070       ?grisu2_digit_gen@dtoa_impl@detail@nlohmann@@YAXPADAAH1Udiyfp@123@22@Z 00413070 f i BuildTool.obj
 0001:00012530       ?grisu2_round@dtoa_impl@detail@nlohmann@@YAXPADH_K111@Z 00413530 f i BuildTool.obj
 0001:000126d0       ?imbue@?$basic_filebuf@DU?$char_traits@D@std@@@std@@MAEXABVlocale@2@@Z 004136d0 f i BuildTool.obj
 0001:00012730       ?insert@?$basic_string@DU?$char_traits@D@std@@V?$allocator@D@2@@std@@QAEAAV12@IABV12@@Z 00413730 f i BuildTool.obj
 0001:000127a0       ?insert@?$basic_string@DU?$char_traits@D@std@@V?$allocator@D@2@@std@@QAEAAV12@IQBDI@Z 004137a0 f i BuildTool.obj
 0001:000128f0       ?insert@?$basic_string@DVallocator@eastl@@@eastl@@QAEPADPBD00@Z 004138f0 f i BuildTool.obj
 0001:00013060       ?lower_bound@?$_Tree@V?$_Tmap_traits@V?$basic_string@DU?$char_traits@D@std@@V?$allocator@D@2@@std@@V?$basic_json@Vmap@std@@Vvector@2@V?$basic_string@DU?$char_traits@D@std@@V?$allocator@D@2@@2@_N_J_KNVallocator@2@Uadl_serializer@nlohmann@@@nlohmann@@U?$less@V?$basic_string@DU?$char_traits@D@std@@V?$allocator@D@2@@std@@@2@V?$allocator@U?$pair@$$CBV?$basic_string@DU?$char_traits@D@std@@V?$allocator@D@2@@std@@V?$basic_json@Vmap@std@@Vvector@2@V?$basic_string@DU?$char_traits@D@std@@V?$allocator@D@2@@2@_N_J_KNVallocator@2@Uadl_serializer@nlohmann@@@nlohmann@@@std@@@2@$0A@@std@@@std@@QAE?AV?$_Tree_iterator@V?$_Tree_val@U?$_Tree_simple_types@U?$pair@$$CBV?$basic_string@DU?$char_traits@D@std@@V?$allocator@D@2@@std@@V?$basic_json@Vmap@std@@Vvector@2@V?$basic_string@DU?$char_traits@D@std@@V?$allocator@D@2@@2@_N_J_KNVallocator@2@Uadl_serializer@nlohmann@@@nlohmann@@@std@@@std@@@std@@@2@ABV?$basic_string@DU?$char_traits@D@std@@V?$allocator@D@2@@2@@Z 00414060 f i BuildTool.obj
 0001:000130e0       ?max_size@?$basic_string@DU?$char_traits@D@std@@V?$allocator@D@2@@std@@QBEIXZ 004140e0 f i BuildTool.obj
 0001:00013170       ?mul@diyfp@dtoa_impl@detail@nlohmann@@SA?AU1234@ABU1234@0@Z 00414170 f i BuildTool.obj
 0001:00013310       ?name@exception@detail@nlohmann@@KA?AV?$basic_string@DU?$char_traits@D@std@@V?$allocator@D@2@@std@@ABV45@H@Z 00414310 f i BuildTool.obj
 0001:000135b0       ?normalize_to@diyfp@dtoa_impl@detail@nlohmann@@SA?AU1234@ABU1234@H@Z 004145b0 f i BuildTool.obj
 0001:00013670       ?open@?$basic_filebuf@DU?$char_traits@D@std@@@std@@QAEPAV12@PBDHH@Z 00414670 f i BuildTool.obj
 0001:00013760       ?overflow@?$basic_filebuf@DU?$char_traits@D@std@@@std@@MAEHH@Z 00414760 f i BuildTool.obj
 0001:00013dd0       ?pbackfail@?$basic_filebuf@DU?$char_traits@D@std@@@std@@MAEHH@Z 00414dd0 f i BuildTool.obj
 0001:00013fb0       ?replace@?$basic_string@DVallocator@eastl@@@eastl@@QAEAAV12@IIABV12@@Z 00414fb0 f i BuildTool.obj
 0001:00014040       ?replace@?$basic_string@DVallocator@eastl@@@eastl@@QAEAAV12@IIPBD@Z 00415040 f i BuildTool.obj
 0001:000140f0       ?replace@?$basic_string@DVallocator@eastl@@@eastl@@QAEAAV12@PBD000@Z 004150f0 f i BuildTool.obj
 0001:000143b0       ?reserve@?$basic_string@DU?$char_traits@D@std@@V?$allocator@D@2@@std@@QAEXI@Z 004153b0 f i BuildTool.obj
 0001:00014450       ?seekoff@?$basic_filebuf@DU?$char_traits@D@std@@@std@@MAE?AV?$fpos@U_Mbstatet@@@2@_JHH@Z 00415450 f i BuildTool.obj
 0001:00014590       ?seekpos@?$basic_filebuf@DU?$char_traits@D@std@@@std@@MAE?AV?$fpos@U_Mbstatet@@@2@V32@H@Z 00415590 f i BuildTool.obj
 0001:00014700       ?setbuf@?$basic_filebuf@DU?$char_traits@D@std@@@std@@MAEPAV?$basic_streambuf@DU?$char_traits@D@std@@@2@PAD_J@Z 00415700 f i BuildTool.obj
 0001:00014770       ?size@?$basic_string@DU?$char_traits@D@std@@V?$allocator@D@2@@std@@QBEIXZ 00415770 f i BuildTool.obj
 0001:00014790       ?sub@diyfp@dtoa_impl@detail@nlohmann@@SA?AU1234@ABU1234@0@Z 00415790 f i BuildTool.obj
 0001:00014840       ?sync@?$basic_filebuf@DU?$char_traits@D@std@@@std@@MAEHXZ 00415840 f i BuildTool.obj
 0001:000148d0       ?to_string@std@@YA?AV?$basic_string@DU?$char_traits@D@std@@V?$allocator@D@2@@1@I@Z 004158d0 f i BuildTool.obj
 0001:00014900       ?type_name@?$basic_json@Vmap@std@@Vvector@2@V?$basic_string@DU?$char_traits@D@std@@V?$allocator@D@2@@2@_N_J_KNVallocator@2@Uadl_serializer@nlohmann@@@nlohmann@@QBEPBDXZ 00415900 f i BuildTool.obj
 0001:00014980       ?uflow@?$basic_filebuf@DU?$char_traits@D@std@@@std@@MAEHXZ 00415980 f i BuildTool.obj
 0001:00014f00       ?underflow@?$basic_filebuf@DU?$char_traits@D@std@@@std@@MAEHXZ 00415f00 f i BuildTool.obj
 0001:00014fb0       ?what@exception@detail@nlohmann@@UBEPBDXZ 00415fb0 f i BuildTool.obj
 0001:00015000       ?what@exception@std@@UBEPBDXZ 00416000 f i BuildTool.obj
 0001:00015030       ?write_character@?$output_stream_adapter@D@detail@nlohmann@@UAEXD@Z 00416030 f i BuildTool.obj
 0001:00015050       ?write_characters@?$output_stream_adapter@D@detail@nlohmann@@UAEXPBDI@Z 00416050 f i BuildTool.obj
 0001:00015080       ___local_stdio_printf_options 00416080 f i BuildTool.obj
 0001:00015090       _fprintf                   00416090 f i BuildTool.obj
 0001:000150e0       _snprintf                  004160e0 f i BuildTool.obj
 0001:00015150       ??0Window@Skel@@QAE@HHPBD@Z 00416150 f   Window.obj
 0001:00015570       ??1Window@Skel@@QAE@XZ     00416570 f   Window.obj
 0001:000155d0       ?Update@Window@Skel@@QAEXXZ 004165d0 f   Window.obj
 0001:000157f0       ?IsClosed@Window@Skel@@QAEHXZ 004167f0 f   Window.obj
 0001:00015810       ?Close@Window@Skel@@QAEXXZ 00416810 f   Window.obj
 0001:00015830       ?setMousePosition@Window@Skel@@QAEXNN@Z 00416830 f   Window.obj
 0001:00015910       ?mouse_wheel_callback@Skel@@YAXPAUGLFWwindow@@NN@Z 00416910 f   Window.obj
 0001:00015940       ?mouse_button_callback@Skel@@YAXPAUGLFWwindow@@HHH@Z 00416940 f   Window.obj
 0001:00015950       ?LogLevelToString@Log@Skel@@SA?AV?$basic_string@DVallocator@eastl@@@eastl@@W4LogLevel@2@@Z 00416950 f i Window.obj
 0001:00015a80       ?LogModuleToString@Log@Skel@@SA?AV?$basic_string@DVallocator@eastl@@@eastl@@W4LogModule@2@@Z 00416a80 f i Window.obj
 0001:00015bb0       ?PlatformLog@Log@Skel@@SAXW4LogLevel@2@W4LogModule@2@V?$basic_string@DVallocator@eastl@@@eastl@@@Z 00416bb0 f i Window.obj
 0001:00015f00       ?PlatformLogP@Log@Skel@@SAXW4LogLevel@2@W4LogModule@2@V?$basic_string@DVallocator@eastl@@@eastl@@@Z 00416f00 f i Window.obj
 0001:00016250       ?PrintLogLevelColor@Log@Skel@@SAXW4LogLevel@2@@Z 00417250 f i Window.obj
 0001:000162b0       ?PrintToLogFile@FileSystem@Skel@@SAXV?$basic_string@DVallocator@eastl@@@eastl@@@Z 004172b0 f i Window.obj
 0001:00016340       _sprintf                   00417340 f i Window.obj
 0001:000163b0       ??0Mesh@Skel@@QAE@V?$vector@UVertices@Skel@@Vallocator@eastl@@@eastl@@V?$vector@IVallocator@eastl@@@3@V?$vector@UTextureMesh@Skel@@Vallocator@eastl@@@3@@Z 004173b0 f   Mesh.obj
 0001:000165a0       ??1Mesh@Skel@@QAE@XZ       004175a0 f   Mesh.obj
 0001:00016640       ?Draw@Mesh@Skel@@QAEXPAVShader@2@@Z 00417640 f   Mesh.obj
 0001:00016ba0       ?setupMesh@Mesh@Skel@@AAEXXZ 00417ba0 f   Mesh.obj
 0001:00016d90       ??$?0V?$allocator@D@std@@X@?$_String_alloc@U?$_String_base_types@DV?$allocator@D@std@@@std@@@std@@QAE@$$QAV?$allocator@D@1@@Z 00417d90 f i Mesh.obj
 0001:00016e20       ??$?HDU?$char_traits@D@std@@V?$allocator@D@1@@std@@YA?AV?$basic_string@DU?$char_traits@D@std@@V?$allocator@D@2@@0@ABV10@0@Z 00417e20 f i Mesh.obj
 0001:00016f10       ??$DoAssign@PBI$0A@@?$vector@IVallocator@eastl@@@eastl@@IAEXPBI0U?$integral_constant@_N$0A@@1@@Z 00417f10 f i Mesh.obj
 0001:00016f40       ??$DoAssign@PBUTextureMesh@Skel@@$0A@@?$vector@UTextureMesh@Skel@@Vallocator@eastl@@@eastl@@IAEXPBUTextureMesh@Skel@@0U?$integral_constant@_N$0A@@1@@Z 00417f40 f i Mesh.obj
 0001:00016f70       ??$DoAssign@PBUVertices@Skel@@$0A@@?$vector@UVertices@Skel@@Vallocator@eastl@@@eastl@@IAEXPBUVertices@Skel@@0U?$integral_constant@_N$0A@@1@@Z 00417f70 f i Mesh.obj
 0001:00016fa0       ??$DoAssignFromIterator@PBI$0A@@?$vector@IVallocator@eastl@@@eastl@@IAEXPBI0Urandom_access_iterator_tag@1@@Z 00417fa0 f i Mesh.obj
 0001:00017130       ??$DoAssignFromIterator@PBUTextureMesh@Skel@@$0A@@?$vector@UTextureMesh@Skel@@Vallocator@eastl@@@eastl@@IAEXPBUTextureMesh@Skel@@0Urandom_access_iterator_tag@1@@Z 00418130 f i Mesh.obj
 0001:00017330       ??$DoAssignFromIterator@PBUVertices@Skel@@$0A@@?$vector@UVertices@Skel@@Vallocator@eastl@@@eastl@@IAEXPBUVertices@Skel@@0Urandom_access_iterator_tag@1@@Z 00418330 f i Mesh.obj
 0001:000174e0       ??$DoRealloc@PBI@?$vector@IVallocator@eastl@@@eastl@@IAEPAIIPBI0Ushould_copy_tag@01@@Z 004184e0 f i Mesh.obj
 0001:00017550       ??$DoRealloc@PBUTextureMesh@Skel@@@?$vector@UTextureMesh@Skel@@Vallocator@eastl@@@eastl@@IAEPAUTextureMesh@Skel@@IPBU23@0Ushould_copy_tag@01@@Z 00418550 f i Mesh.obj
 0001:000175c0       ??$DoRealloc@PBUVertices@Skel@@@?$vector@UVertices@Skel@@Vallocator@eastl@@@eastl@@IAEPAUVertices@Skel@@IPBU23@0Ushould_copy_tag@01@@Z 004185c0 f i Mesh.obj
 0001:00017ad0       ??$addressof@UTextureMesh@Skel@@@eastl@@YAPAUTextureMesh@Skel@@AAU12@@Z 00418ad0 f i Mesh.obj
 0001:00017ae0       ??$allocate_memory@Vallocator@eastl@@@eastl@@YAPAXAAVallocator@0@III@Z 00418ae0 f i Mesh.obj
 0001:00017b80       ??$copy@V?$generic_iterator@PBIX@eastl@@V?$generic_iterator@PAIX@2@@eastl@@YA?AV?$generic_iterator@PAIX@0@V?$generic_iterator@PBIX@0@0V10@@Z 00418b80 f i Mesh.obj
 0001:00017bf0       ??$copy@V?$generic_iterator@PBUVertices@Skel@@X@eastl@@V?$generic_iterator@PAUVertices@Skel@@X@2@@eastl@@YA?AV?$generic_iterator@PAUVertices@Skel@@X@0@V?$generic_iterator@PBUVertices@Skel@@X@0@0V10@@Z 00418bf0 f i Mesh.obj
 0001:00017c60       ??$destruct@PAUTextureMesh@Skel@@@eastl@@YAXPAUTextureMesh@Skel@@0@Z 00418c60 f i Mesh.obj
 0001:00017d00       ??$move_or_copy@PBUTextureMesh@Skel@@PAU12@@?$move_and_copy_helper@Urandom_access_iterator_tag@eastl@@$0A@$0A@@eastl@@SAPAUTextureMesh@Skel@@PBU23@0PAU23@@Z 00418d00 f i Mesh.obj
 0001:00017d80       ??$uninitialized_copy_impl@V?$generic_iterator@PBUTextureMesh@Skel@@X@eastl@@V?$generic_iterator@PAUTextureMesh@Skel@@X@2@@Internal@eastl@@YA?AV?$generic_iterator@PAUTextureMesh@Skel@@X@1@V?$generic_iterator@PBUTextureMesh@Skel@@X@1@0V21@U?$integral_constant@_N$0A@@1@@Z 00418d80 f i Mesh.obj
 0001:00017e70       ??$uninitialized_copy_ptr@PBIPBIPAI@eastl@@YAPAIPBI0PAI@Z 00418e70 f i Mesh.obj
 0001:00017ec0       ??$uninitialized_copy_ptr@PBUVertices@Skel@@PBU12@PAU12@@eastl@@YAPAUVertices@Skel@@PBU12@0PAU12@@Z 00418ec0 f i Mesh.obj
 0001:00017f10       ??0?$basic_string@DU?$char_traits@D@std@@V?$allocator@D@2@@std@@QAE@ABV01@@Z 00418f10 f i Mesh.obj
 0001:00017fb0       ??0?$basic_string@DU?$char_traits@D@std@@V?$allocator@D@2@@std@@QAE@QBDI@Z 00418fb0 f i Mesh.obj
 0001:00018050       ??0?$basic_stringbuf@DU?$char_traits@D@std@@V?$allocator@D@2@@std@@QAE@H@Z 00419050 f i Mesh.obj
 0001:00018200       ??0?$basic_stringstream@DU?$char_traits@D@std@@V?$allocator@D@2@@std@@QAE@H@Z 00419200 f i Mesh.obj
 0001:000182e0       ??0?$vector@IVallocator@eastl@@@eastl@@QAE@$$QAV01@@Z 004192e0 f i Mesh.obj
 0001:00018370       ??0?$vector@UTextureMesh@Skel@@Vallocator@eastl@@@eastl@@QAE@$$QAV01@@Z 00419370 f i Mesh.obj
 0001:00018400       ??0?$vector@UVertices@Skel@@Vallocator@eastl@@@eastl@@QAE@$$QAV01@@Z 00419400 f i Mesh.obj
 0001:00018490       ??0aiString@@QAE@ABU0@@Z   00419490 f i Mesh.obj
 0001:00018500       ??1?$VectorBase@IVallocator@eastl@@@eastl@@QAE@XZ 00419500 f i Mesh.obj
 0001:00018560       ??1?$VectorBase@UTextureMesh@Skel@@Vallocator@eastl@@@eastl@@QAE@XZ 00419560 f i Mesh.obj
 0001:000185c0       ??1?$VectorBase@UVertices@Skel@@Vallocator@eastl@@@eastl@@QAE@XZ 004195c0 f i Mesh.obj
 0001:00018620       ??1?$basic_stringstream@DU?$char_traits@D@std@@V?$allocator@D@2@@std@@UAE@XZ 00419620 f i Mesh.obj
 0001:000186d0       ??1?$vector@IVallocator@eastl@@@eastl@@QAE@XZ 004196d0 f i Mesh.obj
 0001:000186f0       ??1?$vector@UTextureMesh@Skel@@Vallocator@eastl@@@eastl@@QAE@XZ 004196f0 f i Mesh.obj
 0001:00018750       ??1?$vector@UVertices@Skel@@Vallocator@eastl@@@eastl@@QAE@XZ 00419750 f i Mesh.obj
 0001:00018770       ??4?$basic_string@DU?$char_traits@D@std@@V?$allocator@D@2@@std@@QAEAAV01@$$QAV01@@Z 00419770 f i Mesh.obj
 0001:00018810       ??4?$basic_string@DU?$char_traits@D@std@@V?$allocator@D@2@@std@@QAEAAV01@ABV01@@Z 00419810 f i Mesh.obj
 0001:000188d0       ??4?$vector@IVallocator@eastl@@@eastl@@QAEAAV01@ABV01@@Z 004198d0 f i Mesh.obj
 0001:00018930       ??4?$vector@UTextureMesh@Skel@@Vallocator@eastl@@@eastl@@QAEAAV01@ABV01@@Z 00419930 f i Mesh.obj
 0001:00018990       ??4?$vector@UVertices@Skel@@Vallocator@eastl@@@eastl@@QAEAAV01@ABV01@@Z 00419990 f i Mesh.obj
 0001:000189f0       ??_D?$basic_stringstream@DU?$char_traits@D@std@@V?$allocator@D@2@@std@@QAEXXZ 004199f0 f i Mesh.obj
 0001:00018a12       ??_E?$basic_stringstream@DU?$char_traits@D@std@@V?$allocator@D@2@@std@@$4PPPPPPPM@A@AEPAXI@Z 00419a12 f i Mesh.obj
 0001:00018a20       ??_G?$basic_stringbuf@DU?$char_traits@D@std@@V?$allocator@D@2@@std@@UAEPAXI@Z 00419a20 f i Mesh.obj
 0001:00018a20       ??_E?$basic_stringbuf@DU?$char_traits@D@std@@V?$allocator@D@2@@std@@UAEPAXI@Z 00419a20 f i Mesh.obj
 0001:00018aa0       ??_E?$basic_stringstream@DU?$char_traits@D@std@@V?$allocator@D@2@@std@@UAEPAXI@Z 00419aa0 f i Mesh.obj
 0001:00018aa0       ??_G?$basic_stringstream@DU?$char_traits@D@std@@V?$allocator@D@2@@std@@UAEPAXI@Z 00419aa0 f i Mesh.obj
 0001:00018b00       ??_H@YGXPAXIIP6EPAX0@Z@Z   00419b00 f i Mesh.obj
 0001:00018b30       ?DoAllocate@?$VectorBase@IVallocator@eastl@@@eastl@@IAEPAII@Z 00419b30 f i Mesh.obj
 0001:00018ba0       ?DoAllocate@?$VectorBase@UTextureMesh@Skel@@Vallocator@eastl@@@eastl@@IAEPAUTextureMesh@Skel@@I@Z 00419ba0 f i Mesh.obj
 0001:00018c10       ?DoAllocate@?$VectorBase@UVertices@Skel@@Vallocator@eastl@@@eastl@@IAEPAUVertices@Skel@@I@Z 00419c10 f i Mesh.obj
 0001:00018c80       ?DoClearCapacity@?$vector@IVallocator@eastl@@@eastl@@IAEXXZ 00419c80 f i Mesh.obj
 0001:00018d00       ?DoClearCapacity@?$vector@UTextureMesh@Skel@@Vallocator@eastl@@@eastl@@IAEXXZ 00419d00 f i Mesh.obj
 0001:00018db0       ?DoClearCapacity@?$vector@UVertices@Skel@@Vallocator@eastl@@@eastl@@IAEXXZ 00419db0 f i Mesh.obj
 0001:00018e30       ?DoSwap@?$vector@IVallocator@eastl@@@eastl@@IAEXAAV12@@Z 00419e30 f i Mesh.obj
 0001:00018ec0       ?DoSwap@?$vector@UTextureMesh@Skel@@Vallocator@eastl@@@eastl@@IAEXAAV12@@Z 00419ec0 f i Mesh.obj
 0001:00018f50       ?DoSwap@?$vector@UVertices@Skel@@Vallocator@eastl@@@eastl@@IAEXAAV12@@Z 00419f50 f i Mesh.obj
 0001:00018ff0       ?GLLogCall@Common@Skel@@SA_NPBD0H@Z 00419ff0 f i Mesh.obj
 0001:000190c0       ?_Construct_lv_contents@?$basic_string@DU?$char_traits@D@std@@V?$allocator@D@2@@std@@QAEXABV12@@Z 0041a0c0 f i Mesh.obj
 0001:00019250       ?_Equal@?$basic_string@DU?$char_traits@D@std@@V?$allocator@D@2@@std@@QBE_NQBD@Z 0041a250 f i Mesh.obj
 0001:00019320       ?_Move_alloc@?$_String_alloc@U?$_String_base_types@DV?$allocator@D@std@@@std@@@std@@QAEXAAV?$allocator@D@2@@Z 0041a320 f i Mesh.obj
 0001:00019390       ?_Tidy@?$basic_stringbuf@DU?$char_traits@D@std@@V?$allocator@D@2@@std@@IAEXXZ 0041a390 f i Mesh.obj
 0001:00019460       ?overflow@?$basic_stringbuf@DU?$char_traits@D@std@@V?$allocator@D@2@@std@@MAEHH@Z 0041a460 f i Mesh.obj
 0001:000197f0       ?pbackfail@?$basic_stringbuf@DU?$char_traits@D@std@@V?$allocator@D@2@@std@@MAEHH@Z 0041a7f0 f i Mesh.obj
 0001:00019960       ?seekoff@?$basic_stringbuf@DU?$char_traits@D@std@@V?$allocator@D@2@@std@@MAE?AV?$fpos@U_Mbstatet@@@2@_JHH@Z 0041a960 f i Mesh.obj
 0001:00019c40       ?seekpos@?$basic_stringbuf@DU?$char_traits@D@std@@V?$allocator@D@2@@std@@MAE?AV?$fpos@U_Mbstatet@@@2@V32@H@Z 0041ac40 f i Mesh.obj
 0001:00019e60       ?str@?$basic_stringbuf@DU?$char_traits@D@std@@V?$allocator@D@2@@std@@QBE?AV?$basic_string@DU?$char_traits@D@std@@V?$allocator@D@2@@2@XZ 0041ae60 f i Mesh.obj
 0001:0001a020       ?swap@?$compressed_pair_imp@PAIVallocator@eastl@@$0A@@eastl@@QAEXAAV?$compressed_pair@PAIVallocator@eastl@@@2@@Z 0041b020 f i Mesh.obj
 0001:0001a090       ?swap@?$compressed_pair_imp@PAUTextureMesh@Skel@@Vallocator@eastl@@$0A@@eastl@@QAEXAAV?$compressed_pair@PAUTextureMesh@Skel@@Vallocator@eastl@@@2@@Z 0041b090 f i Mesh.obj
 0001:0001a100       ?swap@?$compressed_pair_imp@PAUVertices@Skel@@Vallocator@eastl@@$0A@@eastl@@QAEXAAV?$compressed_pair@PAUVertices@Skel@@Vallocator@eastl@@@2@@Z 0041b100 f i Mesh.obj
 0001:0001a170       ?underflow@?$basic_stringbuf@DU?$char_traits@D@std@@V?$allocator@D@2@@std@@MAEHXZ 0041b170 f i Mesh.obj
 0001:0001a290       ??0MeshComponent@Skel@@QAE@PAVModel@1@@Z 0041b290 f   MeshComponent.obj
 0001:0001a2c0       ?draw@MeshComponent@Skel@@QAEXPAVShader@2@@Z 0041b2c0 f   MeshComponent.obj
 0001:0001a430       ?getComponentType@Component@Skel@@UBEPAUComponentType@2@XZ 0041b430 f i MeshComponent.obj
 0001:0001a440       ?getComponentType@MeshComponent@Skel@@UBEPAUComponentType@2@XZ 0041b440 f i MeshComponent.obj
 0001:0001a450       ?getEntity@Component@Skel@@UBEPAVEntity@2@XZ 0041b450 f i MeshComponent.obj
 0001:0001a470       ?getStaticType@MeshComponent@Skel@@SAPAUComponentType@2@XZ 0041b470 f i MeshComponent.obj
 0001:0001a550       ??1Model@Skel@@QAE@XZ      0041b550 f   Model.obj
 0001:0001a5e0       ?Draw@Model@Skel@@QAEXPAVShader@2@@Z 0041b5e0 f   Model.obj
 0001:0001a630       ?loadModel@Model@Skel@@AAEXV?$basic_string@DVallocator@eastl@@@eastl@@@Z 0041b630 f   Model.obj
 0001:0001a850       ?processNode@Model@Skel@@AAEXPAUaiNode@@PBUaiScene@@@Z 0041b850 f   Model.obj
 0001:0001a950       ?processMesh@Model@Skel@@AAE?AVMesh@2@PAUaiMesh@@PBUaiScene@@@Z 0041b950 f   Model.obj
 0001:0001b120       ?loadMaterialTextures@Model@Skel@@AAE?AV?$vector@UTextureMesh@Skel@@Vallocator@eastl@@@eastl@@PAUaiMaterial@@W4aiTextureType@@V?$basic_string@DVallocator@eastl@@@4@@Z 0041c120 f   Model.obj
 0001:0001b550       ??$?HDVallocator@eastl@@@eastl@@YA?AV?$basic_string@DVallocator@eastl@@@0@ABV10@D@Z 0041c550 f i Model.obj
 0001:0001b620       ??$DoInsert@PAUTextureMesh@Skel@@@?$vector@UTextureMesh@Skel@@Vallocator@eastl@@@eastl@@IAEXPBUTextureMesh@Skel@@PAU23@1U?$integral_constant@_N$0A@@1@@Z 0041c620 f i Model.obj
 0001:0001b650       ??$DoInsertFromIterator@PAUTextureMesh@Skel@@@?$vector@UTextureMesh@Skel@@Vallocator@eastl@@@eastl@@IAEXPBUTextureMesh@Skel@@PAU23@1Ubidirectional_iterator_tag@1@@Z 0041c650 f i Model.obj
 0001:0001bb40       ??$DoInsertValueEnd@ABI@?$vector@IVallocator@eastl@@@eastl@@IAEXABI@Z 0041cb40 f i Model.obj
 0001:0001bc40       ??$DoInsertValueEnd@ABUTextureMesh@Skel@@@?$vector@UTextureMesh@Skel@@Vallocator@eastl@@@eastl@@IAEXABUTextureMesh@Skel@@@Z 0041cc40 f i Model.obj
 0001:0001be00       ??$DoInsertValueEnd@ABUVertices@Skel@@@?$vector@UVertices@Skel@@Vallocator@eastl@@@eastl@@IAEXABUVertices@Skel@@@Z 0041ce00 f i Model.obj
 0001:0001bf10       ??$DoInsertValueEnd@VMesh@Skel@@@?$vector@VMesh@Skel@@Vallocator@eastl@@@eastl@@IAEX$$QAVMesh@Skel@@@Z 0041cf10 f i Model.obj
 0001:0001c1f0       ??$addressof@VMesh@Skel@@@eastl@@YAPAVMesh@Skel@@AAV12@@Z 0041d1f0 f i Model.obj
 0001:0001c200       ??$copy@V?$generic_iterator@PAIX@eastl@@V12@@eastl@@YA?AV?$generic_iterator@PAIX@0@V10@00@Z 0041d200 f i Model.obj
 0001:0001c270       ??$copy@V?$generic_iterator@PAUVertices@Skel@@X@eastl@@V12@@eastl@@YA?AV?$generic_iterator@PAUVertices@Skel@@X@0@V10@00@Z 0041d270 f i Model.obj
 0001:0001c2e0       ??$insert@PAUTextureMesh@Skel@@@?$vector@UTextureMesh@Skel@@Vallocator@eastl@@@eastl@@QAEPAUTextureMesh@Skel@@PBU23@PAU23@1@Z 0041d2e0 f i Model.obj
 0001:0001c330       ??$move_or_copy@PAUTextureMesh@Skel@@PAU12@@?$move_and_copy_helper@Urandom_access_iterator_tag@eastl@@$0A@$0A@@eastl@@SAPAUTextureMesh@Skel@@PAU23@00@Z 0041d330 f i Model.obj
 0001:0001c3b0       ??$move_or_copy_backward@PAUTextureMesh@Skel@@PAU12@@?$move_and_copy_backward_helper@Urandom_access_iterator_tag@eastl@@$00$0A@@eastl@@SAPAUTextureMesh@Skel@@PAU23@00@Z 0041d3b0 f i Model.obj
 0001:0001c440       ??$move_or_copy_backward@PAUTextureMesh@Skel@@PAU12@@?$move_and_copy_backward_helper@Urandom_access_iterator_tag@eastl@@$0A@$0A@@eastl@@SAPAUTextureMesh@Skel@@PAU23@00@Z 0041d440 f i Model.obj
 0001:0001c4c0       ??$uninitialized_copy_impl@V?$generic_iterator@PAUTextureMesh@Skel@@X@eastl@@V12@@Internal@eastl@@YA?AV?$generic_iterator@PAUTextureMesh@Skel@@X@1@V21@00U?$integral_constant@_N$0A@@1@@Z 0041d4c0 f i Model.obj
 0001:0001c5b0       ??$uninitialized_copy_ptr@PAIPAIPAI@eastl@@YAPAIPAI00@Z 0041d5b0 f i Model.obj
 0001:0001c600       ??$uninitialized_copy_ptr@PAUVertices@Skel@@PAU12@PAU12@@eastl@@YAPAUVertices@Skel@@PAU12@00@Z 0041d600 f i Model.obj
 0001:0001c650       ??$uninitialized_move_impl@V?$generic_iterator@PAUTextureMesh@Skel@@X@eastl@@V12@@Internal@eastl@@YA?AV?$generic_iterator@PAUTextureMesh@Skel@@X@1@V21@00U?$integral_constant@_N$0A@@1@@Z 0041d650 f i Model.obj
 0001:0001c740       ??$uninitialized_move_impl@V?$generic_iterator@PAVMesh@Skel@@X@eastl@@V12@@Internal@eastl@@YA?AV?$generic_iterator@PAVMesh@Skel@@X@1@V21@00U?$integral_constant@_N$0A@@1@@Z 0041d740 f i Model.obj
 0001:0001c7d0       ??$uninitialized_move_ptr@PAIPAIPAI@eastl@@YAPAIPAI00@Z 0041d7d0 f i Model.obj
 0001:0001c820       ??$uninitialized_move_ptr@PAUVertices@Skel@@PAU12@PAU12@@eastl@@YAPAUVertices@Skel@@PAU12@00@Z 0041d820 f i Model.obj
 0001:0001c870       ??0?$VectorBase@IVallocator@eastl@@@eastl@@QAE@IABVallocator@1@@Z 0041d870 f i Model.obj
 0001:0001c8e0       ??0?$VectorBase@UTextureMesh@Skel@@Vallocator@eastl@@@eastl@@QAE@IABVallocator@1@@Z 0041d8e0 f i Model.obj
 0001:0001c950       ??0?$VectorBase@UVertices@Skel@@Vallocator@eastl@@@eastl@@QAE@IABVallocator@1@@Z 0041d950 f i Model.obj
 0001:0001c9c0       ??0?$vector@IVallocator@eastl@@@eastl@@QAE@ABV01@@Z 0041d9c0 f i Model.obj
 0001:0001ca60       ??0?$vector@IVallocator@eastl@@@eastl@@QAE@XZ 0041da60 f i Model.obj
 0001:0001cad0       ??0?$vector@UTextureMesh@Skel@@Vallocator@eastl@@@eastl@@QAE@ABV01@@Z 0041dad0 f i Model.obj
 0001:0001cba0       ??0?$vector@UTextureMesh@Skel@@Vallocator@eastl@@@eastl@@QAE@XZ 0041dba0 f i Model.obj
 0001:0001cc10       ??0?$vector@UVertices@Skel@@Vallocator@eastl@@@eastl@@QAE@ABV01@@Z 0041dc10 f i Model.obj
 0001:0001ccb0       ??0?$vector@UVertices@Skel@@Vallocator@eastl@@@eastl@@QAE@XZ 0041dcb0 f i Model.obj
 0001:0001cd20       ??0Mesh@Skel@@QAE@ABV01@@Z 0041dd20 f i Model.obj
 0001:0001cde0       ??0TextureMesh@Skel@@QAE@XZ 0041dde0 f i Model.obj
 0001:0001ce40       ??0Vertices@Skel@@QAE@XZ   0041de40 f i Model.obj
 0001:0001cf10       ??1?$VectorBase@VMesh@Skel@@Vallocator@eastl@@@eastl@@QAE@XZ 0041df10 f i Model.obj
 0001:0001cf70       ??1?$vector@VMesh@Skel@@Vallocator@eastl@@@eastl@@QAE@XZ 0041df70 f i Model.obj
 0001:0001cfd0       ??1TextureMesh@Skel@@QAE@XZ 0041dfd0 f i Model.obj
 0001:0001d040       ??1aiFace@@QAE@XZ          0041e040 f i Model.obj
 0001:0001d070       ??4aiFace@@QAEAAU0@ABU0@@Z 0041e070 f i Model.obj
 0001:0001d110       ?CharTypeStringRFind@?$basic_string@DVallocator@eastl@@@eastl@@KAPBDPBD0D@Z 0041e110 f i Model.obj
 0001:0001d140       ?DoAllocate@?$VectorBase@VMesh@Skel@@Vallocator@eastl@@@eastl@@IAEPAVMesh@Skel@@I@Z 0041e140 f i Model.obj
 0001:0001d1b0       ?append@?$basic_string@DVallocator@eastl@@@eastl@@QAEAAV12@ID@Z 0041e1b0 f i Model.obj
 0001:0001d2e0       ?push_back@?$vector@IVallocator@eastl@@@eastl@@QAEXABI@Z 0041e2e0 f i Model.obj
 0001:0001d340       ?push_back@?$vector@UTextureMesh@Skel@@Vallocator@eastl@@@eastl@@QAEXABUTextureMesh@Skel@@@Z 0041e340 f i Model.obj
 0001:0001d400       ?push_back@?$vector@UVertices@Skel@@Vallocator@eastl@@@eastl@@QAEXABUVertices@Skel@@@Z 0041e400 f i Model.obj
 0001:0001d470       ?push_back@?$vector@VMesh@Skel@@Vallocator@eastl@@@eastl@@QAEX$$QAVMesh@Skel@@@Z 0041e470 f i Model.obj
 0001:0001d4e0       ?reserve@?$basic_string@DVallocator@eastl@@@eastl@@QAEXI@Z 0041e4e0 f i Model.obj
 0001:0001d540       ?rfind@?$basic_string@DVallocator@eastl@@@eastl@@QBEIDI@Z 0041e540 f i Model.obj
 0001:0001d620       ?set_capacity@?$basic_string@DVallocator@eastl@@@eastl@@QAEXI@Z 0041e620 f i Model.obj
 0001:0001d900       ?substr@?$basic_string@DVallocator@eastl@@@eastl@@QBE?AV12@II@Z 0041e900 f i Model.obj
 0001:0001d9b0       ??0Transform@Skel@@QAE@XZ  0041e9b0 f   Transform.obj
 0001:0001da50       ??0Transform@Skel@@QAE@PAVShader@1@@Z 0041ea50 f   Transform.obj
 0001:0001dd80       ?setRotation@Transform@Skel@@QAE?AU?$tmat4x4@M$0A@@glm@@M_N00@Z 0041ed80 f   Transform.obj
 0001:0001dfa0       ?setPosition@Transform@Skel@@QAE?AU?$tmat4x4@M$0A@@glm@@MMM@Z 0041efa0 f   Transform.obj
 0001:0001e100       ?setSize@Transform@Skel@@QAE?AU?$tmat4x4@M$0A@@glm@@MMM@Z 0041f100 f   Transform.obj
 0001:0001e260       ?setTransform@Transform@Skel@@QAE?AU?$tmat4x4@M$0A@@glm@@U?$tvec3@M$0A@@4@00M@Z 0041f260 f   Transform.obj
 0001:0001e330       ??$?0HHHH@?$tvec4@M$0A@@glm@@QAE@HHHH@Z 0041f330 f i Transform.obj
 0001:0001e380       ??$?0MNM@?$tvec3@M$0A@@glm@@QAE@MNM@Z 0041f380 f i Transform.obj
 0001:0001e3c0       ??$?DM$0A@@glm@@YA?AU?$tvec3@M$0A@@0@ABU10@0@Z 0041f3c0 f i Transform.obj
 0001:0001e430       ??$?XM@?$tvec4@M$0A@@glm@@QAEAAU01@M@Z 0041f430 f i Transform.obj
 0001:0001e4a0       ??$?YM@?$tvec4@M$0A@@glm@@QAEAAU01@ABU01@@Z 0041f4a0 f i Transform.obj
 0001:0001e500       ??$rotate@M$0A@@glm@@YA?AU?$tmat4x4@M$0A@@0@ABU10@MABU?$tvec3@M$0A@@0@@Z 0041f500 f i Transform.obj
 0001:0001fbd0       ??$scale@M$0A@@glm@@YA?AU?$tmat4x4@M$0A@@0@ABU10@ABU?$tvec3@M$0A@@0@@Z 00420bd0 f i Transform.obj
 0001:0001ff70       ??$translate@M$0A@@glm@@YA?AU?$tmat4x4@M$0A@@0@ABU10@ABU?$tvec3@M$0A@@0@@Z 00420f70 f i Transform.obj
 0001:00020360       ??0?$tmat4x4@M$0A@@glm@@QAE@W4ctor@1@@Z 00421360 f i Transform.obj
 0001:000203d0       ??0?$tmat4x4@M$0A@@glm@@QAE@XZ 004213d0 f i Transform.obj
 0001:00020500       ??A?$tvec4@M$0A@@glm@@QAEAAMH@Z 00421500 f i Transform.obj
 0001:00020540       ?call@?$compute_normalize@M$0A@Utvec3@glm@@$0A@@detail@glm@@SA?AU?$tvec3@M$0A@@3@ABU43@@Z 00421540 f i Transform.obj
 0001:000205f0       ?call@?$compute_vec4_add@M$0A@$0A@@detail@glm@@SA?AU?$tvec4@M$0A@@3@ABU43@0@Z 004215f0 f i Transform.obj
 0001:00020690       ?call@?$compute_vec4_mul@M$0A@$0A@@detail@glm@@SA?AU?$tvec4@M$0A@@3@ABU43@0@Z 00421690 f i Transform.obj
 0001:00020730       ??0Entity@Skel@@QAE@PAVModel@1@PAVShader@1@@Z 00421730 f   Entity.obj
 0001:000208a0       ?addComponent@Entity@Skel@@QAEXPAVComponent@2@@Z 004218a0 f   Entity.obj
 0001:000208f0       ?draw@Entity@Skel@@QAEXXZ  004218f0 f   Entity.obj
 0001:00020960       ?setSize@Entity@Skel@@QAEXMMM@Z 00421960 f   Entity.obj
 0001:000209d0       ?setRotation@Entity@Skel@@QAEXM_N00@Z 004219d0 f   Entity.obj
 0001:00020a30       ?setPosition@Entity@Skel@@QAEXMMM@Z 00421a30 f   Entity.obj
 0001:00020aa0       ?setTransform@Entity@Skel@@QAEXU?$tvec3@M$0A@@glm@@00M@Z 00421aa0 f   Entity.obj
 0001:00020b40       ?setVisibility@Entity@Skel@@QAEX_N@Z 00421b40 f   Entity.obj
 0001:00020cb0       ??$addressof@U?$pair@QAUComponentType@Skel@@PAVComponent@2@@eastl@@@eastl@@YAPAU?$pair@QAUComponentType@Skel@@PAVComponent@2@@0@AAU10@@Z 00421cb0 f i Entity.obj
 0001:00020cc0       ??$getComponent@VMeshComponent@Skel@@@Entity@Skel@@QAEPAVMeshComponent@1@XZ 00421cc0 f i Entity.obj
 0001:00020d50       ??0?$hashtable@PAUComponentType@Skel@@U?$pair@QAUComponentType@Skel@@PAVComponent@2@@eastl@@Vallocator@4@U?$use_first@U?$pair@QAUComponentType@Skel@@PAVComponent@2@@eastl@@@4@U?$equal_to@PAUComponentType@Skel@@@4@U?$hash@PAUComponentType@Skel@@@4@Umod_range_hashing@4@Udefault_ranged_hash@4@Uprime_rehash_policy@4@$0A@$00$00@eastl@@QAE@IABU?$hash@PAUComponentType@Skel@@@1@ABUmod_range_hashing@1@ABUdefault_ranged_hash@1@ABU?$equal_to@PAUComponentType@Skel@@@1@ABU?$use_first@U?$pair@QAUComponentType@Skel@@PAVComponent@2@@eastl@@@1@ABVallocator@1@@Z 00421d50 f i Entity.obj
 0001:00020e40       ??1?$hash_map@PAUComponentType@Skel@@PAVComponent@2@U?$hash@PAUComponentType@Skel@@@eastl@@U?$equal_to@PAUComponentType@Skel@@@5@Vallocator@5@$0A@@eastl@@QAE@XZ 00421e40 f i Entity.obj
 0001:00020e60       ??1?$hashtable@PAUComponentType@Skel@@U?$pair@QAUComponentType@Skel@@PAVComponent@2@@eastl@@Vallocator@4@U?$use_first@U?$pair@QAUComponentType@Skel@@PAVComponent@2@@eastl@@@4@U?$equal_to@PAUComponentType@Skel@@@4@U?$hash@PAUComponentType@Skel@@@4@Umod_range_hashing@4@Udefault_ranged_hash@4@Uprime_rehash_policy@4@$0A@$00$00@eastl@@QAE@XZ 00421e60 f i Entity.obj
 0001:00020ef0       ?DoAllocateBuckets@?$hashtable@PAUComponentType@Skel@@U?$pair@QAUComponentType@Skel@@PAVComponent@2@@eastl@@Vallocator@4@U?$use_first@U?$pair@QAUComponentType@Skel@@PAVComponent@2@@eastl@@@4@U?$equal_to@PAUComponentType@Skel@@@4@U?$hash@PAUComponentType@Skel@@@4@Umod_range_hashing@4@Udefault_ranged_hash@4@Uprime_rehash_policy@4@$0A@$00$00@eastl@@IAEPAPAU?$hash_node@U?$pair@QAUComponentType@Skel@@PAVComponent@2@@eastl@@$0A@@2@I@Z 00421ef0 f i Entity.obj
 0001:00020f70       ?DoAllocateNodeFromKey@?$hashtable@PAUComponentType@Skel@@U?$pair@QAUComponentType@Skel@@PAVComponent@2@@eastl@@Vallocator@4@U?$use_first@U?$pair@QAUComponentType@Skel@@PAVComponent@2@@eastl@@@4@U?$equal_to@PAUComponentType@Skel@@@4@U?$hash@PAUComponentType@Skel@@@4@Umod_range_hashing@4@Udefault_ranged_hash@4@Uprime_rehash_policy@4@$0A@$00$00@eastl@@IAEPAU?$hash_node@U?$pair@QAUComponentType@Skel@@PAVComponent@2@@eastl@@$0A@@2@$$QAPAUComponentType@Skel@@@Z 00421f70 f i Entity.obj
 0001:00021000       ?DoFreeNodes@?$hashtable@PAUComponentType@Skel@@U?$pair@QAUComponentType@Skel@@PAVComponent@2@@eastl@@Vallocator@4@U?$use_first@U?$pair@QAUComponentType@Skel@@PAVComponent@2@@eastl@@@4@U?$equal_to@PAUComponentType@Skel@@@4@U?$hash@PAUComponentType@Skel@@@4@Umod_range_hashing@4@Udefault_ranged_hash@4@Uprime_rehash_policy@4@$0A@$00$00@eastl@@IAEXPAPAU?$hash_node@U?$pair@QAUComponentType@Skel@@PAVComponent@2@@eastl@@$0A@@2@I@Z 00422000 f i Entity.obj
 0001:00021070       ?DoInsertKey@?$hashtable@PAUComponentType@Skel@@U?$pair@QAUComponentType@Skel@@PAVComponent@2@@eastl@@Vallocator@4@U?$use_first@U?$pair@QAUComponentType@Skel@@PAVComponent@2@@eastl@@@4@U?$equal_to@PAUComponentType@Skel@@@4@U?$hash@PAUComponentType@Skel@@@4@Umod_range_hashing@4@Udefault_ranged_hash@4@Uprime_rehash_policy@4@$0A@$00$00@eastl@@IAE?AU?$pair@U?$hashtable_iterator@U?$pair@QAUComponentType@Skel@@PAVComponent@2@@eastl@@$0A@$0A@@eastl@@_N@2@U?$integral_constant@_N$00@2@$$QAPAUComponentType@Skel@@@Z 00422070 f i Entity.obj
 0001:00021270       ?DoRehash@?$hashtable@PAUComponentType@Skel@@U?$pair@QAUComponentType@Skel@@PAVComponent@2@@eastl@@Vallocator@4@U?$use_first@U?$pair@QAUComponentType@Skel@@PAVComponent@2@@eastl@@@4@U?$equal_to@PAUComponentType@Skel@@@4@U?$hash@PAUComponentType@Skel@@@4@Umod_range_hashing@4@Udefault_ranged_hash@4@Uprime_rehash_policy@4@$0A@$00$00@eastl@@IAEXI@Z 00422270 f i Entity.obj
 0001:00021340       ?find@?$hashtable@PAUComponentType@Skel@@U?$pair@QAUComponentType@Skel@@PAVComponent@2@@eastl@@Vallocator@4@U?$use_first@U?$pair@QAUComponentType@Skel@@PAVComponent@2@@eastl@@@4@U?$equal_to@PAUComponentType@Skel@@@4@U?$hash@PAUComponentType@Skel@@@4@Umod_range_hashing@4@Udefault_ranged_hash@4@Uprime_rehash_policy@4@$0A@$00$00@eastl@@QAE?AU?$hashtable_iterator@U?$pair@QAUComponentType@Skel@@PAVComponent@2@@eastl@@$0A@$0A@@2@ABQAUComponentType@Skel@@@Z 00422340 f i Entity.obj
 0001:00021440       ??0FrameBuffer@Skel@@QAE@XZ 00422440 f   FrameBuffer.obj
 0001:000214f0       ??1FrameBuffer@Skel@@QAE@XZ 004224f0 f   FrameBuffer.obj
 0001:00021570       ?bind@FrameBuffer@Skel@@QAEXHH@Z 00422570 f   FrameBuffer.obj
 0001:000215e0       ?unbind@FrameBuffer@Skel@@QAEXXZ 004225e0 f   FrameBuffer.obj
 0001:00021630       ?AttachTexture@FrameBuffer@Skel@@QAEXXZ 00422630 f   FrameBuffer.obj
 0001:000216e0       ?AttachDepthStencil@FrameBuffer@Skel@@QAEXXZ 004226e0 f   FrameBuffer.obj
 0001:00021740       ?CreateAndAttachRenderBuffer@FrameBuffer@Skel@@QAEXXZ 00422740 f   FrameBuffer.obj
 0001:000217c0       ??0IndexBuffer@Skel@@QAE@QAIH@Z 004227c0 f   IndexBuffer.obj
 0001:00021810       ??1IndexBuffer@Skel@@QAE@XZ 00422810 f   IndexBuffer.obj
 0001:00021850       ?bind@IndexBuffer@Skel@@QAEXXZ 00422850 f   IndexBuffer.obj
 0001:00021870       ?unbind@IndexBuffer@Skel@@QAEXXZ 00422870 f   IndexBuffer.obj
 0001:000218c0       ?draw@IndexBuffer@Skel@@QAEXXZ 004228c0 f   IndexBuffer.obj
 0001:000218f0       ??0Shader@Skel@@QAE@PBD0@Z 004228f0 f   Shader.obj
 0001:00021920       ??1Shader@Skel@@QAE@XZ     00422920 f   Shader.obj
 0001:00021960       ?enable@Shader@Skel@@QAEXXZ 00422960 f   Shader.obj
 0001:00021980       ?disable@Shader@Skel@@QAEXXZ 00422980 f   Shader.obj
 0001:000219a0       ?setUniform1f@Shader@Skel@@QAEXPBDM@Z 004229a0 f   Shader.obj
 0001:00021a00       ?setUniform1i@Shader@Skel@@QAEXPBDH@Z 00422a00 f   Shader.obj
 0001:00021a60       ?setUniform2f@Shader@Skel@@QAEXPBDABU?$tvec2@M$0A@@glm@@@Z 00422a60 f   Shader.obj
 0001:00021ad0       ?setUniform3f@Shader@Skel@@QAEXPBDABU?$tvec3@M$0A@@glm@@@Z 00422ad0 f   Shader.obj
 0001:00021b50       ?setUniform4f@Shader@Skel@@QAEXPBDABU?$tvec4@M$0A@@glm@@@Z 00422b50 f   Shader.obj
 0001:00021be0       ?setUniform4f@Shader@Skel@@QAEXPBDMMMM@Z 00422be0 f   Shader.obj
 0001:00021c60       ?setUniformMat4@Shader@Skel@@QAEXPBDU?$tmat4x4@M$0A@@glm@@@Z 00422c60 f   Shader.obj
 0001:00021ce0       ?getUniformLocation@Shader@Skel@@QAEHPBD@Z 00422ce0 f   Shader.obj
 0001:00021d00       ?readShaderFromFile@Shader@Skel@@AAE?AV?$basic_string@DU?$char_traits@D@std@@V?$allocator@D@2@@std@@PBD@Z 00422d00 f   Shader.obj
 0001:00021e40       ?load@Shader@Skel@@AAEIPBD0@Z 00422e40 f   Shader.obj
 0001:00022880       ?LoadCubemap@Skybox@Skel@@AAEXXZ 00423880 f   Skybox.obj
 0001:00023150       ??0Skybox@Skel@@QAE@PAVShader@1@@Z 00424150 f   Skybox.obj
 0001:000231d0       ??1Skybox@Skel@@QAE@XZ     004241d0 f   Skybox.obj
 0001:00023210       ?Update@Skybox@Skel@@QAEXPAVCamera@2@U?$tmat4x4@M$0A@@glm@@@Z 00424210 f   Skybox.obj
 0001:00023320       ??$?0ABV?$allocator@PBD@std@@X@?$_Vector_alloc@U?$_Vec_base_types@PBDV?$allocator@PBD@std@@@std@@@std@@QAE@ABV?$allocator@PBD@1@@Z 00424320 f i Skybox.obj
 0001:00023380       ??$?0M$0A@@?$tvec3@M$0A@@glm@@QAE@ABU?$tvec4@M$0A@@1@@Z 00424380 f i Skybox.obj
 0001:000233c0       ??$?0MH$0A@@?$tvec4@M$0A@@glm@@QAE@ABU?$tvec3@M$0A@@1@H@Z 004243c0 f i Skybox.obj
 0001:00023400       ??$_Range_construct_or_tidy@PBQBD@?$vector@PBDV?$allocator@PBD@std@@@std@@AAEXPBQBD0Uforward_iterator_tag@1@@Z 00424400 f i Skybox.obj
 0001:00023540       ??0?$tmat3x3@M$0A@@glm@@QAE@ABU?$tmat4x4@M$0A@@1@@Z 00424540 f i Skybox.obj
 0001:00023690       ??0?$tmat4x4@M$0A@@glm@@QAE@ABU?$tmat3x3@M$0A@@1@@Z 00424690 f i Skybox.obj
 0001:00023830       ??0Camera@Skel@@QAE@XZ     00424830 f i Skybox.obj
 0001:000239a0       ??1?$_Vector_alloc@U?$_Vec_base_types@PBDV?$allocator@PBD@std@@@std@@@std@@QAE@XZ 004249a0 f i Skybox.obj
 0001:000239e0       ??1?$vector@PBDV?$allocator@PBD@std@@@std@@QAE@XZ 004249e0 f i Skybox.obj
 0001:00023a40       ??A?$vector@PBDV?$allocator@PBD@std@@@std@@QAEAAPBDI@Z 00424a40 f i Skybox.obj
 0001:00023ac0       ?_Alloc_proxy@?$_Vector_alloc@U?$_Vec_base_types@PBDV?$allocator@PBD@std@@@std@@@std@@QAEXXZ 00424ac0 f i Skybox.obj
 0001:00023b80       ?_Buy@?$vector@PBDV?$allocator@PBD@std@@@std@@AAE_NI@Z 00424b80 f i Skybox.obj
 0001:00023d10       ?_Free_proxy@?$_Vector_alloc@U?$_Vec_base_types@PBDV?$allocator@PBD@std@@@std@@@std@@QAEXXZ 00424d10 f i Skybox.obj
 0001:00023dc0       ?_Tidy@?$vector@PBDV?$allocator@PBD@std@@@std@@AAEXXZ 00424dc0 f i Skybox.obj
 0001:00023f70       ?_Xlength@?$vector@PBDV?$allocator@PBD@std@@@std@@CAXXZ 00424f70 f i Skybox.obj
 0001:00023f80       ?allocate@?$allocator@PBD@std@@QAEPAPBDI@Z 00424f80 f i Skybox.obj
 0001:00023ff0       ?size@?$vector@PBDV?$allocator@PBD@std@@@std@@QBEIXZ 00424ff0 f i Skybox.obj
 0001:00024040       ??0Texture@Skel@@QAE@PBDPAVShader@1@@Z 00425040 f   Texture.obj
 0001:00024390       ??0Texture@Skel@@QAE@V?$basic_string@DVallocator@eastl@@@eastl@@@Z 00425390 f   Texture.obj
 0001:00024740       ?loadCubemapTexture@Texture@Skel@@QAEXPBDH@Z 00425740 f   Texture.obj
 0001:000249b0       ??1Texture@Skel@@QAE@XZ    004259b0 f   Texture.obj
 0001:000249c0       ?draw@Texture@Skel@@QAEXH@Z 004259c0 f   Texture.obj
 0001:00024a50       _stbi_load_from_memory     00425a50 f   Texture.obj
 0001:00024ab0       _stbi_load_from_callbacks  00425ab0 f   Texture.obj
 0001:00024b10       _stbi_load                 00425b10 f   Texture.obj
 0001:00024b90       _stbi_load_from_file       00425b90 f   Texture.obj
 0001:00024c10       _stbi_load_16_from_memory  00425c10 f   Texture.obj
 0001:00024c70       _stbi_load_16_from_callbacks 00425c70 f   Texture.obj
 0001:00024cd0       _stbi_load_16              00425cd0 f   Texture.obj
 0001:00024d50       _stbi_load_from_file_16    00425d50 f   Texture.obj
 0001:00024dd0       _stbi_loadf_from_memory    00425dd0 f   Texture.obj
 0001:00024e30       _stbi_loadf_from_callbacks 00425e30 f   Texture.obj
 0001:00024e90       _stbi_loadf                00425e90 f   Texture.obj
 0001:00024f10       _stbi_loadf_from_file      00425f10 f   Texture.obj
 0001:00024f70       _stbi_hdr_to_ldr_gamma     00425f70 f   Texture.obj
 0001:00024f90       _stbi_hdr_to_ldr_scale     00425f90 f   Texture.obj
 0001:00024fb0       _stbi_ldr_to_hdr_gamma     00425fb0 f   Texture.obj
 0001:00024fd0       _stbi_ldr_to_hdr_scale     00425fd0 f   Texture.obj
 0001:00024ff0       _stbi_is_hdr_from_callbacks 00425ff0 f   Texture.obj
 0001:00025040       _stbi_is_hdr_from_memory   00426040 f   Texture.obj
 0001:00025090       _stbi_is_hdr               00426090 f   Texture.obj
 0001:000250e0       _stbi_is_hdr_from_file     004260e0 f   Texture.obj
 0001:00025130       _stbi_failure_reason       00426130 f   Texture.obj
 0001:00025140       _stbi_image_free           00426140 f   Texture.obj
 0001:00025160       _stbi_info_from_memory     00426160 f   Texture.obj
 0001:000251c0       _stbi_info_from_callbacks  004261c0 f   Texture.obj
 0001:00025220       _stbi_info                 00426220 f   Texture.obj
 0001:00025280       _stbi_info_from_file       00426280 f   Texture.obj
 0001:00025310       _stbi_set_unpremultiply_on_load 00426310 f   Texture.obj
 0001:00025320       _stbi_convert_iphone_png_to_rgb 00426320 f   Texture.obj
 0001:00025330       _stbi_set_flip_vertically_on_load 00426330 f   Texture.obj
 0001:00025340       _stbi_zlib_decode_malloc_guesssize 00426340 f   Texture.obj
 0001:000253f0       _stbi_zlib_decode_malloc_guesssize_headerflag 004263f0 f   Texture.obj
 0001:000254a0       _stbi_zlib_decode_malloc   004264a0 f   Texture.obj
 0001:000254c0       _stbi_zlib_decode_buffer   004264c0 f   Texture.obj
 0001:00025530       _stbi_zlib_decode_noheader_malloc 00426530 f   Texture.obj
 0001:000255e0       _stbi_zlib_decode_noheader_buffer 004265e0 f   Texture.obj
 0001:0003f280       ??0VertexArray@Skel@@QAE@XZ 00440280 f   VertexArray.obj
 0001:0003f2e0       ??1VertexArray@Skel@@QAE@XZ 004402e0 f   VertexArray.obj
 0001:0003f320       ?addBuffer@VertexArray@Skel@@QAEXHHVVertexBuffer@2@HPBX@Z 00440320 f   VertexArray.obj
 0001:0003f400       ?bind@VertexArray@Skel@@QAEXXZ 00440400 f   VertexArray.obj
 0001:0003f450       ?unbind@VertexArray@Skel@@QAEXXZ 00440450 f   VertexArray.obj
 0001:0003f4a0       ??0VertexBuffer@Skel@@QAE@QAMHW4BufferUsage@1@@Z 004404a0 f   VertexBuffer.obj
 0001:0003f580       ??0VertexBuffer@Skel@@QAE@QAUVertices@1@HW4BufferUsage@1@@Z 00440580 f   VertexBuffer.obj
 0001:0003f660       ??1VertexBuffer@Skel@@QAE@XZ 00440660 f   VertexBuffer.obj
 0001:0003f6a0       ?bind@VertexBuffer@Skel@@QAEXXZ 004406a0 f   VertexBuffer.obj
 0001:0003f6f0       ?unbind@VertexBuffer@Skel@@QAEXXZ 004406f0 f   VertexBuffer.obj
 0001:0003f740       ??0Camera@Skel@@QAE@HHMPAVWindow@1@PAVShader@1@@Z 00440740 f   Camera.obj
 0001:0003fbf0       ??1Camera@Skel@@QAE@XZ     00440bf0 f   Camera.obj
 0001:0003fc00       ?update@Camera@Skel@@QAEXXZ 00440c00 f   Camera.obj
 0001:000406c0       ?changeFOV@Camera@Skel@@QAEXM@Z 004416c0 f   Camera.obj
 0001:00040770       ??$?0HHHM@?$tvec4@M$0A@@glm@@QAE@HHHM@Z 00441770 f i Camera.obj
 0001:000407c0       ??$?0HHMH@?$tvec4@M$0A@@glm@@QAE@HHMH@Z 004417c0 f i Camera.obj
 0001:00040810       ??$?0HMHH@?$tvec4@M$0A@@glm@@QAE@HMHH@Z 00441810 f i Camera.obj
 0001:00040860       ??$?0MHHH@?$tvec4@M$0A@@glm@@QAE@MHHH@Z 00441860 f i Camera.obj
 0001:000408b0       ??$?YM@?$tvec3@M$0A@@glm@@QAEAAU01@ABU01@@Z 004418b0 f i Camera.obj
 0001:00040910       ??$?ZM@?$tvec3@M$0A@@glm@@QAEAAU01@ABU01@@Z 00441910 f i Camera.obj
 0001:00040970       ??$lookAtRH@M$0A@@glm@@YA?AU?$tmat4x4@M$0A@@0@ABU?$tvec3@M$0A@@0@00@Z 00441970 f i Camera.obj
 0001:00041010       ??$perspectiveRH@M@glm@@YA?AU?$tmat4x4@M$0A@@0@MMMM@Z 00442010 f i Camera.obj
 0001:00041350       ??0?$tmat4x4@M$0A@@glm@@QAE@ABM@Z 00442350 f i Camera.obj
 0001:000414b0       ?call@?$compute_cross@M$0A@$0A@@detail@glm@@SA?AU?$tvec3@M$0A@@3@ABU43@0@Z 004424b0 f i Camera.obj
 0001:00041560       ??0DirectionalLight@Skel@@QAE@PAVShader@1@PAVCamera@1@@Z 00442560 f   DirectionalLight.obj
 0001:00041600       ??1DirectionalLight@Skel@@QAE@XZ 00442600 f   DirectionalLight.obj
 0001:00041610       ?update@DirectionalLight@Skel@@QAEXXZ 00442610 f   DirectionalLight.obj
 0001:00041830       ?setLightDirection@DirectionalLight@Skel@@QAEXU?$tvec3@M$0A@@glm@@@Z 00442830 f   DirectionalLight.obj
 0001:00041860       ?setIntensity@DirectionalLight@Skel@@QAEXM@Z 00442860 f   DirectionalLight.obj
 0001:000418b0       ?SetMouseScrollOffset@Input@Skel@@SAXN@Z 004428b0 f   Input.obj
 0001:000418d0       ?isMouseScrollUp@Input@Skel@@SA_NXZ 004428d0 f   Input.obj
 0001:00041900       ?isMouseScrollDown@Input@Skel@@SA_NXZ 00442900 f   Input.obj
 0001:00041930       ?Start@EditorApp@Skel@@QAEXXZ 00442930 f   EditorApp.obj
 0001:000419a0       ?Run@EditorApp@Skel@@QAEXXZ 004429a0 f   EditorApp.obj
 0001:00041a30       ?OnInit@EditorApp@Skel@@QAEXXZ 00442a30 f   EditorApp.obj
 0001:00042260       ?OnTick@EditorApp@Skel@@QAEXM@Z 00443260 f   EditorApp.obj
 0001:00042e10       ?OnDestroy@EditorApp@Skel@@QAEXXZ 00443e10 f   EditorApp.obj
 0001:00042e30       _main                      00443e30 f   EditorApp.obj
 0001:00043020       ??0EditorApp@Skel@@QAE@XZ  00444020 f i EditorApp.obj
 0001:00043130       ??0Model@Skel@@QAE@PBD@Z   00444130 f i EditorApp.obj
 0001:00043290       ??1EditorApp@Skel@@QAE@XZ  00444290 f i EditorApp.obj
 0001:00043300       ?Instance@ImGuiFileDialog@@SAPAV1@XZ 00444300 f i EditorApp.obj
 0001:000433d0       ?Memcheck8@StdC@EA@@YAPBXPBXEI@Z 004443d0 f   EAMemory.obj
 0001:00043410       ?Memcheck16@StdC@EA@@YAPBXPBXGI@Z 00444410 f   EAMemory.obj
 0001:00043480       ?Memcheck32@StdC@EA@@YAPBXPBXII@Z 00444480 f   EAMemory.obj
 0001:000434f0       ?Memcheck64@StdC@EA@@YAPBXPBX_KI@Z 004444f0 f   EAMemory.obj
 0001:00043580       ?Vsnprintf@StdC@EA@@YAHPIADIPIBDPAD@Z 00444580 f   EASprintf.obj
 0001:000435d0       ?Vsnprintf@StdC@EA@@YAHPIA_SIPIB_SPAD@Z 004445d0 f   EASprintf.obj
 0001:00043620       ?Vsnprintf@StdC@EA@@YAHPIA_UIPIB_UPAD@Z 00444620 f   EASprintf.obj
 0001:00043670       ?Vsnprintf@StdC@EA@@YAHPIA_WIPIB_WPAD@Z 00444670 f   EASprintf.obj
 0001:000436c0       ?GetDefaultAllocator@eastl@@YAPAVallocator@1@XZ 004446c0 f   allocator_eastl.obj
 0001:000436d0       ?SetDefaultAllocator@eastl@@YAPAVallocator@1@PAV21@@Z 004446d0 f   allocator_eastl.obj
 0001:000436f0       ?SetAssertionFailureFunction@eastl@@YAXP6AXPBDPAX@Z1@Z 004446f0 f   assert.obj
 0001:00043710       ?AssertionFailure@eastl@@YAXPBD@Z 00444710 f   assert.obj
 0001:00043740       ?AssertionFailureFunctionDefault@eastl@@YAXPBDPAX@Z 00444740 f   assert.obj
 0001:00043770       _printf                    00444770 f i assert.obj
 0001:000437d0       ?init@fixed_pool_base@eastl@@QAEXPAXIIII@Z 004447d0 f   fixed_pool.obj
 0001:000438a0       ?GetPrevBucketCountOnly@prime_rehash_policy@eastl@@SAII@Z 004448a0 f   hashtable.obj
 0001:000438d0       ?GetPrevBucketCount@prime_rehash_policy@eastl@@QBEII@Z 004448d0 f   hashtable.obj
 0001:00043960       ?GetNextBucketCount@prime_rehash_policy@eastl@@QBEII@Z 00444960 f   hashtable.obj
 0001:000439f0       ?GetBucketCount@prime_rehash_policy@eastl@@QBEII@Z 004449f0 f   hashtable.obj
 0001:00043ac0       ?GetRehashRequired@prime_rehash_policy@eastl@@QBE?AU?$pair@_NI@2@III@Z 00444ac0 f   hashtable.obj
 0001:00043d40       ??$lower_bound@PBII@eastl@@YAPBIPBI0ABI@Z 00444d40 f i hashtable.obj
 0001:00043db0       ??$upper_bound@PBII@eastl@@YAPBIPBI0ABI@Z 00444db0 f i hashtable.obj
 0001:00043e20       ?reverse@intrusive_list_base@eastl@@QAEXXZ 00444e20 f   intrusive_list.obj
 0001:00043e60       ?validate@intrusive_list_base@eastl@@QBE_NXZ 00444e60 f   intrusive_list.obj
 0001:00043ee0       ?RBTreeIncrement@eastl@@YAPAUrbtree_node_base@1@PBU21@@Z 00444ee0 f   red_black_tree.obj
 0001:00043f50       ?RBTreeDecrement@eastl@@YAPAUrbtree_node_base@1@PBU21@@Z 00444f50 f   red_black_tree.obj
 0001:00043fd0       ?RBTreeGetBlackCount@eastl@@YAIPBUrbtree_node_base@1@0@Z 00444fd0 f   red_black_tree.obj
 0001:00044020       ?RBTreeInsert@eastl@@YAXPAUrbtree_node_base@1@00W4RBTreeSide@1@@Z 00445020 f   red_black_tree.obj
 0001:00044230       ?RBTreeErase@eastl@@YAXPAUrbtree_node_base@1@0@Z 00445230 f   red_black_tree.obj
 0001:00044740       ?RBTreeRotateLeft@eastl@@YAPAUrbtree_node_base@1@PAU21@0@Z 00445740 f   red_black_tree.obj
 0001:000447d0       ?RBTreeRotateRight@eastl@@YAPAUrbtree_node_base@1@PAU21@0@Z 004457d0 f   red_black_tree.obj
 0001:00044860       ?DecodePart@eastl@@YA_NAAPBDPBDAAPADPAD@Z 00445860 f   string.obj
 0001:000448d0       ?DecodePart@eastl@@YA_NAAPBDPBDAAPA_SPA_S@Z 004458d0 f   string.obj
 0001:00044930       ?DecodePart@eastl@@YA_NAAPBDPBDAAPA_UPA_U@Z 00445930 f   string.obj
 0001:00044990       ?DecodePart@eastl@@YA_NAAPB_SPB_SAAPADPAD@Z 00445990 f   string.obj
 0001:00044a20       ?DecodePart@eastl@@YA_NAAPB_SPB_SAAPA_SPA_S@Z 00445a20 f   string.obj
 0001:00044a90       ?DecodePart@eastl@@YA_NAAPB_SPB_SAAPA_UPA_U@Z 00445a90 f   string.obj
 0001:00044b10       ?DecodePart@eastl@@YA_NAAPB_UPB_UAAPADPAD@Z 00445b10 f   string.obj
 0001:00044b90       ?DecodePart@eastl@@YA_NAAPB_UPB_UAAPA_SPA_S@Z 00445b90 f   string.obj
 0001:00044c10       ?DecodePart@eastl@@YA_NAAPB_UPB_UAAPA_UPA_U@Z 00445c10 f   string.obj
 0001:00044c90       ?DecodePart@eastl@@YA_NAAPBHPBHAAPADPAD@Z 00445c90 f   string.obj
 0001:00044d10       ?DecodePart@eastl@@YA_NAAPBHPBHAAPA_SPA_S@Z 00445d10 f   string.obj
 0001:00044d90       ?DecodePart@eastl@@YA_NAAPBHPBHAAPA_UPA_U@Z 00445d90 f   string.obj
 0001:00044e10       ?UCS4ToUTF8@eastl@@YA_NIAAPAD@Z 00445e10 f   string.obj
 0001:00045130       ?UCS2ToUTF8@eastl@@YA_NGAAPAD@Z 00446130 f   string.obj
 0001:00045150       ?UTF8ToUCS4@eastl@@YA_NAAPBDPBDAAI@Z 00446150 f   string.obj
 0001:000454d0       ?UTF8ToUCS2@eastl@@YA_NAAPBDPBDAAG@Z 004464d0 f   string.obj
 0001:00045520       ??0mutex@Internal@eastl@@QAE@XZ 00446520 f   thread_support.obj
 0001:00045560       ??1mutex@Internal@eastl@@QAE@XZ 00446560 f   thread_support.obj
 0001:00045580       ?lock@mutex@Internal@eastl@@QAEXXZ 00446580 f   thread_support.obj
 0001:000455a0       ?unlock@mutex@Internal@eastl@@QAEXXZ 004465a0 f   thread_support.obj
 0001:000455c0       ??0shared_ptr_auto_mutex@Internal@eastl@@QAE@PBX@Z 004465c0 f   thread_support.obj
 0001:00045650       ??1?$late_constructed@Vmutex@Internal@eastl@@$00@eastl@@QAE@XZ 00446650 f i thread_support.obj
 0001:00045690       _glewInit@0                00446690 f   glew.obj
 0001:000456b0       _glewIsSupported@4         004466b0 f   glew.obj
 0001:0004e490       _glewGetExtension@4        0044f490 f   glew.obj
 0001:0004e4c0       _glewGetErrorString@4      0044f4c0 f   glew.obj
 0001:0004e500       _glewGetString@4           0044f500 f   glew.obj
 0001:0004e540       _wglewInit@0               0044f540 f   glew.obj
 0001:0004f3c0       _wglewIsSupported@4        004503c0 f   glew.obj
 0001:0004fef0       _wglewGetExtension@4       00450ef0 f   glew.obj
 0001:0007ec70       _glewCreateContext         0047fc70 f   glewinfo.obj
 0001:0007efc0       _glewParseArgs             0047ffc0 f   glewinfo.obj
 0001:0007f510       _glewDestroyContext        00480510 f   glewinfo.obj
 0001:0007f590       ___local_stdio_scanf_options 00480590 f i glewinfo.obj
 0001:0007f5a0       _sscanf                    004805a0 f i glewinfo.obj
 0001:0007f5f0       _InitContext               004805f0 f   visualinfo.obj
 0001:0007f620       _CreateContext             00480620 f   visualinfo.obj
 0001:0007f7d0       _DestroyContext            004807d0 f   visualinfo.obj
 0001:0007f860       _VisualInfo                00480860 f   visualinfo.obj
 0001:0007f890       _PrintExtensions           00480890 f   visualinfo.obj
 0001:0007fa30       _ParseArgs                 00480a30 f   visualinfo.obj
 0001:0007fcc0       _VisualInfoARB             00480cc0 f   visualinfo.obj
 0001:00080a80       _VisualInfoGDI             00481a80 f   visualinfo.obj
 0001:00081230       ??$?0HH@?$tvec2@M$00@glm@@QAE@HH@Z 00482230 f i glm.obj
 0001:00081260       ??$?0HH@?$tvec2@M$01@glm@@QAE@HH@Z 00482260 f i glm.obj
 0001:00081290       ??$?0HH@?$tvec2@M$0A@@glm@@QAE@HH@Z 00482290 f i glm.obj
 0001:000812c0       ??$?0HH@?$tvec2@N$00@glm@@QAE@HH@Z 004822c0 f i glm.obj
 0001:000812f0       ??$?0HH@?$tvec2@N$01@glm@@QAE@HH@Z 004822f0 f i glm.obj
 0001:00081320       ??$?0HH@?$tvec2@N$0A@@glm@@QAE@HH@Z 00482320 f i glm.obj
 0001:00081350       ??$?0HHH@?$tvec3@M$00@glm@@QAE@HHH@Z 00482350 f i glm.obj
 0001:00081390       ??$?0HHH@?$tvec3@M$01@glm@@QAE@HHH@Z 00482390 f i glm.obj
 0001:000813d0       ??$?0HHH@?$tvec3@M$0A@@glm@@QAE@HHH@Z 004823d0 f i glm.obj
 0001:00081410       ??$?0HHH@?$tvec3@N$00@glm@@QAE@HHH@Z 00482410 f i glm.obj
 0001:00081450       ??$?0HHH@?$tvec3@N$01@glm@@QAE@HHH@Z 00482450 f i glm.obj
 0001:00081490       ??$?0HHH@?$tvec3@N$0A@@glm@@QAE@HHH@Z 00482490 f i glm.obj
 0001:000814d0       ??$?0HHHH@?$tvec4@M$00@glm@@QAE@HHHH@Z 004824d0 f i glm.obj
 0001:00081520       ??$?0HHHH@?$tvec4@M$01@glm@@QAE@HHHH@Z 00482520 f i glm.obj
 0001:00081570       ??$?0HHHH@?$tvec4@N$00@glm@@QAE@HHHH@Z 00482570 f i glm.obj
 0001:000815c0       ??$?0HHHH@?$tvec4@N$01@glm@@QAE@HHHH@Z 004825c0 f i glm.obj
 0001:00081610       ??$?0HHHH@?$tvec4@N$0A@@glm@@QAE@HHHH@Z 00482610 f i glm.obj
 0001:00081660       ??$?0HHHM@?$tvec4@M$00@glm@@QAE@HHHM@Z 00482660 f i glm.obj
 0001:000816b0       ??$?0HHHM@?$tvec4@M$01@glm@@QAE@HHHM@Z 004826b0 f i glm.obj
 0001:00081700       ??$?0HHHN@?$tvec4@N$00@glm@@QAE@HHHN@Z 00482700 f i glm.obj
 0001:00081750       ??$?0HHHN@?$tvec4@N$01@glm@@QAE@HHHN@Z 00482750 f i glm.obj
 0001:000817a0       ??$?0HHHN@?$tvec4@N$0A@@glm@@QAE@HHHN@Z 004827a0 f i glm.obj
 0001:000817f0       ??$?0HHM@?$tvec3@M$00@glm@@QAE@HHM@Z 004827f0 f i glm.obj
 0001:00081830       ??$?0HHM@?$tvec3@M$01@glm@@QAE@HHM@Z 00482830 f i glm.obj
 0001:00081870       ??$?0HHM@?$tvec3@M$0A@@glm@@QAE@HHM@Z 00482870 f i glm.obj
 0001:000818b0       ??$?0HHMH@?$tvec4@M$00@glm@@QAE@HHMH@Z 004828b0 f i glm.obj
 0001:00081900       ??$?0HHMH@?$tvec4@M$01@glm@@QAE@HHMH@Z 00482900 f i glm.obj
 0001:00081950       ??$?0HHN@?$tvec3@N$00@glm@@QAE@HHN@Z 00482950 f i glm.obj
 0001:00081990       ??$?0HHN@?$tvec3@N$01@glm@@QAE@HHN@Z 00482990 f i glm.obj
 0001:000819d0       ??$?0HHN@?$tvec3@N$0A@@glm@@QAE@HHN@Z 004829d0 f i glm.obj
 0001:00081a10       ??$?0HHNH@?$tvec4@N$00@glm@@QAE@HHNH@Z 00482a10 f i glm.obj
 0001:00081a60       ??$?0HHNH@?$tvec4@N$01@glm@@QAE@HHNH@Z 00482a60 f i glm.obj
 0001:00081ab0       ??$?0HHNH@?$tvec4@N$0A@@glm@@QAE@HHNH@Z 00482ab0 f i glm.obj
 0001:00081b00       ??$?0HM@?$tvec2@M$00@glm@@QAE@HM@Z 00482b00 f i glm.obj
 0001:00081b30       ??$?0HM@?$tvec2@M$01@glm@@QAE@HM@Z 00482b30 f i glm.obj
 0001:00081b60       ??$?0HM@?$tvec2@M$0A@@glm@@QAE@HM@Z 00482b60 f i glm.obj
 0001:00081b90       ??$?0HMH@?$tvec3@M$00@glm@@QAE@HMH@Z 00482b90 f i glm.obj
 0001:00081bd0       ??$?0HMH@?$tvec3@M$01@glm@@QAE@HMH@Z 00482bd0 f i glm.obj
 0001:00081c10       ??$?0HMH@?$tvec3@M$0A@@glm@@QAE@HMH@Z 00482c10 f i glm.obj
 0001:00081c50       ??$?0HMHH@?$tvec4@M$00@glm@@QAE@HMHH@Z 00482c50 f i glm.obj
 0001:00081ca0       ??$?0HMHH@?$tvec4@M$01@glm@@QAE@HMHH@Z 00482ca0 f i glm.obj
 0001:00081cf0       ??$?0HN@?$tvec2@N$00@glm@@QAE@HN@Z 00482cf0 f i glm.obj
 0001:00081d20       ??$?0HN@?$tvec2@N$01@glm@@QAE@HN@Z 00482d20 f i glm.obj
 0001:00081d50       ??$?0HN@?$tvec2@N$0A@@glm@@QAE@HN@Z 00482d50 f i glm.obj
 0001:00081d80       ??$?0HNH@?$tvec3@N$00@glm@@QAE@HNH@Z 00482d80 f i glm.obj
 0001:00081dc0       ??$?0HNH@?$tvec3@N$01@glm@@QAE@HNH@Z 00482dc0 f i glm.obj
 0001:00081e00       ??$?0HNH@?$tvec3@N$0A@@glm@@QAE@HNH@Z 00482e00 f i glm.obj
 0001:00081e40       ??$?0HNHH@?$tvec4@N$00@glm@@QAE@HNHH@Z 00482e40 f i glm.obj
 0001:00081e90       ??$?0HNHH@?$tvec4@N$01@glm@@QAE@HNHH@Z 00482e90 f i glm.obj
 0001:00081ee0       ??$?0HNHH@?$tvec4@N$0A@@glm@@QAE@HNHH@Z 00482ee0 f i glm.obj
 0001:00081f30       ??$?0M$00@?$tvec2@M$00@glm@@QAE@ABU?$tvec3@M$00@1@@Z 00482f30 f i glm.obj
 0001:00081f60       ??$?0M$00@?$tvec2@M$00@glm@@QAE@ABU?$tvec4@M$00@1@@Z 00482f60 f i glm.obj
 0001:00081f90       ??$?0M$00@?$tvec3@M$00@glm@@QAE@ABU?$tvec4@M$00@1@@Z 00482f90 f i glm.obj
 0001:00081fd0       ??$?0M$01@?$tvec2@M$01@glm@@QAE@ABU?$tvec3@M$01@1@@Z 00482fd0 f i glm.obj
 0001:00082000       ??$?0M$01@?$tvec2@M$01@glm@@QAE@ABU?$tvec4@M$01@1@@Z 00483000 f i glm.obj
 0001:00082030       ??$?0M$01@?$tvec3@M$01@glm@@QAE@ABU?$tvec4@M$01@1@@Z 00483030 f i glm.obj
 0001:00082070       ??$?0M$0A@@?$tvec2@M$0A@@glm@@QAE@ABU?$tvec3@M$0A@@1@@Z 00483070 f i glm.obj
 0001:000820a0       ??$?0M$0A@@?$tvec2@M$0A@@glm@@QAE@ABU?$tvec4@M$0A@@1@@Z 004830a0 f i glm.obj
 0001:000820d0       ??$?0MH$00@?$tvec3@M$00@glm@@QAE@ABU?$tvec2@M$00@1@H@Z 004830d0 f i glm.obj
 0001:00082110       ??$?0MH$00@?$tvec4@M$00@glm@@QAE@ABU?$tvec3@M$00@1@H@Z 00483110 f i glm.obj
 0001:00082150       ??$?0MH$01@?$tvec3@M$01@glm@@QAE@ABU?$tvec2@M$01@1@H@Z 00483150 f i glm.obj
 0001:00082190       ??$?0MH$01@?$tvec4@M$01@glm@@QAE@ABU?$tvec3@M$01@1@H@Z 00483190 f i glm.obj
 0001:000821d0       ??$?0MH$0A@@?$tvec3@M$0A@@glm@@QAE@ABU?$tvec2@M$0A@@1@H@Z 004831d0 f i glm.obj
 0001:00082210       ??$?0MH@?$tvec2@M$00@glm@@QAE@MH@Z 00483210 f i glm.obj
 0001:00082240       ??$?0MH@?$tvec2@M$01@glm@@QAE@MH@Z 00483240 f i glm.obj
 0001:00082270       ??$?0MH@?$tvec2@M$0A@@glm@@QAE@MH@Z 00483270 f i glm.obj
 0001:000822a0       ??$?0MHH$00@?$tvec4@M$00@glm@@QAE@ABU?$tvec2@M$00@1@HH@Z 004832a0 f i glm.obj
 0001:000822e0       ??$?0MHH$01@?$tvec4@M$01@glm@@QAE@ABU?$tvec2@M$01@1@HH@Z 004832e0 f i glm.obj
 0001:00082320       ??$?0MHH$0A@@?$tvec4@M$0A@@glm@@QAE@ABU?$tvec2@M$0A@@1@HH@Z 00483320 f i glm.obj
 0001:00082360       ??$?0MHH@?$tvec3@M$00@glm@@QAE@MHH@Z 00483360 f i glm.obj
 0001:000823a0       ??$?0MHH@?$tvec3@M$01@glm@@QAE@MHH@Z 004833a0 f i glm.obj
 0001:000823e0       ??$?0MHH@?$tvec3@M$0A@@glm@@QAE@MHH@Z 004833e0 f i glm.obj
 0001:00082420       ??$?0MHHH@?$tvec4@M$00@glm@@QAE@MHHH@Z 00483420 f i glm.obj
 0001:00082470       ??$?0MHHH@?$tvec4@M$01@glm@@QAE@MHHH@Z 00483470 f i glm.obj
 0001:000824c0       ??$?0N$00@?$tvec2@N$00@glm@@QAE@ABU?$tvec3@N$00@1@@Z 004834c0 f i glm.obj
 0001:000824f0       ??$?0N$00@?$tvec2@N$00@glm@@QAE@ABU?$tvec4@N$00@1@@Z 004834f0 f i glm.obj
 0001:00082520       ??$?0N$00@?$tvec3@N$00@glm@@QAE@ABU?$tvec4@N$00@1@@Z 00483520 f i glm.obj
 0001:00082560       ??$?0N$01@?$tvec2@N$01@glm@@QAE@ABU?$tvec3@N$01@1@@Z 00483560 f i glm.obj
 0001:00082590       ??$?0N$01@?$tvec2@N$01@glm@@QAE@ABU?$tvec4@N$01@1@@Z 00483590 f i glm.obj
 0001:000825c0       ??$?0N$01@?$tvec3@N$01@glm@@QAE@ABU?$tvec4@N$01@1@@Z 004835c0 f i glm.obj
 0001:00082600       ??$?0N$0A@@?$tvec2@N$0A@@glm@@QAE@ABU?$tvec3@N$0A@@1@@Z 00483600 f i glm.obj
 0001:00082630       ??$?0N$0A@@?$tvec2@N$0A@@glm@@QAE@ABU?$tvec4@N$0A@@1@@Z 00483630 f i glm.obj
 0001:00082660       ??$?0N$0A@@?$tvec3@N$0A@@glm@@QAE@ABU?$tvec4@N$0A@@1@@Z 00483660 f i glm.obj
 0001:000826a0       ??$?0NH$00@?$tvec3@N$00@glm@@QAE@ABU?$tvec2@N$00@1@H@Z 004836a0 f i glm.obj
 0001:000826e0       ??$?0NH$00@?$tvec4@N$00@glm@@QAE@ABU?$tvec3@N$00@1@H@Z 004836e0 f i glm.obj
 0001:00082730       ??$?0NH$01@?$tvec3@N$01@glm@@QAE@ABU?$tvec2@N$01@1@H@Z 00483730 f i glm.obj
 0001:00082770       ??$?0NH$01@?$tvec4@N$01@glm@@QAE@ABU?$tvec3@N$01@1@H@Z 00483770 f i glm.obj
 0001:000827c0       ??$?0NH$0A@@?$tvec3@N$0A@@glm@@QAE@ABU?$tvec2@N$0A@@1@H@Z 004837c0 f i glm.obj
 0001:00082800       ??$?0NH$0A@@?$tvec4@N$0A@@glm@@QAE@ABU?$tvec3@N$0A@@1@H@Z 00483800 f i glm.obj
 0001:00082850       ??$?0NH@?$tvec2@N$00@glm@@QAE@NH@Z 00483850 f i glm.obj
 0001:00082880       ??$?0NH@?$tvec2@N$01@glm@@QAE@NH@Z 00483880 f i glm.obj
 0001:000828b0       ??$?0NH@?$tvec2@N$0A@@glm@@QAE@NH@Z 004838b0 f i glm.obj
 0001:000828e0       ??$?0NHH$00@?$tvec4@N$00@glm@@QAE@ABU?$tvec2@N$00@1@HH@Z 004838e0 f i glm.obj
 0001:00082930       ??$?0NHH$01@?$tvec4@N$01@glm@@QAE@ABU?$tvec2@N$01@1@HH@Z 00483930 f i glm.obj
 0001:00082980       ??$?0NHH$0A@@?$tvec4@N$0A@@glm@@QAE@ABU?$tvec2@N$0A@@1@HH@Z 00483980 f i glm.obj
 0001:000829d0       ??$?0NHH@?$tvec3@N$00@glm@@QAE@NHH@Z 004839d0 f i glm.obj
 0001:00082a10       ??$?0NHH@?$tvec3@N$01@glm@@QAE@NHH@Z 00483a10 f i glm.obj
 0001:00082a50       ??$?0NHH@?$tvec3@N$0A@@glm@@QAE@NHH@Z 00483a50 f i glm.obj
 0001:00082a90       ??$?0NHHH@?$tvec4@N$00@glm@@QAE@NHHH@Z 00483a90 f i glm.obj
 0001:00082ae0       ??$?0NHHH@?$tvec4@N$01@glm@@QAE@NHHH@Z 00483ae0 f i glm.obj
 0001:00082b30       ??$?0NHHH@?$tvec4@N$0A@@glm@@QAE@NHHH@Z 00483b30 f i glm.obj
 0001:00082b80       ??$?DM$00@glm@@YA?AU?$tvec3@M$00@0@ABU10@0@Z 00483b80 f i glm.obj
 0001:00082bf0       ??$?DM$01@glm@@YA?AU?$tvec3@M$01@0@ABU10@0@Z 00483bf0 f i glm.obj
 0001:00082c60       ??$?DN$00@glm@@YA?AU?$tvec3@N$00@0@ABU10@0@Z 00483c60 f i glm.obj
 0001:00082cd0       ??$?DN$01@glm@@YA?AU?$tvec3@N$01@0@ABU10@0@Z 00483cd0 f i glm.obj
 0001:00082d40       ??$?DN$0A@@glm@@YA?AU?$tvec3@N$0A@@0@ABU10@0@Z 00483d40 f i glm.obj
 0001:00082db0       ??$dualquat_cast@M$00@glm@@YA?AU?$tdualquat@M$00@0@ABU?$tmat2x4@M$00@0@@Z 00483db0 f i glm.obj
 0001:00082fb0       ??$dualquat_cast@M$00@glm@@YA?AU?$tdualquat@M$00@0@ABU?$tmat3x4@M$00@0@@Z 00483fb0 f i glm.obj
 0001:00083c70       ??$dualquat_cast@M$01@glm@@YA?AU?$tdualquat@M$01@0@ABU?$tmat2x4@M$01@0@@Z 00484c70 f i glm.obj
 0001:00083e60       ??$dualquat_cast@M$01@glm@@YA?AU?$tdualquat@M$01@0@ABU?$tmat3x4@M$01@0@@Z 00484e60 f i glm.obj
 0001:00084b20       ??$dualquat_cast@M$0A@@glm@@YA?AU?$tdualquat@M$0A@@0@ABU?$tmat2x4@M$0A@@0@@Z 00485b20 f i glm.obj
 0001:00084d10       ??$dualquat_cast@M$0A@@glm@@YA?AU?$tdualquat@M$0A@@0@ABU?$tmat3x4@M$0A@@0@@Z 00485d10 f i glm.obj
 0001:000859d0       ??$dualquat_cast@N$00@glm@@YA?AU?$tdualquat@N$00@0@ABU?$tmat2x4@N$00@0@@Z 004869d0 f i glm.obj
 0001:00085bb0       ??$dualquat_cast@N$00@glm@@YA?AU?$tdualquat@N$00@0@ABU?$tmat3x4@N$00@0@@Z 00486bb0 f i glm.obj
 0001:00086850       ??$dualquat_cast@N$01@glm@@YA?AU?$tdualquat@N$01@0@ABU?$tmat2x4@N$01@0@@Z 00487850 f i glm.obj
 0001:00086a30       ??$dualquat_cast@N$01@glm@@YA?AU?$tdualquat@N$01@0@ABU?$tmat3x4@N$01@0@@Z 00487a30 f i glm.obj
 0001:000876d0       ??$dualquat_cast@N$0A@@glm@@YA?AU?$tdualquat@N$0A@@0@ABU?$tmat2x4@N$0A@@0@@Z 004886d0 f i glm.obj
 0001:000878c0       ??$dualquat_cast@N$0A@@glm@@YA?AU?$tdualquat@N$0A@@0@ABU?$tmat3x4@N$0A@@0@@Z 004888c0 f i glm.obj
 0001:00088560       ??$mat3_cast@M$00@glm@@YA?AU?$tmat3x3@M$00@0@ABU?$tquat@M$00@0@@Z 00489560 f i glm.obj
 0001:00088a90       ??$mat3_cast@M$01@glm@@YA?AU?$tmat3x3@M$01@0@ABU?$tquat@M$01@0@@Z 00489a90 f i glm.obj
 0001:00088fc0       ??$mat3_cast@M$0A@@glm@@YA?AU?$tmat3x3@M$0A@@0@ABU?$tquat@M$0A@@0@@Z 00489fc0 f i glm.obj
 0001:000894f0       ??$mat3_cast@N$00@glm@@YA?AU?$tmat3x3@N$00@0@ABU?$tquat@N$00@0@@Z 0048a4f0 f i glm.obj
 0001:00089a40       ??$mat3_cast@N$01@glm@@YA?AU?$tmat3x3@N$01@0@ABU?$tquat@N$01@0@@Z 0048aa40 f i glm.obj
 0001:00089f90       ??$mat3_cast@N$0A@@glm@@YA?AU?$tmat3x3@N$0A@@0@ABU?$tquat@N$0A@@0@@Z 0048af90 f i glm.obj
 0001:0008a4e0       ??$normalize@M$00@glm@@YA?AU?$tquat@M$00@0@ABU10@@Z 0048b4e0 f i glm.obj
 0001:0008a610       ??$normalize@M$01@glm@@YA?AU?$tquat@M$01@0@ABU10@@Z 0048b610 f i glm.obj
 0001:0008a740       ??$normalize@M$0A@@glm@@YA?AU?$tquat@M$0A@@0@ABU10@@Z 0048b740 f i glm.obj
 0001:0008a870       ??$normalize@N$00@glm@@YA?AU?$tquat@N$00@0@ABU10@@Z 0048b870 f i glm.obj
 0001:0008a990       ??$normalize@N$01@glm@@YA?AU?$tquat@N$01@0@ABU10@@Z 0048b990 f i glm.obj
 0001:0008aab0       ??$normalize@N$0A@@glm@@YA?AU?$tquat@N$0A@@0@ABU10@@Z 0048bab0 f i glm.obj
 0001:0008abd0       ??$quat_cast@M$00@glm@@YA?AU?$tquat@M$00@0@ABU?$tmat3x3@M$00@0@@Z 0048bbd0 f i glm.obj
 0001:0008bb10       ??$quat_cast@M$01@glm@@YA?AU?$tquat@M$01@0@ABU?$tmat3x3@M$01@0@@Z 0048cb10 f i glm.obj
 0001:0008ca50       ??$quat_cast@M$0A@@glm@@YA?AU?$tquat@M$0A@@0@ABU?$tmat3x3@M$0A@@0@@Z 0048da50 f i glm.obj
 0001:0008d990       ??$quat_cast@N$00@glm@@YA?AU?$tquat@N$00@0@ABU?$tmat3x3@N$00@0@@Z 0048e990 f i glm.obj
 0001:0008e8c0       ??$quat_cast@N$01@glm@@YA?AU?$tquat@N$01@0@ABU?$tmat3x3@N$01@0@@Z 0048f8c0 f i glm.obj
 0001:0008f7f0       ??$quat_cast@N$0A@@glm@@YA?AU?$tquat@N$0A@@0@ABU?$tmat3x3@N$0A@@0@@Z 004907f0 f i glm.obj
 0001:00090720       ??0?$tdualquat@M$00@glm@@QAE@ABU?$tmat2x4@M$00@1@@Z 00491720 f i glm.obj
 0001:000907d0       ??0?$tdualquat@M$00@glm@@QAE@ABU?$tmat3x4@M$00@1@@Z 004917d0 f i glm.obj
 0001:00090880       ??0?$tdualquat@M$00@glm@@QAE@ABU?$tquat@M$00@1@0@Z 00491880 f i glm.obj
 0001:000908d0       ??0?$tdualquat@M$00@glm@@QAE@ABU?$tquat@M$00@1@@Z 004918d0 f i glm.obj
 0001:00090960       ??0?$tdualquat@M$00@glm@@QAE@ABU?$tquat@M$00@1@ABU?$tvec3@M$00@1@@Z 00491960 f i glm.obj
 0001:00090ae0       ??0?$tdualquat@M$00@glm@@QAE@W4ctor@1@@Z 00491ae0 f i glm.obj
 0001:00090b70       ??0?$tdualquat@M$00@glm@@QAE@XZ 00491b70 f i glm.obj
 0001:00090c20       ??0?$tdualquat@M$01@glm@@QAE@ABU?$tmat2x4@M$01@1@@Z 00491c20 f i glm.obj
 0001:00090cd0       ??0?$tdualquat@M$01@glm@@QAE@ABU?$tmat3x4@M$01@1@@Z 00491cd0 f i glm.obj
 0001:00090d80       ??0?$tdualquat@M$01@glm@@QAE@ABU?$tquat@M$01@1@0@Z 00491d80 f i glm.obj
 0001:00090dd0       ??0?$tdualquat@M$01@glm@@QAE@ABU?$tquat@M$01@1@@Z 00491dd0 f i glm.obj
 0001:00090e60       ??0?$tdualquat@M$01@glm@@QAE@ABU?$tquat@M$01@1@ABU?$tvec3@M$01@1@@Z 00491e60 f i glm.obj
 0001:00090fe0       ??0?$tdualquat@M$01@glm@@QAE@W4ctor@1@@Z 00491fe0 f i glm.obj
 0001:00091070       ??0?$tdualquat@M$01@glm@@QAE@XZ 00492070 f i glm.obj
 0001:00091120       ??0?$tdualquat@M$0A@@glm@@QAE@ABU?$tmat2x4@M$0A@@1@@Z 00492120 f i glm.obj
 0001:000911d0       ??0?$tdualquat@M$0A@@glm@@QAE@ABU?$tmat3x4@M$0A@@1@@Z 004921d0 f i glm.obj
 0001:00091280       ??0?$tdualquat@M$0A@@glm@@QAE@ABU?$tquat@M$0A@@1@0@Z 00492280 f i glm.obj
 0001:000912d0       ??0?$tdualquat@M$0A@@glm@@QAE@ABU?$tquat@M$0A@@1@@Z 004922d0 f i glm.obj
 0001:00091360       ??0?$tdualquat@M$0A@@glm@@QAE@ABU?$tquat@M$0A@@1@ABU?$tvec3@M$0A@@1@@Z 00492360 f i glm.obj
 0001:000914e0       ??0?$tdualquat@M$0A@@glm@@QAE@W4ctor@1@@Z 004924e0 f i glm.obj
 0001:00091570       ??0?$tdualquat@M$0A@@glm@@QAE@XZ 00492570 f i glm.obj
 0001:00091620       ??0?$tdualquat@N$00@glm@@QAE@ABU?$tmat2x4@N$00@1@@Z 00492620 f i glm.obj
 0001:000916d0       ??0?$tdualquat@N$00@glm@@QAE@ABU?$tmat3x4@N$00@1@@Z 004926d0 f i glm.obj
 0001:00091780       ??0?$tdualquat@N$00@glm@@QAE@ABU?$tquat@N$00@1@0@Z 00492780 f i glm.obj
 0001:000917c0       ??0?$tdualquat@N$00@glm@@QAE@ABU?$tquat@N$00@1@@Z 004927c0 f i glm.obj
 0001:00091840       ??0?$tdualquat@N$00@glm@@QAE@ABU?$tquat@N$00@1@ABU?$tvec3@N$00@1@@Z 00492840 f i glm.obj
 0001:000919c0       ??0?$tdualquat@N$00@glm@@QAE@W4ctor@1@@Z 004929c0 f i glm.obj
 0001:00091a50       ??0?$tdualquat@N$00@glm@@QAE@XZ 00492a50 f i glm.obj
 0001:00091b00       ??0?$tdualquat@N$01@glm@@QAE@ABU?$tmat2x4@N$01@1@@Z 00492b00 f i glm.obj
 0001:00091bb0       ??0?$tdualquat@N$01@glm@@QAE@ABU?$tmat3x4@N$01@1@@Z 00492bb0 f i glm.obj
 0001:00091c60       ??0?$tdualquat@N$01@glm@@QAE@ABU?$tquat@N$01@1@0@Z 00492c60 f i glm.obj
 0001:00091ca0       ??0?$tdualquat@N$01@glm@@QAE@ABU?$tquat@N$01@1@@Z 00492ca0 f i glm.obj
 0001:00091d20       ??0?$tdualquat@N$01@glm@@QAE@ABU?$tquat@N$01@1@ABU?$tvec3@N$01@1@@Z 00492d20 f i glm.obj
 0001:00091ea0       ??0?$tdualquat@N$01@glm@@QAE@W4ctor@1@@Z 00492ea0 f i glm.obj
 0001:00091f30       ??0?$tdualquat@N$01@glm@@QAE@XZ 00492f30 f i glm.obj
 0001:00091fe0       ??0?$tdualquat@N$0A@@glm@@QAE@ABU?$tmat2x4@N$0A@@1@@Z 00492fe0 f i glm.obj
 0001:00092090       ??0?$tdualquat@N$0A@@glm@@QAE@ABU?$tmat3x4@N$0A@@1@@Z 00493090 f i glm.obj
 0001:00092140       ??0?$tdualquat@N$0A@@glm@@QAE@ABU?$tquat@N$0A@@1@0@Z 00493140 f i glm.obj
 0001:00092180       ??0?$tdualquat@N$0A@@glm@@QAE@ABU?$tquat@N$0A@@1@@Z 00493180 f i glm.obj
 0001:00092200       ??0?$tdualquat@N$0A@@glm@@QAE@ABU?$tquat@N$0A@@1@ABU?$tvec3@N$0A@@1@@Z 00493200 f i glm.obj
 0001:00092380       ??0?$tdualquat@N$0A@@glm@@QAE@W4ctor@1@@Z 00493380 f i glm.obj
 0001:00092410       ??0?$tdualquat@N$0A@@glm@@QAE@XZ 00493410 f i glm.obj
 0001:000924c0       ??0?$tmat2x2@M$00@glm@@QAE@ABM000@Z 004934c0 f i glm.obj
 0001:000925a0       ??0?$tmat2x2@M$00@glm@@QAE@ABU?$tmat2x3@M$00@1@@Z 004935a0 f i glm.obj
 0001:00092690       ??0?$tmat2x2@M$00@glm@@QAE@ABU?$tmat2x4@M$00@1@@Z 00493690 f i glm.obj
 0001:00092780       ??0?$tmat2x2@M$00@glm@@QAE@ABU?$tmat3x2@M$00@1@@Z 00493780 f i glm.obj
 0001:00092860       ??0?$tmat2x2@M$00@glm@@QAE@ABU?$tmat3x3@M$00@1@@Z 00493860 f i glm.obj
 0001:00092950       ??0?$tmat2x2@M$00@glm@@QAE@ABU?$tmat3x4@M$00@1@@Z 00493950 f i glm.obj
 0001:00092a40       ??0?$tmat2x2@M$00@glm@@QAE@ABU?$tmat4x2@M$00@1@@Z 00493a40 f i glm.obj
 0001:00092b20       ??0?$tmat2x2@M$00@glm@@QAE@ABU?$tmat4x3@M$00@1@@Z 00493b20 f i glm.obj
 0001:00092c10       ??0?$tmat2x2@M$00@glm@@QAE@ABU?$tmat4x4@M$00@1@@Z 00493c10 f i glm.obj
 0001:00092d00       ??0?$tmat2x2@M$00@glm@@QAE@ABU?$tvec2@M$00@1@0@Z 00493d00 f i glm.obj
 0001:00092d90       ??0?$tmat2x2@M$00@glm@@QAE@M@Z 00493d90 f i glm.obj
 0001:00092e40       ??0?$tmat2x2@M$00@glm@@QAE@W4ctor@1@@Z 00493e40 f i glm.obj
 0001:00092ea0       ??0?$tmat2x2@M$00@glm@@QAE@XZ 00493ea0 f i glm.obj
 0001:00092f40       ??0?$tmat2x2@M$01@glm@@QAE@ABM000@Z 00493f40 f i glm.obj
 0001:00093020       ??0?$tmat2x2@M$01@glm@@QAE@ABU?$tmat2x3@M$01@1@@Z 00494020 f i glm.obj
 0001:00093110       ??0?$tmat2x2@M$01@glm@@QAE@ABU?$tmat2x4@M$01@1@@Z 00494110 f i glm.obj
 0001:00093200       ??0?$tmat2x2@M$01@glm@@QAE@ABU?$tmat3x2@M$01@1@@Z 00494200 f i glm.obj
 0001:000932e0       ??0?$tmat2x2@M$01@glm@@QAE@ABU?$tmat3x3@M$01@1@@Z 004942e0 f i glm.obj
 0001:000933d0       ??0?$tmat2x2@M$01@glm@@QAE@ABU?$tmat3x4@M$01@1@@Z 004943d0 f i glm.obj
 0001:000934c0       ??0?$tmat2x2@M$01@glm@@QAE@ABU?$tmat4x2@M$01@1@@Z 004944c0 f i glm.obj
 0001:000935a0       ??0?$tmat2x2@M$01@glm@@QAE@ABU?$tmat4x3@M$01@1@@Z 004945a0 f i glm.obj
 0001:00093690       ??0?$tmat2x2@M$01@glm@@QAE@ABU?$tmat4x4@M$01@1@@Z 00494690 f i glm.obj
 0001:00093780       ??0?$tmat2x2@M$01@glm@@QAE@ABU?$tvec2@M$01@1@0@Z 00494780 f i glm.obj
 0001:00093810       ??0?$tmat2x2@M$01@glm@@QAE@M@Z 00494810 f i glm.obj
 0001:000938c0       ??0?$tmat2x2@M$01@glm@@QAE@W4ctor@1@@Z 004948c0 f i glm.obj
 0001:00093920       ??0?$tmat2x2@M$01@glm@@QAE@XZ 00494920 f i glm.obj
 0001:000939c0       ??0?$tmat2x2@M$0A@@glm@@QAE@ABM000@Z 004949c0 f i glm.obj
 0001:00093aa0       ??0?$tmat2x2@M$0A@@glm@@QAE@ABU?$tmat2x3@M$0A@@1@@Z 00494aa0 f i glm.obj
 0001:00093b90       ??0?$tmat2x2@M$0A@@glm@@QAE@ABU?$tmat2x4@M$0A@@1@@Z 00494b90 f i glm.obj
 0001:00093c80       ??0?$tmat2x2@M$0A@@glm@@QAE@ABU?$tmat3x2@M$0A@@1@@Z 00494c80 f i glm.obj
 0001:00093d60       ??0?$tmat2x2@M$0A@@glm@@QAE@ABU?$tmat3x3@M$0A@@1@@Z 00494d60 f i glm.obj
 0001:00093e50       ??0?$tmat2x2@M$0A@@glm@@QAE@ABU?$tmat3x4@M$0A@@1@@Z 00494e50 f i glm.obj
 0001:00093f40       ??0?$tmat2x2@M$0A@@glm@@QAE@ABU?$tmat4x2@M$0A@@1@@Z 00494f40 f i glm.obj
 0001:00094020       ??0?$tmat2x2@M$0A@@glm@@QAE@ABU?$tmat4x3@M$0A@@1@@Z 00495020 f i glm.obj
 0001:00094110       ??0?$tmat2x2@M$0A@@glm@@QAE@ABU?$tmat4x4@M$0A@@1@@Z 00495110 f i glm.obj
 0001:00094200       ??0?$tmat2x2@M$0A@@glm@@QAE@ABU?$tvec2@M$0A@@1@0@Z 00495200 f i glm.obj
 0001:00094290       ??0?$tmat2x2@M$0A@@glm@@QAE@M@Z 00495290 f i glm.obj
 0001:00094340       ??0?$tmat2x2@M$0A@@glm@@QAE@W4ctor@1@@Z 00495340 f i glm.obj
 0001:000943a0       ??0?$tmat2x2@M$0A@@glm@@QAE@XZ 004953a0 f i glm.obj
 0001:00094440       ??0?$tmat2x2@N$00@glm@@QAE@ABN000@Z 00495440 f i glm.obj
 0001:00094530       ??0?$tmat2x2@N$00@glm@@QAE@ABU?$tmat2x3@N$00@1@@Z 00495530 f i glm.obj
 0001:00094630       ??0?$tmat2x2@N$00@glm@@QAE@ABU?$tmat2x4@N$00@1@@Z 00495630 f i glm.obj
 0001:00094730       ??0?$tmat2x2@N$00@glm@@QAE@ABU?$tmat3x2@N$00@1@@Z 00495730 f i glm.obj
 0001:00094820       ??0?$tmat2x2@N$00@glm@@QAE@ABU?$tmat3x3@N$00@1@@Z 00495820 f i glm.obj
 0001:00094920       ??0?$tmat2x2@N$00@glm@@QAE@ABU?$tmat3x4@N$00@1@@Z 00495920 f i glm.obj
 0001:00094a20       ??0?$tmat2x2@N$00@glm@@QAE@ABU?$tmat4x2@N$00@1@@Z 00495a20 f i glm.obj
 0001:00094b10       ??0?$tmat2x2@N$00@glm@@QAE@ABU?$tmat4x3@N$00@1@@Z 00495b10 f i glm.obj
 0001:00094c10       ??0?$tmat2x2@N$00@glm@@QAE@ABU?$tmat4x4@N$00@1@@Z 00495c10 f i glm.obj
 0001:00094d10       ??0?$tmat2x2@N$00@glm@@QAE@ABU?$tvec2@N$00@1@0@Z 00495d10 f i glm.obj
 0001:00094db0       ??0?$tmat2x2@N$00@glm@@QAE@N@Z 00495db0 f i glm.obj
 0001:00094e80       ??0?$tmat2x2@N$00@glm@@QAE@W4ctor@1@@Z 00495e80 f i glm.obj
 0001:00094ee0       ??0?$tmat2x2@N$00@glm@@QAE@XZ 00495ee0 f i glm.obj
 0001:00094f90       ??0?$tmat2x2@N$01@glm@@QAE@ABN000@Z 00495f90 f i glm.obj
 0001:00095080       ??0?$tmat2x2@N$01@glm@@QAE@ABU?$tmat2x3@N$01@1@@Z 00496080 f i glm.obj
 0001:00095180       ??0?$tmat2x2@N$01@glm@@QAE@ABU?$tmat2x4@N$01@1@@Z 00496180 f i glm.obj
 0001:00095280       ??0?$tmat2x2@N$01@glm@@QAE@ABU?$tmat3x2@N$01@1@@Z 00496280 f i glm.obj
 0001:00095370       ??0?$tmat2x2@N$01@glm@@QAE@ABU?$tmat3x3@N$01@1@@Z 00496370 f i glm.obj
 0001:00095470       ??0?$tmat2x2@N$01@glm@@QAE@ABU?$tmat3x4@N$01@1@@Z 00496470 f i glm.obj
 0001:00095570       ??0?$tmat2x2@N$01@glm@@QAE@ABU?$tmat4x2@N$01@1@@Z 00496570 f i glm.obj
 0001:00095660       ??0?$tmat2x2@N$01@glm@@QAE@ABU?$tmat4x3@N$01@1@@Z 00496660 f i glm.obj
 0001:00095760       ??0?$tmat2x2@N$01@glm@@QAE@ABU?$tmat4x4@N$01@1@@Z 00496760 f i glm.obj
 0001:00095860       ??0?$tmat2x2@N$01@glm@@QAE@ABU?$tvec2@N$01@1@0@Z 00496860 f i glm.obj
 0001:00095900       ??0?$tmat2x2@N$01@glm@@QAE@N@Z 00496900 f i glm.obj
 0001:000959d0       ??0?$tmat2x2@N$01@glm@@QAE@W4ctor@1@@Z 004969d0 f i glm.obj
 0001:00095a30       ??0?$tmat2x2@N$01@glm@@QAE@XZ 00496a30 f i glm.obj
 0001:00095ae0       ??0?$tmat2x2@N$0A@@glm@@QAE@ABN000@Z 00496ae0 f i glm.obj
 0001:00095bd0       ??0?$tmat2x2@N$0A@@glm@@QAE@ABU?$tmat2x3@N$0A@@1@@Z 00496bd0 f i glm.obj
 0001:00095cd0       ??0?$tmat2x2@N$0A@@glm@@QAE@ABU?$tmat2x4@N$0A@@1@@Z 00496cd0 f i glm.obj
 0001:00095dd0       ??0?$tmat2x2@N$0A@@glm@@QAE@ABU?$tmat3x2@N$0A@@1@@Z 00496dd0 f i glm.obj
 0001:00095ec0       ??0?$tmat2x2@N$0A@@glm@@QAE@ABU?$tmat3x3@N$0A@@1@@Z 00496ec0 f i glm.obj
 0001:00095fc0       ??0?$tmat2x2@N$0A@@glm@@QAE@ABU?$tmat3x4@N$0A@@1@@Z 00496fc0 f i glm.obj
 0001:000960c0       ??0?$tmat2x2@N$0A@@glm@@QAE@ABU?$tmat4x2@N$0A@@1@@Z 004970c0 f i glm.obj
 0001:000961b0       ??0?$tmat2x2@N$0A@@glm@@QAE@ABU?$tmat4x3@N$0A@@1@@Z 004971b0 f i glm.obj
 0001:000962b0       ??0?$tmat2x2@N$0A@@glm@@QAE@ABU?$tmat4x4@N$0A@@1@@Z 004972b0 f i glm.obj
 0001:000963b0       ??0?$tmat2x2@N$0A@@glm@@QAE@ABU?$tvec2@N$0A@@1@0@Z 004973b0 f i glm.obj
 0001:00096450       ??0?$tmat2x2@N$0A@@glm@@QAE@N@Z 00497450 f i glm.obj
 0001:00096520       ??0?$tmat2x2@N$0A@@glm@@QAE@W4ctor@1@@Z 00497520 f i glm.obj
 0001:00096580       ??0?$tmat2x2@N$0A@@glm@@QAE@XZ 00497580 f i glm.obj
 0001:00096630       ??0?$tmat2x3@M$00@glm@@QAE@ABU?$tmat2x2@M$00@1@@Z 00497630 f i glm.obj
 0001:00096730       ??0?$tmat2x3@M$00@glm@@QAE@ABU?$tmat2x4@M$00@1@@Z 00497730 f i glm.obj
 0001:00096830       ??0?$tmat2x3@M$00@glm@@QAE@ABU?$tmat3x2@M$00@1@@Z 00497830 f i glm.obj
 0001:00096930       ??0?$tmat2x3@M$00@glm@@QAE@ABU?$tmat3x3@M$00@1@@Z 00497930 f i glm.obj
 0001:00096a40       ??0?$tmat2x3@M$00@glm@@QAE@ABU?$tmat3x4@M$00@1@@Z 00497a40 f i glm.obj
 0001:00096b40       ??0?$tmat2x3@M$00@glm@@QAE@ABU?$tmat4x2@M$00@1@@Z 00497b40 f i glm.obj
 0001:00096c40       ??0?$tmat2x3@M$00@glm@@QAE@ABU?$tmat4x3@M$00@1@@Z 00497c40 f i glm.obj
 0001:00096d30       ??0?$tmat2x3@M$00@glm@@QAE@ABU?$tmat4x4@M$00@1@@Z 00497d30 f i glm.obj
 0001:00096e30       ??0?$tmat2x3@M$00@glm@@QAE@ABU?$tvec3@M$00@1@0@Z 00497e30 f i glm.obj
 0001:00096ed0       ??0?$tmat2x3@M$00@glm@@QAE@M@Z 00497ed0 f i glm.obj
 0001:00096fa0       ??0?$tmat2x3@M$00@glm@@QAE@MMMMMM@Z 00497fa0 f i glm.obj
 0001:00097080       ??0?$tmat2x3@M$00@glm@@QAE@W4ctor@1@@Z 00498080 f i glm.obj
 0001:000970e0       ??0?$tmat2x3@M$00@glm@@QAE@XZ 004980e0 f i glm.obj
 0001:00097190       ??0?$tmat2x3@M$01@glm@@QAE@ABU?$tmat2x2@M$01@1@@Z 00498190 f i glm.obj
 0001:00097290       ??0?$tmat2x3@M$01@glm@@QAE@ABU?$tmat2x4@M$01@1@@Z 00498290 f i glm.obj
 0001:00097390       ??0?$tmat2x3@M$01@glm@@QAE@ABU?$tmat3x2@M$01@1@@Z 00498390 f i glm.obj
 0001:00097490       ??0?$tmat2x3@M$01@glm@@QAE@ABU?$tmat3x3@M$01@1@@Z 00498490 f i glm.obj
 0001:000975a0       ??0?$tmat2x3@M$01@glm@@QAE@ABU?$tmat3x4@M$01@1@@Z 004985a0 f i glm.obj
 0001:000976a0       ??0?$tmat2x3@M$01@glm@@QAE@ABU?$tmat4x2@M$01@1@@Z 004986a0 f i glm.obj
 0001:000977a0       ??0?$tmat2x3@M$01@glm@@QAE@ABU?$tmat4x3@M$01@1@@Z 004987a0 f i glm.obj
 0001:00097890       ??0?$tmat2x3@M$01@glm@@QAE@ABU?$tmat4x4@M$01@1@@Z 00498890 f i glm.obj
 0001:00097990       ??0?$tmat2x3@M$01@glm@@QAE@ABU?$tvec3@M$01@1@0@Z 00498990 f i glm.obj
 0001:00097a30       ??0?$tmat2x3@M$01@glm@@QAE@M@Z 00498a30 f i glm.obj
 0001:00097b00       ??0?$tmat2x3@M$01@glm@@QAE@MMMMMM@Z 00498b00 f i glm.obj
 0001:00097be0       ??0?$tmat2x3@M$01@glm@@QAE@W4ctor@1@@Z 00498be0 f i glm.obj
 0001:00097c40       ??0?$tmat2x3@M$01@glm@@QAE@XZ 00498c40 f i glm.obj
 0001:00097cf0       ??0?$tmat2x3@M$0A@@glm@@QAE@ABU?$tmat2x2@M$0A@@1@@Z 00498cf0 f i glm.obj
 0001:00097df0       ??0?$tmat2x3@M$0A@@glm@@QAE@ABU?$tmat2x4@M$0A@@1@@Z 00498df0 f i glm.obj
 0001:00097ef0       ??0?$tmat2x3@M$0A@@glm@@QAE@ABU?$tmat3x2@M$0A@@1@@Z 00498ef0 f i glm.obj
 0001:00097ff0       ??0?$tmat2x3@M$0A@@glm@@QAE@ABU?$tmat3x3@M$0A@@1@@Z 00498ff0 f i glm.obj
 0001:00098100       ??0?$tmat2x3@M$0A@@glm@@QAE@ABU?$tmat3x4@M$0A@@1@@Z 00499100 f i glm.obj
 0001:00098200       ??0?$tmat2x3@M$0A@@glm@@QAE@ABU?$tmat4x2@M$0A@@1@@Z 00499200 f i glm.obj
 0001:00098300       ??0?$tmat2x3@M$0A@@glm@@QAE@ABU?$tmat4x3@M$0A@@1@@Z 00499300 f i glm.obj
 0001:000983f0       ??0?$tmat2x3@M$0A@@glm@@QAE@ABU?$tmat4x4@M$0A@@1@@Z 004993f0 f i glm.obj
 0001:000984f0       ??0?$tmat2x3@M$0A@@glm@@QAE@ABU?$tvec3@M$0A@@1@0@Z 004994f0 f i glm.obj
 0001:00098590       ??0?$tmat2x3@M$0A@@glm@@QAE@M@Z 00499590 f i glm.obj
 0001:00098660       ??0?$tmat2x3@M$0A@@glm@@QAE@MMMMMM@Z 00499660 f i glm.obj
 0001:00098740       ??0?$tmat2x3@M$0A@@glm@@QAE@W4ctor@1@@Z 00499740 f i glm.obj
 0001:000987a0       ??0?$tmat2x3@M$0A@@glm@@QAE@XZ 004997a0 f i glm.obj
 0001:00098850       ??0?$tmat2x3@N$00@glm@@QAE@ABU?$tmat2x2@N$00@1@@Z 00499850 f i glm.obj
 0001:00098980       ??0?$tmat2x3@N$00@glm@@QAE@ABU?$tmat2x4@N$00@1@@Z 00499980 f i glm.obj
 0001:00098aa0       ??0?$tmat2x3@N$00@glm@@QAE@ABU?$tmat3x2@N$00@1@@Z 00499aa0 f i glm.obj
 0001:00098bd0       ??0?$tmat2x3@N$00@glm@@QAE@ABU?$tmat3x3@N$00@1@@Z 00499bd0 f i glm.obj
 0001:00098d30       ??0?$tmat2x3@N$00@glm@@QAE@ABU?$tmat3x4@N$00@1@@Z 00499d30 f i glm.obj
 0001:00098e50       ??0?$tmat2x3@N$00@glm@@QAE@ABU?$tmat4x2@N$00@1@@Z 00499e50 f i glm.obj
 0001:00098f80       ??0?$tmat2x3@N$00@glm@@QAE@ABU?$tmat4x3@N$00@1@@Z 00499f80 f i glm.obj
 0001:00099090       ??0?$tmat2x3@N$00@glm@@QAE@ABU?$tmat4x4@N$00@1@@Z 0049a090 f i glm.obj
 0001:000991b0       ??0?$tmat2x3@N$00@glm@@QAE@ABU?$tvec3@N$00@1@0@Z 0049a1b0 f i glm.obj
 0001:00099270       ??0?$tmat2x3@N$00@glm@@QAE@N@Z 0049a270 f i glm.obj
 0001:00099360       ??0?$tmat2x3@N$00@glm@@QAE@NNNNNN@Z 0049a360 f i glm.obj
 0001:00099460       ??0?$tmat2x3@N$00@glm@@QAE@W4ctor@1@@Z 0049a460 f i glm.obj
 0001:000994c0       ??0?$tmat2x3@N$00@glm@@QAE@XZ 0049a4c0 f i glm.obj
 0001:000995a0       ??0?$tmat2x3@N$01@glm@@QAE@ABU?$tmat2x2@N$01@1@@Z 0049a5a0 f i glm.obj
 0001:000996d0       ??0?$tmat2x3@N$01@glm@@QAE@ABU?$tmat2x4@N$01@1@@Z 0049a6d0 f i glm.obj
 0001:000997f0       ??0?$tmat2x3@N$01@glm@@QAE@ABU?$tmat3x2@N$01@1@@Z 0049a7f0 f i glm.obj
 0001:00099920       ??0?$tmat2x3@N$01@glm@@QAE@ABU?$tmat3x3@N$01@1@@Z 0049a920 f i glm.obj
 0001:00099a80       ??0?$tmat2x3@N$01@glm@@QAE@ABU?$tmat3x4@N$01@1@@Z 0049aa80 f i glm.obj
 0001:00099ba0       ??0?$tmat2x3@N$01@glm@@QAE@ABU?$tmat4x2@N$01@1@@Z 0049aba0 f i glm.obj
 0001:00099cd0       ??0?$tmat2x3@N$01@glm@@QAE@ABU?$tmat4x3@N$01@1@@Z 0049acd0 f i glm.obj
 0001:00099de0       ??0?$tmat2x3@N$01@glm@@QAE@ABU?$tmat4x4@N$01@1@@Z 0049ade0 f i glm.obj
 0001:00099f00       ??0?$tmat2x3@N$01@glm@@QAE@ABU?$tvec3@N$01@1@0@Z 0049af00 f i glm.obj
 0001:00099fc0       ??0?$tmat2x3@N$01@glm@@QAE@N@Z 0049afc0 f i glm.obj
 0001:0009a0b0       ??0?$tmat2x3@N$01@glm@@QAE@NNNNNN@Z 0049b0b0 f i glm.obj
 0001:0009a1b0       ??0?$tmat2x3@N$01@glm@@QAE@W4ctor@1@@Z 0049b1b0 f i glm.obj
 0001:0009a210       ??0?$tmat2x3@N$01@glm@@QAE@XZ 0049b210 f i glm.obj
 0001:0009a2f0       ??0?$tmat2x3@N$0A@@glm@@QAE@ABU?$tmat2x2@N$0A@@1@@Z 0049b2f0 f i glm.obj
 0001:0009a420       ??0?$tmat2x3@N$0A@@glm@@QAE@ABU?$tmat2x4@N$0A@@1@@Z 0049b420 f i glm.obj
 0001:0009a540       ??0?$tmat2x3@N$0A@@glm@@QAE@ABU?$tmat3x2@N$0A@@1@@Z 0049b540 f i glm.obj
 0001:0009a670       ??0?$tmat2x3@N$0A@@glm@@QAE@ABU?$tmat3x3@N$0A@@1@@Z 0049b670 f i glm.obj
 0001:0009a7d0       ??0?$tmat2x3@N$0A@@glm@@QAE@ABU?$tmat3x4@N$0A@@1@@Z 0049b7d0 f i glm.obj
 0001:0009a8f0       ??0?$tmat2x3@N$0A@@glm@@QAE@ABU?$tmat4x2@N$0A@@1@@Z 0049b8f0 f i glm.obj
 0001:0009aa20       ??0?$tmat2x3@N$0A@@glm@@QAE@ABU?$tmat4x3@N$0A@@1@@Z 0049ba20 f i glm.obj
 0001:0009ab30       ??0?$tmat2x3@N$0A@@glm@@QAE@ABU?$tmat4x4@N$0A@@1@@Z 0049bb30 f i glm.obj
 0001:0009ac50       ??0?$tmat2x3@N$0A@@glm@@QAE@ABU?$tvec3@N$0A@@1@0@Z 0049bc50 f i glm.obj
 0001:0009ad10       ??0?$tmat2x3@N$0A@@glm@@QAE@N@Z 0049bd10 f i glm.obj
 0001:0009ae00       ??0?$tmat2x3@N$0A@@glm@@QAE@NNNNNN@Z 0049be00 f i glm.obj
 0001:0009af00       ??0?$tmat2x3@N$0A@@glm@@QAE@W4ctor@1@@Z 0049bf00 f i glm.obj
 0001:0009af60       ??0?$tmat2x3@N$0A@@glm@@QAE@XZ 0049bf60 f i glm.obj
 0001:0009b040       ??0?$tmat2x4@M$00@glm@@QAE@ABU?$tmat2x2@M$00@1@@Z 0049c040 f i glm.obj
 0001:0009b160       ??0?$tmat2x4@M$00@glm@@QAE@ABU?$tmat2x3@M$00@1@@Z 0049c160 f i glm.obj
 0001:0009b280       ??0?$tmat2x4@M$00@glm@@QAE@ABU?$tmat3x2@M$00@1@@Z 0049c280 f i glm.obj
 0001:0009b3a0       ??0?$tmat2x4@M$00@glm@@QAE@ABU?$tmat3x3@M$00@1@@Z 0049c3a0 f i glm.obj
 0001:0009b4c0       ??0?$tmat2x4@M$00@glm@@QAE@ABU?$tmat3x4@M$00@1@@Z 0049c4c0 f i glm.obj
 0001:0009b5c0       ??0?$tmat2x4@M$00@glm@@QAE@ABU?$tmat4x2@M$00@1@@Z 0049c5c0 f i glm.obj
 0001:0009b6e0       ??0?$tmat2x4@M$00@glm@@QAE@ABU?$tmat4x3@M$00@1@@Z 0049c6e0 f i glm.obj
 0001:0009b800       ??0?$tmat2x4@M$00@glm@@QAE@ABU?$tmat4x4@M$00@1@@Z 0049c800 f i glm.obj
 0001:0009b930       ??0?$tmat2x4@M$00@glm@@QAE@ABU?$tvec4@M$00@1@0@Z 0049c930 f i glm.obj
 0001:0009b9f0       ??0?$tmat2x4@M$00@glm@@QAE@M@Z 0049c9f0 f i glm.obj
 0001:0009baf0       ??0?$tmat2x4@M$00@glm@@QAE@MMMMMMMM@Z 0049caf0 f i glm.obj
 0001:0009bbf0       ??0?$tmat2x4@M$00@glm@@QAE@W4ctor@1@@Z 0049cbf0 f i glm.obj
 0001:0009bc60       ??0?$tmat2x4@M$00@glm@@QAE@XZ 0049cc60 f i glm.obj
 0001:0009bd30       ??0?$tmat2x4@M$01@glm@@QAE@ABU?$tmat2x2@M$01@1@@Z 0049cd30 f i glm.obj
 0001:0009be50       ??0?$tmat2x4@M$01@glm@@QAE@ABU?$tmat2x3@M$01@1@@Z 0049ce50 f i glm.obj
 0001:0009bf70       ??0?$tmat2x4@M$01@glm@@QAE@ABU?$tmat3x2@M$01@1@@Z 0049cf70 f i glm.obj
 0001:0009c090       ??0?$tmat2x4@M$01@glm@@QAE@ABU?$tmat3x3@M$01@1@@Z 0049d090 f i glm.obj
 0001:0009c1b0       ??0?$tmat2x4@M$01@glm@@QAE@ABU?$tmat3x4@M$01@1@@Z 0049d1b0 f i glm.obj
 0001:0009c2b0       ??0?$tmat2x4@M$01@glm@@QAE@ABU?$tmat4x2@M$01@1@@Z 0049d2b0 f i glm.obj
 0001:0009c3d0       ??0?$tmat2x4@M$01@glm@@QAE@ABU?$tmat4x3@M$01@1@@Z 0049d3d0 f i glm.obj
 0001:0009c4f0       ??0?$tmat2x4@M$01@glm@@QAE@ABU?$tmat4x4@M$01@1@@Z 0049d4f0 f i glm.obj
 0001:0009c620       ??0?$tmat2x4@M$01@glm@@QAE@ABU?$tvec4@M$01@1@0@Z 0049d620 f i glm.obj
 0001:0009c6e0       ??0?$tmat2x4@M$01@glm@@QAE@M@Z 0049d6e0 f i glm.obj
 0001:0009c7e0       ??0?$tmat2x4@M$01@glm@@QAE@MMMMMMMM@Z 0049d7e0 f i glm.obj
 0001:0009c8e0       ??0?$tmat2x4@M$01@glm@@QAE@W4ctor@1@@Z 0049d8e0 f i glm.obj
 0001:0009c950       ??0?$tmat2x4@M$01@glm@@QAE@XZ 0049d950 f i glm.obj
 0001:0009ca20       ??0?$tmat2x4@M$0A@@glm@@QAE@ABU?$tmat2x2@M$0A@@1@@Z 0049da20 f i glm.obj
 0001:0009cb40       ??0?$tmat2x4@M$0A@@glm@@QAE@ABU?$tmat2x3@M$0A@@1@@Z 0049db40 f i glm.obj
 0001:0009cc60       ??0?$tmat2x4@M$0A@@glm@@QAE@ABU?$tmat3x2@M$0A@@1@@Z 0049dc60 f i glm.obj
 0001:0009cd80       ??0?$tmat2x4@M$0A@@glm@@QAE@ABU?$tmat3x3@M$0A@@1@@Z 0049dd80 f i glm.obj
 0001:0009cea0       ??0?$tmat2x4@M$0A@@glm@@QAE@ABU?$tmat3x4@M$0A@@1@@Z 0049dea0 f i glm.obj
 0001:0009cfa0       ??0?$tmat2x4@M$0A@@glm@@QAE@ABU?$tmat4x2@M$0A@@1@@Z 0049dfa0 f i glm.obj
 0001:0009d0c0       ??0?$tmat2x4@M$0A@@glm@@QAE@ABU?$tmat4x3@M$0A@@1@@Z 0049e0c0 f i glm.obj
 0001:0009d1e0       ??0?$tmat2x4@M$0A@@glm@@QAE@ABU?$tmat4x4@M$0A@@1@@Z 0049e1e0 f i glm.obj
 0001:0009d310       ??0?$tmat2x4@M$0A@@glm@@QAE@ABU?$tvec4@M$0A@@1@0@Z 0049e310 f i glm.obj
 0001:0009d3d0       ??0?$tmat2x4@M$0A@@glm@@QAE@M@Z 0049e3d0 f i glm.obj
 0001:0009d4d0       ??0?$tmat2x4@M$0A@@glm@@QAE@MMMMMMMM@Z 0049e4d0 f i glm.obj
 0001:0009d5d0       ??0?$tmat2x4@M$0A@@glm@@QAE@W4ctor@1@@Z 0049e5d0 f i glm.obj
 0001:0009d640       ??0?$tmat2x4@M$0A@@glm@@QAE@XZ 0049e640 f i glm.obj
 0001:0009d710       ??0?$tmat2x4@N$00@glm@@QAE@ABU?$tmat2x2@N$00@1@@Z 0049e710 f i glm.obj
 0001:0009d820       ??0?$tmat2x4@N$00@glm@@QAE@ABU?$tmat2x3@N$00@1@@Z 0049e820 f i glm.obj
 0001:0009d920       ??0?$tmat2x4@N$00@glm@@QAE@ABU?$tmat3x2@N$00@1@@Z 0049e920 f i glm.obj
 0001:0009da30       ??0?$tmat2x4@N$00@glm@@QAE@ABU?$tmat3x3@N$00@1@@Z 0049ea30 f i glm.obj
 0001:0009db30       ??0?$tmat2x4@N$00@glm@@QAE@ABU?$tmat3x4@N$00@1@@Z 0049eb30 f i glm.obj
 0001:0009dc20       ??0?$tmat2x4@N$00@glm@@QAE@ABU?$tmat4x2@N$00@1@@Z 0049ec20 f i glm.obj
 0001:0009dd30       ??0?$tmat2x4@N$00@glm@@QAE@ABU?$tmat4x3@N$00@1@@Z 0049ed30 f i glm.obj
 0001:0009de30       ??0?$tmat2x4@N$00@glm@@QAE@ABU?$tmat4x4@N$00@1@@Z 0049ee30 f i glm.obj
 0001:0009df30       ??0?$tmat2x4@N$00@glm@@QAE@ABU?$tvec4@N$00@1@0@Z 0049ef30 f i glm.obj
 0001:0009dfd0       ??0?$tmat2x4@N$00@glm@@QAE@N@Z 0049efd0 f i glm.obj
 0001:0009e0c0       ??0?$tmat2x4@N$00@glm@@QAE@NNNNNNNN@Z 0049f0c0 f i glm.obj
 0001:0009e1b0       ??0?$tmat2x4@N$00@glm@@QAE@W4ctor@1@@Z 0049f1b0 f i glm.obj
 0001:0009e220       ??0?$tmat2x4@N$00@glm@@QAE@XZ 0049f220 f i glm.obj
 0001:0009e2e0       ??0?$tmat2x4@N$01@glm@@QAE@ABU?$tmat2x2@N$01@1@@Z 0049f2e0 f i glm.obj
 0001:0009e3f0       ??0?$tmat2x4@N$01@glm@@QAE@ABU?$tmat2x3@N$01@1@@Z 0049f3f0 f i glm.obj
 0001:0009e4f0       ??0?$tmat2x4@N$01@glm@@QAE@ABU?$tmat3x2@N$01@1@@Z 0049f4f0 f i glm.obj
 0001:0009e600       ??0?$tmat2x4@N$01@glm@@QAE@ABU?$tmat3x3@N$01@1@@Z 0049f600 f i glm.obj
 0001:0009e700       ??0?$tmat2x4@N$01@glm@@QAE@ABU?$tmat3x4@N$01@1@@Z 0049f700 f i glm.obj
 0001:0009e7f0       ??0?$tmat2x4@N$01@glm@@QAE@ABU?$tmat4x2@N$01@1@@Z 0049f7f0 f i glm.obj
 0001:0009e900       ??0?$tmat2x4@N$01@glm@@QAE@ABU?$tmat4x3@N$01@1@@Z 0049f900 f i glm.obj
 0001:0009ea00       ??0?$tmat2x4@N$01@glm@@QAE@ABU?$tmat4x4@N$01@1@@Z 0049fa00 f i glm.obj
 0001:0009eb00       ??0?$tmat2x4@N$01@glm@@QAE@ABU?$tvec4@N$01@1@0@Z 0049fb00 f i glm.obj
 0001:0009eba0       ??0?$tmat2x4@N$01@glm@@QAE@N@Z 0049fba0 f i glm.obj
 0001:0009ec90       ??0?$tmat2x4@N$01@glm@@QAE@NNNNNNNN@Z 0049fc90 f i glm.obj
 0001:0009ed80       ??0?$tmat2x4@N$01@glm@@QAE@W4ctor@1@@Z 0049fd80 f i glm.obj
 0001:0009edf0       ??0?$tmat2x4@N$01@glm@@QAE@XZ 0049fdf0 f i glm.obj
 0001:0009eeb0       ??0?$tmat2x4@N$0A@@glm@@QAE@ABU?$tmat2x2@N$0A@@1@@Z 0049feb0 f i glm.obj
 0001:0009efc0       ??0?$tmat2x4@N$0A@@glm@@QAE@ABU?$tmat2x3@N$0A@@1@@Z 0049ffc0 f i glm.obj
 0001:0009f0c0       ??0?$tmat2x4@N$0A@@glm@@QAE@ABU?$tmat3x2@N$0A@@1@@Z 004a00c0 f i glm.obj
 0001:0009f1d0       ??0?$tmat2x4@N$0A@@glm@@QAE@ABU?$tmat3x3@N$0A@@1@@Z 004a01d0 f i glm.obj
 0001:0009f2d0       ??0?$tmat2x4@N$0A@@glm@@QAE@ABU?$tmat3x4@N$0A@@1@@Z 004a02d0 f i glm.obj
 0001:0009f3c0       ??0?$tmat2x4@N$0A@@glm@@QAE@ABU?$tmat4x2@N$0A@@1@@Z 004a03c0 f i glm.obj
 0001:0009f4d0       ??0?$tmat2x4@N$0A@@glm@@QAE@ABU?$tmat4x3@N$0A@@1@@Z 004a04d0 f i glm.obj
 0001:0009f5d0       ??0?$tmat2x4@N$0A@@glm@@QAE@ABU?$tmat4x4@N$0A@@1@@Z 004a05d0 f i glm.obj
 0001:0009f6d0       ??0?$tmat2x4@N$0A@@glm@@QAE@ABU?$tvec4@N$0A@@1@0@Z 004a06d0 f i glm.obj
 0001:0009f770       ??0?$tmat2x4@N$0A@@glm@@QAE@N@Z 004a0770 f i glm.obj
 0001:0009f860       ??0?$tmat2x4@N$0A@@glm@@QAE@NNNNNNNN@Z 004a0860 f i glm.obj
 0001:0009f950       ??0?$tmat2x4@N$0A@@glm@@QAE@W4ctor@1@@Z 004a0950 f i glm.obj
 0001:0009f9c0       ??0?$tmat2x4@N$0A@@glm@@QAE@XZ 004a09c0 f i glm.obj
 0001:0009fa80       ??0?$tmat3x2@M$00@glm@@QAE@ABU?$tmat2x2@M$00@1@@Z 004a0a80 f i glm.obj
 0001:0009fb90       ??0?$tmat3x2@M$00@glm@@QAE@ABU?$tmat2x3@M$00@1@@Z 004a0b90 f i glm.obj
 0001:0009fcb0       ??0?$tmat3x2@M$00@glm@@QAE@ABU?$tmat2x4@M$00@1@@Z 004a0cb0 f i glm.obj
 0001:0009fdd0       ??0?$tmat3x2@M$00@glm@@QAE@ABU?$tmat3x3@M$00@1@@Z 004a0dd0 f i glm.obj
 0001:0009ff10       ??0?$tmat3x2@M$00@glm@@QAE@ABU?$tmat3x4@M$00@1@@Z 004a0f10 f i glm.obj
 0001:000a0050       ??0?$tmat3x2@M$00@glm@@QAE@ABU?$tmat4x2@M$00@1@@Z 004a1050 f i glm.obj
 0001:000a0180       ??0?$tmat3x2@M$00@glm@@QAE@ABU?$tmat4x3@M$00@1@@Z 004a1180 f i glm.obj
 0001:000a02c0       ??0?$tmat3x2@M$00@glm@@QAE@ABU?$tmat4x4@M$00@1@@Z 004a12c0 f i glm.obj
 0001:000a0400       ??0?$tmat3x2@M$00@glm@@QAE@ABU?$tvec2@M$00@1@00@Z 004a1400 f i glm.obj
 0001:000a04b0       ??0?$tmat3x2@M$00@glm@@QAE@M@Z 004a14b0 f i glm.obj
 0001:000a0580       ??0?$tmat3x2@M$00@glm@@QAE@MMMMMM@Z 004a1580 f i glm.obj
 0001:000a0660       ??0?$tmat3x2@M$00@glm@@QAE@W4ctor@1@@Z 004a1660 f i glm.obj
 0001:000a06c0       ??0?$tmat3x2@M$00@glm@@QAE@XZ 004a16c0 f i glm.obj
 0001:000a0780       ??0?$tmat3x2@M$01@glm@@QAE@ABU?$tmat2x2@M$01@1@@Z 004a1780 f i glm.obj
 0001:000a0890       ??0?$tmat3x2@M$01@glm@@QAE@ABU?$tmat2x3@M$01@1@@Z 004a1890 f i glm.obj
 0001:000a09b0       ??0?$tmat3x2@M$01@glm@@QAE@ABU?$tmat2x4@M$01@1@@Z 004a19b0 f i glm.obj
 0001:000a0ad0       ??0?$tmat3x2@M$01@glm@@QAE@ABU?$tmat3x3@M$01@1@@Z 004a1ad0 f i glm.obj
 0001:000a0c10       ??0?$tmat3x2@M$01@glm@@QAE@ABU?$tmat3x4@M$01@1@@Z 004a1c10 f i glm.obj
 0001:000a0d50       ??0?$tmat3x2@M$01@glm@@QAE@ABU?$tmat4x2@M$01@1@@Z 004a1d50 f i glm.obj
 0001:000a0e80       ??0?$tmat3x2@M$01@glm@@QAE@ABU?$tmat4x3@M$01@1@@Z 004a1e80 f i glm.obj
 0001:000a0fc0       ??0?$tmat3x2@M$01@glm@@QAE@ABU?$tmat4x4@M$01@1@@Z 004a1fc0 f i glm.obj
 0001:000a1100       ??0?$tmat3x2@M$01@glm@@QAE@ABU?$tvec2@M$01@1@00@Z 004a2100 f i glm.obj
 0001:000a11b0       ??0?$tmat3x2@M$01@glm@@QAE@M@Z 004a21b0 f i glm.obj
 0001:000a1280       ??0?$tmat3x2@M$01@glm@@QAE@MMMMMM@Z 004a2280 f i glm.obj
 0001:000a1360       ??0?$tmat3x2@M$01@glm@@QAE@W4ctor@1@@Z 004a2360 f i glm.obj
 0001:000a13c0       ??0?$tmat3x2@M$01@glm@@QAE@XZ 004a23c0 f i glm.obj
 0001:000a1480       ??0?$tmat3x2@M$0A@@glm@@QAE@ABU?$tmat2x2@M$0A@@1@@Z 004a2480 f i glm.obj
 0001:000a1590       ??0?$tmat3x2@M$0A@@glm@@QAE@ABU?$tmat2x3@M$0A@@1@@Z 004a2590 f i glm.obj
 0001:000a16b0       ??0?$tmat3x2@M$0A@@glm@@QAE@ABU?$tmat2x4@M$0A@@1@@Z 004a26b0 f i glm.obj
 0001:000a17d0       ??0?$tmat3x2@M$0A@@glm@@QAE@ABU?$tmat3x3@M$0A@@1@@Z 004a27d0 f i glm.obj
 0001:000a1910       ??0?$tmat3x2@M$0A@@glm@@QAE@ABU?$tmat3x4@M$0A@@1@@Z 004a2910 f i glm.obj
 0001:000a1a50       ??0?$tmat3x2@M$0A@@glm@@QAE@ABU?$tmat4x2@M$0A@@1@@Z 004a2a50 f i glm.obj
 0001:000a1b80       ??0?$tmat3x2@M$0A@@glm@@QAE@ABU?$tmat4x3@M$0A@@1@@Z 004a2b80 f i glm.obj
 0001:000a1cc0       ??0?$tmat3x2@M$0A@@glm@@QAE@ABU?$tmat4x4@M$0A@@1@@Z 004a2cc0 f i glm.obj
 0001:000a1e00       ??0?$tmat3x2@M$0A@@glm@@QAE@ABU?$tvec2@M$0A@@1@00@Z 004a2e00 f i glm.obj
 0001:000a1eb0       ??0?$tmat3x2@M$0A@@glm@@QAE@M@Z 004a2eb0 f i glm.obj
 0001:000a1f80       ??0?$tmat3x2@M$0A@@glm@@QAE@MMMMMM@Z 004a2f80 f i glm.obj
 0001:000a2060       ??0?$tmat3x2@M$0A@@glm@@QAE@W4ctor@1@@Z 004a3060 f i glm.obj
 0001:000a20c0       ??0?$tmat3x2@M$0A@@glm@@QAE@XZ 004a30c0 f i glm.obj
 0001:000a2180       ??0?$tmat3x2@N$00@glm@@QAE@ABU?$tmat2x2@N$00@1@@Z 004a3180 f i glm.obj
 0001:000a22a0       ??0?$tmat3x2@N$00@glm@@QAE@ABU?$tmat2x3@N$00@1@@Z 004a32a0 f i glm.obj
 0001:000a23d0       ??0?$tmat3x2@N$00@glm@@QAE@ABU?$tmat2x4@N$00@1@@Z 004a33d0 f i glm.obj
 0001:000a2500       ??0?$tmat3x2@N$00@glm@@QAE@ABU?$tmat3x3@N$00@1@@Z 004a3500 f i glm.obj
 0001:000a2660       ??0?$tmat3x2@N$00@glm@@QAE@ABU?$tmat3x4@N$00@1@@Z 004a3660 f i glm.obj
 0001:000a27c0       ??0?$tmat3x2@N$00@glm@@QAE@ABU?$tmat4x2@N$00@1@@Z 004a37c0 f i glm.obj
 0001:000a2900       ??0?$tmat3x2@N$00@glm@@QAE@ABU?$tmat4x3@N$00@1@@Z 004a3900 f i glm.obj
 0001:000a2a60       ??0?$tmat3x2@N$00@glm@@QAE@ABU?$tmat4x4@N$00@1@@Z 004a3a60 f i glm.obj
 0001:000a2bc0       ??0?$tmat3x2@N$00@glm@@QAE@ABU?$tvec2@N$00@1@00@Z 004a3bc0 f i glm.obj
 0001:000a2c80       ??0?$tmat3x2@N$00@glm@@QAE@N@Z 004a3c80 f i glm.obj
 0001:000a2d70       ??0?$tmat3x2@N$00@glm@@QAE@NNNNNN@Z 004a3d70 f i glm.obj
 0001:000a2e70       ??0?$tmat3x2@N$00@glm@@QAE@W4ctor@1@@Z 004a3e70 f i glm.obj
 0001:000a2ed0       ??0?$tmat3x2@N$00@glm@@QAE@XZ 004a3ed0 f i glm.obj
 0001:000a2fb0       ??0?$tmat3x2@N$01@glm@@QAE@ABU?$tmat2x2@N$01@1@@Z 004a3fb0 f i glm.obj
 0001:000a30d0       ??0?$tmat3x2@N$01@glm@@QAE@ABU?$tmat2x3@N$01@1@@Z 004a40d0 f i glm.obj
 0001:000a3200       ??0?$tmat3x2@N$01@glm@@QAE@ABU?$tmat2x4@N$01@1@@Z 004a4200 f i glm.obj
 0001:000a3330       ??0?$tmat3x2@N$01@glm@@QAE@ABU?$tmat3x3@N$01@1@@Z 004a4330 f i glm.obj
 0001:000a3490       ??0?$tmat3x2@N$01@glm@@QAE@ABU?$tmat3x4@N$01@1@@Z 004a4490 f i glm.obj
 0001:000a35f0       ??0?$tmat3x2@N$01@glm@@QAE@ABU?$tmat4x2@N$01@1@@Z 004a45f0 f i glm.obj
 0001:000a3730       ??0?$tmat3x2@N$01@glm@@QAE@ABU?$tmat4x3@N$01@1@@Z 004a4730 f i glm.obj
 0001:000a3890       ??0?$tmat3x2@N$01@glm@@QAE@ABU?$tmat4x4@N$01@1@@Z 004a4890 f i glm.obj
 0001:000a39f0       ??0?$tmat3x2@N$01@glm@@QAE@ABU?$tvec2@N$01@1@00@Z 004a49f0 f i glm.obj
 0001:000a3ab0       ??0?$tmat3x2@N$01@glm@@QAE@N@Z 004a4ab0 f i glm.obj
 0001:000a3ba0       ??0?$tmat3x2@N$01@glm@@QAE@NNNNNN@Z 004a4ba0 f i glm.obj
 0001:000a3ca0       ??0?$tmat3x2@N$01@glm@@QAE@W4ctor@1@@Z 004a4ca0 f i glm.obj
 0001:000a3d00       ??0?$tmat3x2@N$01@glm@@QAE@XZ 004a4d00 f i glm.obj
 0001:000a3de0       ??0?$tmat3x2@N$0A@@glm@@QAE@ABU?$tmat2x2@N$0A@@1@@Z 004a4de0 f i glm.obj
 0001:000a3f00       ??0?$tmat3x2@N$0A@@glm@@QAE@ABU?$tmat2x3@N$0A@@1@@Z 004a4f00 f i glm.obj
 0001:000a4030       ??0?$tmat3x2@N$0A@@glm@@QAE@ABU?$tmat2x4@N$0A@@1@@Z 004a5030 f i glm.obj
 0001:000a4160       ??0?$tmat3x2@N$0A@@glm@@QAE@ABU?$tmat3x3@N$0A@@1@@Z 004a5160 f i glm.obj
 0001:000a42c0       ??0?$tmat3x2@N$0A@@glm@@QAE@ABU?$tmat3x4@N$0A@@1@@Z 004a52c0 f i glm.obj
 0001:000a4420       ??0?$tmat3x2@N$0A@@glm@@QAE@ABU?$tmat4x2@N$0A@@1@@Z 004a5420 f i glm.obj
 0001:000a4560       ??0?$tmat3x2@N$0A@@glm@@QAE@ABU?$tmat4x3@N$0A@@1@@Z 004a5560 f i glm.obj
 0001:000a46c0       ??0?$tmat3x2@N$0A@@glm@@QAE@ABU?$tmat4x4@N$0A@@1@@Z 004a56c0 f i glm.obj
 0001:000a4820       ??0?$tmat3x2@N$0A@@glm@@QAE@ABU?$tvec2@N$0A@@1@00@Z 004a5820 f i glm.obj
 0001:000a48e0       ??0?$tmat3x2@N$0A@@glm@@QAE@N@Z 004a58e0 f i glm.obj
 0001:000a49d0       ??0?$tmat3x2@N$0A@@glm@@QAE@NNNNNN@Z 004a59d0 f i glm.obj
 0001:000a4ad0       ??0?$tmat3x2@N$0A@@glm@@QAE@W4ctor@1@@Z 004a5ad0 f i glm.obj
 0001:000a4b30       ??0?$tmat3x2@N$0A@@glm@@QAE@XZ 004a5b30 f i glm.obj
 0001:000a4c10       ??0?$tmat3x3@M$00@glm@@QAE@ABU?$tmat2x2@M$00@1@@Z 004a5c10 f i glm.obj
 0001:000a4d40       ??0?$tmat3x3@M$00@glm@@QAE@ABU?$tmat2x3@M$00@1@@Z 004a5d40 f i glm.obj
 0001:000a4e60       ??0?$tmat3x3@M$00@glm@@QAE@ABU?$tmat2x4@M$00@1@@Z 004a5e60 f i glm.obj
 0001:000a4fa0       ??0?$tmat3x3@M$00@glm@@QAE@ABU?$tmat3x2@M$00@1@@Z 004a5fa0 f i glm.obj
 0001:000a5100       ??0?$tmat3x3@M$00@glm@@QAE@ABU?$tmat3x4@M$00@1@@Z 004a6100 f i glm.obj
 0001:000a5250       ??0?$tmat3x3@M$00@glm@@QAE@ABU?$tmat4x2@M$00@1@@Z 004a6250 f i glm.obj
 0001:000a53b0       ??0?$tmat3x3@M$00@glm@@QAE@ABU?$tmat4x3@M$00@1@@Z 004a63b0 f i glm.obj
 0001:000a54e0       ??0?$tmat3x3@M$00@glm@@QAE@ABU?$tmat4x4@M$00@1@@Z 004a64e0 f i glm.obj
 0001:000a5630       ??0?$tmat3x3@M$00@glm@@QAE@ABU?$tvec3@M$00@1@00@Z 004a6630 f i glm.obj
 0001:000a56f0       ??0?$tmat3x3@M$00@glm@@QAE@M@Z 004a66f0 f i glm.obj
 0001:000a57f0       ??0?$tmat3x3@M$00@glm@@QAE@MMMMMMMMM@Z 004a67f0 f i glm.obj
 0001:000a5900       ??0?$tmat3x3@M$00@glm@@QAE@W4ctor@1@@Z 004a6900 f i glm.obj
 0001:000a5960       ??0?$tmat3x3@M$00@glm@@QAE@XZ 004a6960 f i glm.obj
 0001:000a5a40       ??0?$tmat3x3@M$01@glm@@QAE@ABU?$tmat2x2@M$01@1@@Z 004a6a40 f i glm.obj
 0001:000a5b70       ??0?$tmat3x3@M$01@glm@@QAE@ABU?$tmat2x3@M$01@1@@Z 004a6b70 f i glm.obj
 0001:000a5c90       ??0?$tmat3x3@M$01@glm@@QAE@ABU?$tmat2x4@M$01@1@@Z 004a6c90 f i glm.obj
 0001:000a5dc0       ??0?$tmat3x3@M$01@glm@@QAE@ABU?$tmat3x2@M$01@1@@Z 004a6dc0 f i glm.obj
 0001:000a5f20       ??0?$tmat3x3@M$01@glm@@QAE@ABU?$tmat3x4@M$01@1@@Z 004a6f20 f i glm.obj
 0001:000a6070       ??0?$tmat3x3@M$01@glm@@QAE@ABU?$tmat4x2@M$01@1@@Z 004a7070 f i glm.obj
 0001:000a61d0       ??0?$tmat3x3@M$01@glm@@QAE@ABU?$tmat4x3@M$01@1@@Z 004a71d0 f i glm.obj
 0001:000a6300       ??0?$tmat3x3@M$01@glm@@QAE@ABU?$tmat4x4@M$01@1@@Z 004a7300 f i glm.obj
 0001:000a6450       ??0?$tmat3x3@M$01@glm@@QAE@ABU?$tvec3@M$01@1@00@Z 004a7450 f i glm.obj
 0001:000a6510       ??0?$tmat3x3@M$01@glm@@QAE@M@Z 004a7510 f i glm.obj
 0001:000a6610       ??0?$tmat3x3@M$01@glm@@QAE@MMMMMMMMM@Z 004a7610 f i glm.obj
 0001:000a6720       ??0?$tmat3x3@M$01@glm@@QAE@W4ctor@1@@Z 004a7720 f i glm.obj
 0001:000a6780       ??0?$tmat3x3@M$01@glm@@QAE@XZ 004a7780 f i glm.obj
 0001:000a6860       ??0?$tmat3x3@M$0A@@glm@@QAE@ABU?$tmat2x2@M$0A@@1@@Z 004a7860 f i glm.obj
 0001:000a6990       ??0?$tmat3x3@M$0A@@glm@@QAE@ABU?$tmat2x3@M$0A@@1@@Z 004a7990 f i glm.obj
 0001:000a6ab0       ??0?$tmat3x3@M$0A@@glm@@QAE@ABU?$tmat2x4@M$0A@@1@@Z 004a7ab0 f i glm.obj
 0001:000a6be0       ??0?$tmat3x3@M$0A@@glm@@QAE@ABU?$tmat3x2@M$0A@@1@@Z 004a7be0 f i glm.obj
 0001:000a6d40       ??0?$tmat3x3@M$0A@@glm@@QAE@ABU?$tmat3x4@M$0A@@1@@Z 004a7d40 f i glm.obj
 0001:000a6e90       ??0?$tmat3x3@M$0A@@glm@@QAE@ABU?$tmat4x2@M$0A@@1@@Z 004a7e90 f i glm.obj
 0001:000a6ff0       ??0?$tmat3x3@M$0A@@glm@@QAE@ABU?$tmat4x3@M$0A@@1@@Z 004a7ff0 f i glm.obj
 0001:000a7120       ??0?$tmat3x3@M$0A@@glm@@QAE@ABU?$tvec3@M$0A@@1@00@Z 004a8120 f i glm.obj
 0001:000a71e0       ??0?$tmat3x3@M$0A@@glm@@QAE@M@Z 004a81e0 f i glm.obj
 0001:000a72e0       ??0?$tmat3x3@M$0A@@glm@@QAE@MMMMMMMMM@Z 004a82e0 f i glm.obj
 0001:000a73f0       ??0?$tmat3x3@M$0A@@glm@@QAE@W4ctor@1@@Z 004a83f0 f i glm.obj
 0001:000a7450       ??0?$tmat3x3@M$0A@@glm@@QAE@XZ 004a8450 f i glm.obj
 0001:000a7530       ??0?$tmat3x3@N$00@glm@@QAE@ABU?$tmat2x2@N$00@1@@Z 004a8530 f i glm.obj
 0001:000a7690       ??0?$tmat3x3@N$00@glm@@QAE@ABU?$tmat2x3@N$00@1@@Z 004a8690 f i glm.obj
 0001:000a77e0       ??0?$tmat3x3@N$00@glm@@QAE@ABU?$tmat2x4@N$00@1@@Z 004a87e0 f i glm.obj
 0001:000a7940       ??0?$tmat3x3@N$00@glm@@QAE@ABU?$tmat3x2@N$00@1@@Z 004a8940 f i glm.obj
 0001:000a7ad0       ??0?$tmat3x3@N$00@glm@@QAE@ABU?$tmat3x4@N$00@1@@Z 004a8ad0 f i glm.obj
 0001:000a7c60       ??0?$tmat3x3@N$00@glm@@QAE@ABU?$tmat4x2@N$00@1@@Z 004a8c60 f i glm.obj
 0001:000a7df0       ??0?$tmat3x3@N$00@glm@@QAE@ABU?$tmat4x3@N$00@1@@Z 004a8df0 f i glm.obj
 0001:000a7f60       ??0?$tmat3x3@N$00@glm@@QAE@ABU?$tmat4x4@N$00@1@@Z 004a8f60 f i glm.obj
 0001:000a80f0       ??0?$tmat3x3@N$00@glm@@QAE@ABU?$tvec3@N$00@1@00@Z 004a90f0 f i glm.obj
 0001:000a81e0       ??0?$tmat3x3@N$00@glm@@QAE@N@Z 004a91e0 f i glm.obj
 0001:000a8310       ??0?$tmat3x3@N$00@glm@@QAE@NNNNNNNNN@Z 004a9310 f i glm.obj
 0001:000a8460       ??0?$tmat3x3@N$00@glm@@QAE@W4ctor@1@@Z 004a9460 f i glm.obj
 0001:000a84c0       ??0?$tmat3x3@N$00@glm@@QAE@XZ 004a94c0 f i glm.obj
 0001:000a85d0       ??0?$tmat3x3@N$01@glm@@QAE@ABU?$tmat2x2@N$01@1@@Z 004a95d0 f i glm.obj
 0001:000a8730       ??0?$tmat3x3@N$01@glm@@QAE@ABU?$tmat2x3@N$01@1@@Z 004a9730 f i glm.obj
 0001:000a8880       ??0?$tmat3x3@N$01@glm@@QAE@ABU?$tmat2x4@N$01@1@@Z 004a9880 f i glm.obj
 0001:000a89e0       ??0?$tmat3x3@N$01@glm@@QAE@ABU?$tmat3x2@N$01@1@@Z 004a99e0 f i glm.obj
 0001:000a8b70       ??0?$tmat3x3@N$01@glm@@QAE@ABU?$tmat3x4@N$01@1@@Z 004a9b70 f i glm.obj
 0001:000a8d00       ??0?$tmat3x3@N$01@glm@@QAE@ABU?$tmat4x2@N$01@1@@Z 004a9d00 f i glm.obj
 0001:000a8e90       ??0?$tmat3x3@N$01@glm@@QAE@ABU?$tmat4x3@N$01@1@@Z 004a9e90 f i glm.obj
 0001:000a9000       ??0?$tmat3x3@N$01@glm@@QAE@ABU?$tmat4x4@N$01@1@@Z 004aa000 f i glm.obj
 0001:000a9190       ??0?$tmat3x3@N$01@glm@@QAE@ABU?$tvec3@N$01@1@00@Z 004aa190 f i glm.obj
 0001:000a9280       ??0?$tmat3x3@N$01@glm@@QAE@N@Z 004aa280 f i glm.obj
 0001:000a93b0       ??0?$tmat3x3@N$01@glm@@QAE@NNNNNNNNN@Z 004aa3b0 f i glm.obj
 0001:000a9500       ??0?$tmat3x3@N$01@glm@@QAE@W4ctor@1@@Z 004aa500 f i glm.obj
 0001:000a9560       ??0?$tmat3x3@N$01@glm@@QAE@XZ 004aa560 f i glm.obj
 0001:000a9670       ??0?$tmat3x3@N$0A@@glm@@QAE@ABU?$tmat2x2@N$0A@@1@@Z 004aa670 f i glm.obj
 0001:000a97d0       ??0?$tmat3x3@N$0A@@glm@@QAE@ABU?$tmat2x3@N$0A@@1@@Z 004aa7d0 f i glm.obj
 0001:000a9920       ??0?$tmat3x3@N$0A@@glm@@QAE@ABU?$tmat2x4@N$0A@@1@@Z 004aa920 f i glm.obj
 0001:000a9a80       ??0?$tmat3x3@N$0A@@glm@@QAE@ABU?$tmat3x2@N$0A@@1@@Z 004aaa80 f i glm.obj
 0001:000a9c10       ??0?$tmat3x3@N$0A@@glm@@QAE@ABU?$tmat3x4@N$0A@@1@@Z 004aac10 f i glm.obj
 0001:000a9da0       ??0?$tmat3x3@N$0A@@glm@@QAE@ABU?$tmat4x2@N$0A@@1@@Z 004aada0 f i glm.obj
 0001:000a9f30       ??0?$tmat3x3@N$0A@@glm@@QAE@ABU?$tmat4x3@N$0A@@1@@Z 004aaf30 f i glm.obj
 0001:000aa0a0       ??0?$tmat3x3@N$0A@@glm@@QAE@ABU?$tmat4x4@N$0A@@1@@Z 004ab0a0 f i glm.obj
 0001:000aa230       ??0?$tmat3x3@N$0A@@glm@@QAE@ABU?$tvec3@N$0A@@1@00@Z 004ab230 f i glm.obj
 0001:000aa320       ??0?$tmat3x3@N$0A@@glm@@QAE@N@Z 004ab320 f i glm.obj
 0001:000aa450       ??0?$tmat3x3@N$0A@@glm@@QAE@NNNNNNNNN@Z 004ab450 f i glm.obj
 0001:000aa5a0       ??0?$tmat3x3@N$0A@@glm@@QAE@W4ctor@1@@Z 004ab5a0 f i glm.obj
 0001:000aa600       ??0?$tmat3x3@N$0A@@glm@@QAE@XZ 004ab600 f i glm.obj
 0001:000aa710       ??0?$tmat3x4@M$00@glm@@QAE@ABU?$tmat2x2@M$00@1@@Z 004ab710 f i glm.obj
 0001:000aa860       ??0?$tmat3x4@M$00@glm@@QAE@ABU?$tmat2x3@M$00@1@@Z 004ab860 f i glm.obj
 0001:000aa9b0       ??0?$tmat3x4@M$00@glm@@QAE@ABU?$tmat2x4@M$00@1@@Z 004ab9b0 f i glm.obj
 0001:000aab10       ??0?$tmat3x4@M$00@glm@@QAE@ABU?$tmat3x2@M$00@1@@Z 004abb10 f i glm.obj
 0001:000aac90       ??0?$tmat3x4@M$00@glm@@QAE@ABU?$tmat3x3@M$00@1@@Z 004abc90 f i glm.obj
 0001:000aae00       ??0?$tmat3x4@M$00@glm@@QAE@ABU?$tmat4x2@M$00@1@@Z 004abe00 f i glm.obj
 0001:000aaf80       ??0?$tmat3x4@M$00@glm@@QAE@ABU?$tmat4x3@M$00@1@@Z 004abf80 f i glm.obj
 0001:000ab0f0       ??0?$tmat3x4@M$00@glm@@QAE@ABU?$tmat4x4@M$00@1@@Z 004ac0f0 f i glm.obj
 0001:000ab290       ??0?$tmat3x4@M$00@glm@@QAE@ABU?$tvec4@M$00@1@00@Z 004ac290 f i glm.obj
 0001:000ab370       ??0?$tmat3x4@M$00@glm@@QAE@M@Z 004ac370 f i glm.obj
 0001:000ab490       ??0?$tmat3x4@M$00@glm@@QAE@MMMMMMMMMMMM@Z 004ac490 f i glm.obj
 0001:000ab5e0       ??0?$tmat3x4@M$00@glm@@QAE@W4ctor@1@@Z 004ac5e0 f i glm.obj
 0001:000ab650       ??0?$tmat3x4@M$00@glm@@QAE@XZ 004ac650 f i glm.obj
 0001:000ab750       ??0?$tmat3x4@M$01@glm@@QAE@ABU?$tmat2x2@M$01@1@@Z 004ac750 f i glm.obj
 0001:000ab8a0       ??0?$tmat3x4@M$01@glm@@QAE@ABU?$tmat2x3@M$01@1@@Z 004ac8a0 f i glm.obj
 0001:000ab9f0       ??0?$tmat3x4@M$01@glm@@QAE@ABU?$tmat2x4@M$01@1@@Z 004ac9f0 f i glm.obj
 0001:000abb50       ??0?$tmat3x4@M$01@glm@@QAE@ABU?$tmat3x2@M$01@1@@Z 004acb50 f i glm.obj
 0001:000abcd0       ??0?$tmat3x4@M$01@glm@@QAE@ABU?$tmat3x3@M$01@1@@Z 004accd0 f i glm.obj
 0001:000abe40       ??0?$tmat3x4@M$01@glm@@QAE@ABU?$tmat4x2@M$01@1@@Z 004ace40 f i glm.obj
 0001:000abfc0       ??0?$tmat3x4@M$01@glm@@QAE@ABU?$tmat4x3@M$01@1@@Z 004acfc0 f i glm.obj
 0001:000ac130       ??0?$tmat3x4@M$01@glm@@QAE@ABU?$tmat4x4@M$01@1@@Z 004ad130 f i glm.obj
 0001:000ac2d0       ??0?$tmat3x4@M$01@glm@@QAE@ABU?$tvec4@M$01@1@00@Z 004ad2d0 f i glm.obj
 0001:000ac3b0       ??0?$tmat3x4@M$01@glm@@QAE@M@Z 004ad3b0 f i glm.obj
 0001:000ac4d0       ??0?$tmat3x4@M$01@glm@@QAE@MMMMMMMMMMMM@Z 004ad4d0 f i glm.obj
 0001:000ac620       ??0?$tmat3x4@M$01@glm@@QAE@W4ctor@1@@Z 004ad620 f i glm.obj
 0001:000ac690       ??0?$tmat3x4@M$01@glm@@QAE@XZ 004ad690 f i glm.obj
 0001:000ac790       ??0?$tmat3x4@M$0A@@glm@@QAE@ABU?$tmat2x2@M$0A@@1@@Z 004ad790 f i glm.obj
 0001:000ac8e0       ??0?$tmat3x4@M$0A@@glm@@QAE@ABU?$tmat2x3@M$0A@@1@@Z 004ad8e0 f i glm.obj
 0001:000aca30       ??0?$tmat3x4@M$0A@@glm@@QAE@ABU?$tmat2x4@M$0A@@1@@Z 004ada30 f i glm.obj
 0001:000acb90       ??0?$tmat3x4@M$0A@@glm@@QAE@ABU?$tmat3x2@M$0A@@1@@Z 004adb90 f i glm.obj
 0001:000acd10       ??0?$tmat3x4@M$0A@@glm@@QAE@ABU?$tmat3x3@M$0A@@1@@Z 004add10 f i glm.obj
 0001:000ace80       ??0?$tmat3x4@M$0A@@glm@@QAE@ABU?$tmat4x2@M$0A@@1@@Z 004ade80 f i glm.obj
 0001:000ad000       ??0?$tmat3x4@M$0A@@glm@@QAE@ABU?$tmat4x3@M$0A@@1@@Z 004ae000 f i glm.obj
 0001:000ad170       ??0?$tmat3x4@M$0A@@glm@@QAE@ABU?$tmat4x4@M$0A@@1@@Z 004ae170 f i glm.obj
 0001:000ad310       ??0?$tmat3x4@M$0A@@glm@@QAE@ABU?$tvec4@M$0A@@1@00@Z 004ae310 f i glm.obj
 0001:000ad3f0       ??0?$tmat3x4@M$0A@@glm@@QAE@M@Z 004ae3f0 f i glm.obj
 0001:000ad510       ??0?$tmat3x4@M$0A@@glm@@QAE@MMMMMMMMMMMM@Z 004ae510 f i glm.obj
 0001:000ad660       ??0?$tmat3x4@M$0A@@glm@@QAE@W4ctor@1@@Z 004ae660 f i glm.obj
 0001:000ad6d0       ??0?$tmat3x4@M$0A@@glm@@QAE@XZ 004ae6d0 f i glm.obj
 0001:000ad7d0       ??0?$tmat3x4@N$00@glm@@QAE@ABU?$tmat2x2@N$00@1@@Z 004ae7d0 f i glm.obj
 0001:000ad900       ??0?$tmat3x4@N$00@glm@@QAE@ABU?$tmat2x3@N$00@1@@Z 004ae900 f i glm.obj
 0001:000ada30       ??0?$tmat3x4@N$00@glm@@QAE@ABU?$tmat2x4@N$00@1@@Z 004aea30 f i glm.obj
 0001:000adb60       ??0?$tmat3x4@N$00@glm@@QAE@ABU?$tmat3x2@N$00@1@@Z 004aeb60 f i glm.obj
 0001:000adcc0       ??0?$tmat3x4@N$00@glm@@QAE@ABU?$tmat3x3@N$00@1@@Z 004aecc0 f i glm.obj
 0001:000ade10       ??0?$tmat3x4@N$00@glm@@QAE@ABU?$tmat4x2@N$00@1@@Z 004aee10 f i glm.obj
 0001:000adf70       ??0?$tmat3x4@N$00@glm@@QAE@ABU?$tmat4x3@N$00@1@@Z 004aef70 f i glm.obj
 0001:000ae0c0       ??0?$tmat3x4@N$00@glm@@QAE@ABU?$tmat4x4@N$00@1@@Z 004af0c0 f i glm.obj
 0001:000ae210       ??0?$tmat3x4@N$00@glm@@QAE@ABU?$tvec4@N$00@1@00@Z 004af210 f i glm.obj
 0001:000ae2c0       ??0?$tmat3x4@N$00@glm@@QAE@N@Z 004af2c0 f i glm.obj
 0001:000ae3c0       ??0?$tmat3x4@N$00@glm@@QAE@NNNNNNNNNNNN@Z 004af3c0 f i glm.obj
 0001:000ae4f0       ??0?$tmat3x4@N$00@glm@@QAE@W4ctor@1@@Z 004af4f0 f i glm.obj
 0001:000ae560       ??0?$tmat3x4@N$00@glm@@QAE@XZ 004af560 f i glm.obj
 0001:000ae640       ??0?$tmat3x4@N$01@glm@@QAE@ABU?$tmat2x2@N$01@1@@Z 004af640 f i glm.obj
 0001:000ae770       ??0?$tmat3x4@N$01@glm@@QAE@ABU?$tmat2x3@N$01@1@@Z 004af770 f i glm.obj
 0001:000ae8a0       ??0?$tmat3x4@N$01@glm@@QAE@ABU?$tmat2x4@N$01@1@@Z 004af8a0 f i glm.obj
 0001:000ae9d0       ??0?$tmat3x4@N$01@glm@@QAE@ABU?$tmat3x2@N$01@1@@Z 004af9d0 f i glm.obj
 0001:000aeb30       ??0?$tmat3x4@N$01@glm@@QAE@ABU?$tmat3x3@N$01@1@@Z 004afb30 f i glm.obj
 0001:000aec80       ??0?$tmat3x4@N$01@glm@@QAE@ABU?$tmat4x2@N$01@1@@Z 004afc80 f i glm.obj
 0001:000aede0       ??0?$tmat3x4@N$01@glm@@QAE@ABU?$tmat4x3@N$01@1@@Z 004afde0 f i glm.obj
 0001:000aef30       ??0?$tmat3x4@N$01@glm@@QAE@ABU?$tmat4x4@N$01@1@@Z 004aff30 f i glm.obj
 0001:000af080       ??0?$tmat3x4@N$01@glm@@QAE@ABU?$tvec4@N$01@1@00@Z 004b0080 f i glm.obj
 0001:000af130       ??0?$tmat3x4@N$01@glm@@QAE@N@Z 004b0130 f i glm.obj
 0001:000af230       ??0?$tmat3x4@N$01@glm@@QAE@NNNNNNNNNNNN@Z 004b0230 f i glm.obj
 0001:000af360       ??0?$tmat3x4@N$01@glm@@QAE@W4ctor@1@@Z 004b0360 f i glm.obj
 0001:000af3d0       ??0?$tmat3x4@N$01@glm@@QAE@XZ 004b03d0 f i glm.obj
 0001:000af4b0       ??0?$tmat3x4@N$0A@@glm@@QAE@ABU?$tmat2x2@N$0A@@1@@Z 004b04b0 f i glm.obj
 0001:000af5e0       ??0?$tmat3x4@N$0A@@glm@@QAE@ABU?$tmat2x3@N$0A@@1@@Z 004b05e0 f i glm.obj
 0001:000af710       ??0?$tmat3x4@N$0A@@glm@@QAE@ABU?$tmat2x4@N$0A@@1@@Z 004b0710 f i glm.obj
 0001:000af840       ??0?$tmat3x4@N$0A@@glm@@QAE@ABU?$tmat3x2@N$0A@@1@@Z 004b0840 f i glm.obj
 0001:000af9a0       ??0?$tmat3x4@N$0A@@glm@@QAE@ABU?$tmat3x3@N$0A@@1@@Z 004b09a0 f i glm.obj
 0001:000afaf0       ??0?$tmat3x4@N$0A@@glm@@QAE@ABU?$tmat4x2@N$0A@@1@@Z 004b0af0 f i glm.obj
 0001:000afc50       ??0?$tmat3x4@N$0A@@glm@@QAE@ABU?$tmat4x3@N$0A@@1@@Z 004b0c50 f i glm.obj
 0001:000afda0       ??0?$tmat3x4@N$0A@@glm@@QAE@ABU?$tmat4x4@N$0A@@1@@Z 004b0da0 f i glm.obj
 0001:000afef0       ??0?$tmat3x4@N$0A@@glm@@QAE@ABU?$tvec4@N$0A@@1@00@Z 004b0ef0 f i glm.obj
 0001:000affa0       ??0?$tmat3x4@N$0A@@glm@@QAE@N@Z 004b0fa0 f i glm.obj
 0001:000b00a0       ??0?$tmat3x4@N$0A@@glm@@QAE@NNNNNNNNNNNN@Z 004b10a0 f i glm.obj
 0001:000b01d0       ??0?$tmat3x4@N$0A@@glm@@QAE@W4ctor@1@@Z 004b11d0 f i glm.obj
 0001:000b0240       ??0?$tmat3x4@N$0A@@glm@@QAE@XZ 004b1240 f i glm.obj
 0001:000b0320       ??0?$tmat4x2@M$00@glm@@QAE@ABU?$tmat2x2@M$00@1@@Z 004b1320 f i glm.obj
 0001:000b0470       ??0?$tmat4x2@M$00@glm@@QAE@ABU?$tmat2x3@M$00@1@@Z 004b1470 f i glm.obj
 0001:000b05b0       ??0?$tmat4x2@M$00@glm@@QAE@ABU?$tmat2x4@M$00@1@@Z 004b15b0 f i glm.obj
 0001:000b06f0       ??0?$tmat4x2@M$00@glm@@QAE@ABU?$tmat3x2@M$00@1@@Z 004b16f0 f i glm.obj
 0001:000b0860       ??0?$tmat4x2@M$00@glm@@QAE@ABU?$tmat3x3@M$00@1@@Z 004b1860 f i glm.obj
 0001:000b09c0       ??0?$tmat4x2@M$00@glm@@QAE@ABU?$tmat3x4@M$00@1@@Z 004b19c0 f i glm.obj
 0001:000b0b20       ??0?$tmat4x2@M$00@glm@@QAE@ABU?$tmat4x3@M$00@1@@Z 004b1b20 f i glm.obj
 0001:000b0cb0       ??0?$tmat4x2@M$00@glm@@QAE@ABU?$tmat4x4@M$00@1@@Z 004b1cb0 f i glm.obj
 0001:000b0e40       ??0?$tmat4x2@M$00@glm@@QAE@ABU?$tvec2@M$00@1@000@Z 004b1e40 f i glm.obj
 0001:000b0f00       ??0?$tmat4x2@M$00@glm@@QAE@M@Z 004b1f00 f i glm.obj
 0001:000b1000       ??0?$tmat4x2@M$00@glm@@QAE@MMMMMMMM@Z 004b2000 f i glm.obj
 0001:000b1110       ??0?$tmat4x2@M$00@glm@@QAE@W4ctor@1@@Z 004b2110 f i glm.obj
 0001:000b1170       ??0?$tmat4x2@M$00@glm@@QAE@XZ 004b2170 f i glm.obj
 0001:000b1250       ??0?$tmat4x2@M$01@glm@@QAE@ABU?$tmat2x2@M$01@1@@Z 004b2250 f i glm.obj
 0001:000b13a0       ??0?$tmat4x2@M$01@glm@@QAE@ABU?$tmat2x3@M$01@1@@Z 004b23a0 f i glm.obj
 0001:000b14e0       ??0?$tmat4x2@M$01@glm@@QAE@ABU?$tmat2x4@M$01@1@@Z 004b24e0 f i glm.obj
 0001:000b1620       ??0?$tmat4x2@M$01@glm@@QAE@ABU?$tmat3x2@M$01@1@@Z 004b2620 f i glm.obj
 0001:000b1790       ??0?$tmat4x2@M$01@glm@@QAE@ABU?$tmat3x3@M$01@1@@Z 004b2790 f i glm.obj
 0001:000b18f0       ??0?$tmat4x2@M$01@glm@@QAE@ABU?$tmat3x4@M$01@1@@Z 004b28f0 f i glm.obj
 0001:000b1a50       ??0?$tmat4x2@M$01@glm@@QAE@ABU?$tmat4x3@M$01@1@@Z 004b2a50 f i glm.obj
 0001:000b1be0       ??0?$tmat4x2@M$01@glm@@QAE@ABU?$tmat4x4@M$01@1@@Z 004b2be0 f i glm.obj
 0001:000b1d70       ??0?$tmat4x2@M$01@glm@@QAE@ABU?$tvec2@M$01@1@000@Z 004b2d70 f i glm.obj
 0001:000b1e30       ??0?$tmat4x2@M$01@glm@@QAE@M@Z 004b2e30 f i glm.obj
 0001:000b1f30       ??0?$tmat4x2@M$01@glm@@QAE@MMMMMMMM@Z 004b2f30 f i glm.obj
 0001:000b2040       ??0?$tmat4x2@M$01@glm@@QAE@W4ctor@1@@Z 004b3040 f i glm.obj
 0001:000b20a0       ??0?$tmat4x2@M$01@glm@@QAE@XZ 004b30a0 f i glm.obj
 0001:000b2180       ??0?$tmat4x2@M$0A@@glm@@QAE@ABU?$tmat2x2@M$0A@@1@@Z 004b3180 f i glm.obj
 0001:000b22d0       ??0?$tmat4x2@M$0A@@glm@@QAE@ABU?$tmat2x3@M$0A@@1@@Z 004b32d0 f i glm.obj
 0001:000b2410       ??0?$tmat4x2@M$0A@@glm@@QAE@ABU?$tmat2x4@M$0A@@1@@Z 004b3410 f i glm.obj
 0001:000b2550       ??0?$tmat4x2@M$0A@@glm@@QAE@ABU?$tmat3x2@M$0A@@1@@Z 004b3550 f i glm.obj
 0001:000b26c0       ??0?$tmat4x2@M$0A@@glm@@QAE@ABU?$tmat3x3@M$0A@@1@@Z 004b36c0 f i glm.obj
 0001:000b2820       ??0?$tmat4x2@M$0A@@glm@@QAE@ABU?$tmat3x4@M$0A@@1@@Z 004b3820 f i glm.obj
 0001:000b2980       ??0?$tmat4x2@M$0A@@glm@@QAE@ABU?$tmat4x3@M$0A@@1@@Z 004b3980 f i glm.obj
 0001:000b2b10       ??0?$tmat4x2@M$0A@@glm@@QAE@ABU?$tmat4x4@M$0A@@1@@Z 004b3b10 f i glm.obj
 0001:000b2ca0       ??0?$tmat4x2@M$0A@@glm@@QAE@ABU?$tvec2@M$0A@@1@000@Z 004b3ca0 f i glm.obj
 0001:000b2d60       ??0?$tmat4x2@M$0A@@glm@@QAE@M@Z 004b3d60 f i glm.obj
 0001:000b2e60       ??0?$tmat4x2@M$0A@@glm@@QAE@MMMMMMMM@Z 004b3e60 f i glm.obj
 0001:000b2f70       ??0?$tmat4x2@M$0A@@glm@@QAE@W4ctor@1@@Z 004b3f70 f i glm.obj
 0001:000b2fd0       ??0?$tmat4x2@M$0A@@glm@@QAE@XZ 004b3fd0 f i glm.obj
 0001:000b30b0       ??0?$tmat4x2@N$00@glm@@QAE@ABU?$tmat2x2@N$00@1@@Z 004b40b0 f i glm.obj
 0001:000b3230       ??0?$tmat4x2@N$00@glm@@QAE@ABU?$tmat2x3@N$00@1@@Z 004b4230 f i glm.obj
 0001:000b3390       ??0?$tmat4x2@N$00@glm@@QAE@ABU?$tmat2x4@N$00@1@@Z 004b4390 f i glm.obj
 0001:000b34f0       ??0?$tmat4x2@N$00@glm@@QAE@ABU?$tmat3x2@N$00@1@@Z 004b44f0 f i glm.obj
 0001:000b36b0       ??0?$tmat4x2@N$00@glm@@QAE@ABU?$tmat3x3@N$00@1@@Z 004b46b0 f i glm.obj
 0001:000b3840       ??0?$tmat4x2@N$00@glm@@QAE@ABU?$tmat3x4@N$00@1@@Z 004b4840 f i glm.obj
 0001:000b39d0       ??0?$tmat4x2@N$00@glm@@QAE@ABU?$tmat4x3@N$00@1@@Z 004b49d0 f i glm.obj
 0001:000b3b80       ??0?$tmat4x2@N$00@glm@@QAE@ABU?$tmat4x4@N$00@1@@Z 004b4b80 f i glm.obj
 0001:000b3d30       ??0?$tmat4x2@N$00@glm@@QAE@ABU?$tvec2@N$00@1@000@Z 004b4d30 f i glm.obj
 0001:000b3e20       ??0?$tmat4x2@N$00@glm@@QAE@N@Z 004b4e20 f i glm.obj
 0001:000b3f40       ??0?$tmat4x2@N$00@glm@@QAE@NNNNNNNN@Z 004b4f40 f i glm.obj
 0001:000b4070       ??0?$tmat4x2@N$00@glm@@QAE@W4ctor@1@@Z 004b5070 f i glm.obj
 0001:000b40d0       ??0?$tmat4x2@N$00@glm@@QAE@XZ 004b50d0 f i glm.obj
 0001:000b41e0       ??0?$tmat4x2@N$01@glm@@QAE@ABU?$tmat2x2@N$01@1@@Z 004b51e0 f i glm.obj
 0001:000b4360       ??0?$tmat4x2@N$01@glm@@QAE@ABU?$tmat2x3@N$01@1@@Z 004b5360 f i glm.obj
 0001:000b44c0       ??0?$tmat4x2@N$01@glm@@QAE@ABU?$tmat2x4@N$01@1@@Z 004b54c0 f i glm.obj
 0001:000b4620       ??0?$tmat4x2@N$01@glm@@QAE@ABU?$tmat3x2@N$01@1@@Z 004b5620 f i glm.obj
 0001:000b47e0       ??0?$tmat4x2@N$01@glm@@QAE@ABU?$tmat3x3@N$01@1@@Z 004b57e0 f i glm.obj
 0001:000b4970       ??0?$tmat4x2@N$01@glm@@QAE@ABU?$tmat3x4@N$01@1@@Z 004b5970 f i glm.obj
 0001:000b4b00       ??0?$tmat4x2@N$01@glm@@QAE@ABU?$tmat4x3@N$01@1@@Z 004b5b00 f i glm.obj
 0001:000b4cb0       ??0?$tmat4x2@N$01@glm@@QAE@ABU?$tmat4x4@N$01@1@@Z 004b5cb0 f i glm.obj
 0001:000b4e60       ??0?$tmat4x2@N$01@glm@@QAE@ABU?$tvec2@N$01@1@000@Z 004b5e60 f i glm.obj
 0001:000b4f50       ??0?$tmat4x2@N$01@glm@@QAE@N@Z 004b5f50 f i glm.obj
 0001:000b5070       ??0?$tmat4x2@N$01@glm@@QAE@NNNNNNNN@Z 004b6070 f i glm.obj
 0001:000b51a0       ??0?$tmat4x2@N$01@glm@@QAE@W4ctor@1@@Z 004b61a0 f i glm.obj
 0001:000b5200       ??0?$tmat4x2@N$01@glm@@QAE@XZ 004b6200 f i glm.obj
 0001:000b5310       ??0?$tmat4x2@N$0A@@glm@@QAE@ABU?$tmat2x2@N$0A@@1@@Z 004b6310 f i glm.obj
 0001:000b5490       ??0?$tmat4x2@N$0A@@glm@@QAE@ABU?$tmat2x3@N$0A@@1@@Z 004b6490 f i glm.obj
 0001:000b55f0       ??0?$tmat4x2@N$0A@@glm@@QAE@ABU?$tmat2x4@N$0A@@1@@Z 004b65f0 f i glm.obj
 0001:000b5750       ??0?$tmat4x2@N$0A@@glm@@QAE@ABU?$tmat3x2@N$0A@@1@@Z 004b6750 f i glm.obj
 0001:000b5910       ??0?$tmat4x2@N$0A@@glm@@QAE@ABU?$tmat3x3@N$0A@@1@@Z 004b6910 f i glm.obj
 0001:000b5aa0       ??0?$tmat4x2@N$0A@@glm@@QAE@ABU?$tmat3x4@N$0A@@1@@Z 004b6aa0 f i glm.obj
 0001:000b5c30       ??0?$tmat4x2@N$0A@@glm@@QAE@ABU?$tmat4x3@N$0A@@1@@Z 004b6c30 f i glm.obj
 0001:000b5de0       ??0?$tmat4x2@N$0A@@glm@@QAE@ABU?$tmat4x4@N$0A@@1@@Z 004b6de0 f i glm.obj
 0001:000b5f90       ??0?$tmat4x2@N$0A@@glm@@QAE@ABU?$tvec2@N$0A@@1@000@Z 004b6f90 f i glm.obj
 0001:000b6080       ??0?$tmat4x2@N$0A@@glm@@QAE@N@Z 004b7080 f i glm.obj
 0001:000b61a0       ??0?$tmat4x2@N$0A@@glm@@QAE@NNNNNNNN@Z 004b71a0 f i glm.obj
 0001:000b62d0       ??0?$tmat4x2@N$0A@@glm@@QAE@W4ctor@1@@Z 004b72d0 f i glm.obj
 0001:000b6330       ??0?$tmat4x2@N$0A@@glm@@QAE@XZ 004b7330 f i glm.obj
 0001:000b6440       ??0?$tmat4x3@M$00@glm@@QAE@ABM00000000000@Z 004b7440 f i glm.obj
 0001:000b6620       ??0?$tmat4x3@M$00@glm@@QAE@ABM@Z 004b7620 f i glm.obj
 0001:000b6750       ??0?$tmat4x3@M$00@glm@@QAE@ABU?$tmat2x2@M$00@1@@Z 004b7750 f i glm.obj
 0001:000b68b0       ??0?$tmat4x3@M$00@glm@@QAE@ABU?$tmat2x3@M$00@1@@Z 004b78b0 f i glm.obj
 0001:000b6a20       ??0?$tmat4x3@M$00@glm@@QAE@ABU?$tmat2x4@M$00@1@@Z 004b7a20 f i glm.obj
 0001:000b6b80       ??0?$tmat4x3@M$00@glm@@QAE@ABU?$tmat3x2@M$00@1@@Z 004b7b80 f i glm.obj
 0001:000b6d10       ??0?$tmat4x3@M$00@glm@@QAE@ABU?$tmat3x3@M$00@1@@Z 004b7d10 f i glm.obj
 0001:000b6eb0       ??0?$tmat4x3@M$00@glm@@QAE@ABU?$tmat3x4@M$00@1@@Z 004b7eb0 f i glm.obj
 0001:000b7030       ??0?$tmat4x3@M$00@glm@@QAE@ABU?$tmat4x2@M$00@1@@Z 004b8030 f i glm.obj
 0001:000b71e0       ??0?$tmat4x3@M$00@glm@@QAE@ABU?$tmat4x4@M$00@1@@Z 004b81e0 f i glm.obj
 0001:000b7380       ??0?$tmat4x3@M$00@glm@@QAE@ABU?$tvec3@M$00@1@000@Z 004b8380 f i glm.obj
 0001:000b7460       ??0?$tmat4x3@M$00@glm@@QAE@W4ctor@1@@Z 004b8460 f i glm.obj
 0001:000b74c0       ??0?$tmat4x3@M$00@glm@@QAE@XZ 004b84c0 f i glm.obj
 0001:000b75c0       ??0?$tmat4x3@M$01@glm@@QAE@ABM00000000000@Z 004b85c0 f i glm.obj
 0001:000b77a0       ??0?$tmat4x3@M$01@glm@@QAE@ABM@Z 004b87a0 f i glm.obj
 0001:000b78d0       ??0?$tmat4x3@M$01@glm@@QAE@ABU?$tmat2x2@M$01@1@@Z 004b88d0 f i glm.obj
 0001:000b7a30       ??0?$tmat4x3@M$01@glm@@QAE@ABU?$tmat2x3@M$01@1@@Z 004b8a30 f i glm.obj
 0001:000b7ba0       ??0?$tmat4x3@M$01@glm@@QAE@ABU?$tmat2x4@M$01@1@@Z 004b8ba0 f i glm.obj
 0001:000b7d00       ??0?$tmat4x3@M$01@glm@@QAE@ABU?$tmat3x2@M$01@1@@Z 004b8d00 f i glm.obj
 0001:000b7e90       ??0?$tmat4x3@M$01@glm@@QAE@ABU?$tmat3x3@M$01@1@@Z 004b8e90 f i glm.obj
 0001:000b8030       ??0?$tmat4x3@M$01@glm@@QAE@ABU?$tmat3x4@M$01@1@@Z 004b9030 f i glm.obj
 0001:000b81b0       ??0?$tmat4x3@M$01@glm@@QAE@ABU?$tmat4x2@M$01@1@@Z 004b91b0 f i glm.obj
 0001:000b8360       ??0?$tmat4x3@M$01@glm@@QAE@ABU?$tmat4x4@M$01@1@@Z 004b9360 f i glm.obj
 0001:000b8500       ??0?$tmat4x3@M$01@glm@@QAE@ABU?$tvec3@M$01@1@000@Z 004b9500 f i glm.obj
 0001:000b85e0       ??0?$tmat4x3@M$01@glm@@QAE@W4ctor@1@@Z 004b95e0 f i glm.obj
 0001:000b8640       ??0?$tmat4x3@M$01@glm@@QAE@XZ 004b9640 f i glm.obj
 0001:000b8740       ??0?$tmat4x3@M$0A@@glm@@QAE@ABM00000000000@Z 004b9740 f i glm.obj
 0001:000b8920       ??0?$tmat4x3@M$0A@@glm@@QAE@ABM@Z 004b9920 f i glm.obj
 0001:000b8a50       ??0?$tmat4x3@M$0A@@glm@@QAE@ABU?$tmat2x2@M$0A@@1@@Z 004b9a50 f i glm.obj
 0001:000b8bb0       ??0?$tmat4x3@M$0A@@glm@@QAE@ABU?$tmat2x3@M$0A@@1@@Z 004b9bb0 f i glm.obj
 0001:000b8d20       ??0?$tmat4x3@M$0A@@glm@@QAE@ABU?$tmat2x4@M$0A@@1@@Z 004b9d20 f i glm.obj
 0001:000b8e80       ??0?$tmat4x3@M$0A@@glm@@QAE@ABU?$tmat3x2@M$0A@@1@@Z 004b9e80 f i glm.obj
 0001:000b9010       ??0?$tmat4x3@M$0A@@glm@@QAE@ABU?$tmat3x3@M$0A@@1@@Z 004ba010 f i glm.obj
 0001:000b91b0       ??0?$tmat4x3@M$0A@@glm@@QAE@ABU?$tmat3x4@M$0A@@1@@Z 004ba1b0 f i glm.obj
 0001:000b9330       ??0?$tmat4x3@M$0A@@glm@@QAE@ABU?$tmat4x2@M$0A@@1@@Z 004ba330 f i glm.obj
 0001:000b94e0       ??0?$tmat4x3@M$0A@@glm@@QAE@ABU?$tmat4x4@M$0A@@1@@Z 004ba4e0 f i glm.obj
 0001:000b9680       ??0?$tmat4x3@M$0A@@glm@@QAE@ABU?$tvec3@M$0A@@1@000@Z 004ba680 f i glm.obj
 0001:000b9760       ??0?$tmat4x3@M$0A@@glm@@QAE@W4ctor@1@@Z 004ba760 f i glm.obj
 0001:000b97c0       ??0?$tmat4x3@M$0A@@glm@@QAE@XZ 004ba7c0 f i glm.obj
 0001:000b98c0       ??0?$tmat4x3@N$00@glm@@QAE@ABN00000000000@Z 004ba8c0 f i glm.obj
 0001:000b9b20       ??0?$tmat4x3@N$00@glm@@QAE@ABN@Z 004bab20 f i glm.obj
 0001:000b9ca0       ??0?$tmat4x3@N$00@glm@@QAE@ABU?$tmat2x2@N$00@1@@Z 004baca0 f i glm.obj
 0001:000b9e50       ??0?$tmat4x3@N$00@glm@@QAE@ABU?$tmat2x3@N$00@1@@Z 004bae50 f i glm.obj
 0001:000ba030       ??0?$tmat4x3@N$00@glm@@QAE@ABU?$tmat2x4@N$00@1@@Z 004bb030 f i glm.obj
 0001:000ba1d0       ??0?$tmat4x3@N$00@glm@@QAE@ABU?$tmat3x2@N$00@1@@Z 004bb1d0 f i glm.obj
 0001:000ba3a0       ??0?$tmat4x3@N$00@glm@@QAE@ABU?$tmat3x3@N$00@1@@Z 004bb3a0 f i glm.obj
 0001:000ba5c0       ??0?$tmat4x3@N$00@glm@@QAE@ABU?$tmat3x4@N$00@1@@Z 004bb5c0 f i glm.obj
 0001:000ba790       ??0?$tmat4x3@N$00@glm@@QAE@ABU?$tmat4x2@N$00@1@@Z 004bb790 f i glm.obj
 0001:000ba980       ??0?$tmat4x3@N$00@glm@@QAE@ABU?$tmat4x4@N$00@1@@Z 004bb980 f i glm.obj
 0001:000bab70       ??0?$tmat4x3@N$00@glm@@QAE@ABU?$tvec3@N$00@1@000@Z 004bbb70 f i glm.obj
 0001:000bac90       ??0?$tmat4x3@N$00@glm@@QAE@W4ctor@1@@Z 004bbc90 f i glm.obj
 0001:000bacf0       ??0?$tmat4x3@N$00@glm@@QAE@XZ 004bbcf0 f i glm.obj
 0001:000bae40       ??0?$tmat4x3@N$01@glm@@QAE@ABN00000000000@Z 004bbe40 f i glm.obj
 0001:000bb0a0       ??0?$tmat4x3@N$01@glm@@QAE@ABN@Z 004bc0a0 f i glm.obj
 0001:000bb220       ??0?$tmat4x3@N$01@glm@@QAE@ABU?$tmat2x2@N$01@1@@Z 004bc220 f i glm.obj
 0001:000bb3d0       ??0?$tmat4x3@N$01@glm@@QAE@ABU?$tmat2x3@N$01@1@@Z 004bc3d0 f i glm.obj
 0001:000bb5b0       ??0?$tmat4x3@N$01@glm@@QAE@ABU?$tmat2x4@N$01@1@@Z 004bc5b0 f i glm.obj
 0001:000bb750       ??0?$tmat4x3@N$01@glm@@QAE@ABU?$tmat3x2@N$01@1@@Z 004bc750 f i glm.obj
 0001:000bb920       ??0?$tmat4x3@N$01@glm@@QAE@ABU?$tmat3x3@N$01@1@@Z 004bc920 f i glm.obj
 0001:000bbb40       ??0?$tmat4x3@N$01@glm@@QAE@ABU?$tmat3x4@N$01@1@@Z 004bcb40 f i glm.obj
 0001:000bbd10       ??0?$tmat4x3@N$01@glm@@QAE@ABU?$tmat4x2@N$01@1@@Z 004bcd10 f i glm.obj
 0001:000bbf00       ??0?$tmat4x3@N$01@glm@@QAE@ABU?$tmat4x4@N$01@1@@Z 004bcf00 f i glm.obj
 0001:000bc0f0       ??0?$tmat4x3@N$01@glm@@QAE@ABU?$tvec3@N$01@1@000@Z 004bd0f0 f i glm.obj
 0001:000bc210       ??0?$tmat4x3@N$01@glm@@QAE@W4ctor@1@@Z 004bd210 f i glm.obj
 0001:000bc270       ??0?$tmat4x3@N$01@glm@@QAE@XZ 004bd270 f i glm.obj
 0001:000bc3c0       ??0?$tmat4x3@N$0A@@glm@@QAE@ABN00000000000@Z 004bd3c0 f i glm.obj
 0001:000bc620       ??0?$tmat4x3@N$0A@@glm@@QAE@ABN@Z 004bd620 f i glm.obj
 0001:000bc7a0       ??0?$tmat4x3@N$0A@@glm@@QAE@ABU?$tmat2x2@N$0A@@1@@Z 004bd7a0 f i glm.obj
 0001:000bc950       ??0?$tmat4x3@N$0A@@glm@@QAE@ABU?$tmat2x3@N$0A@@1@@Z 004bd950 f i glm.obj
 0001:000bcb30       ??0?$tmat4x3@N$0A@@glm@@QAE@ABU?$tmat2x4@N$0A@@1@@Z 004bdb30 f i glm.obj
 0001:000bccd0       ??0?$tmat4x3@N$0A@@glm@@QAE@ABU?$tmat3x2@N$0A@@1@@Z 004bdcd0 f i glm.obj
 0001:000bcea0       ??0?$tmat4x3@N$0A@@glm@@QAE@ABU?$tmat3x3@N$0A@@1@@Z 004bdea0 f i glm.obj
 0001:000bd0c0       ??0?$tmat4x3@N$0A@@glm@@QAE@ABU?$tmat3x4@N$0A@@1@@Z 004be0c0 f i glm.obj
 0001:000bd290       ??0?$tmat4x3@N$0A@@glm@@QAE@ABU?$tmat4x2@N$0A@@1@@Z 004be290 f i glm.obj
 0001:000bd480       ??0?$tmat4x3@N$0A@@glm@@QAE@ABU?$tmat4x4@N$0A@@1@@Z 004be480 f i glm.obj
 0001:000bd670       ??0?$tmat4x3@N$0A@@glm@@QAE@ABU?$tvec3@N$0A@@1@000@Z 004be670 f i glm.obj
 0001:000bd790       ??0?$tmat4x3@N$0A@@glm@@QAE@W4ctor@1@@Z 004be790 f i glm.obj
 0001:000bd7f0       ??0?$tmat4x3@N$0A@@glm@@QAE@XZ 004be7f0 f i glm.obj
 0001:000bd940       ??0?$tmat4x4@M$00@glm@@QAE@ABM000000000000000@Z 004be940 f i glm.obj
 0001:000bdbb0       ??0?$tmat4x4@M$00@glm@@QAE@ABM@Z 004bebb0 f i glm.obj
 0001:000bdd10       ??0?$tmat4x4@M$00@glm@@QAE@ABU?$tmat2x2@M$00@1@@Z 004bed10 f i glm.obj
 0001:000bde90       ??0?$tmat4x4@M$00@glm@@QAE@ABU?$tmat2x3@M$00@1@@Z 004bee90 f i glm.obj
 0001:000be010       ??0?$tmat4x4@M$00@glm@@QAE@ABU?$tmat2x4@M$00@1@@Z 004bf010 f i glm.obj
 0001:000be180       ??0?$tmat4x4@M$00@glm@@QAE@ABU?$tmat3x2@M$00@1@@Z 004bf180 f i glm.obj
 0001:000be330       ??0?$tmat4x4@M$00@glm@@QAE@ABU?$tmat3x3@M$00@1@@Z 004bf330 f i glm.obj
 0001:000be4d0       ??0?$tmat4x4@M$00@glm@@QAE@ABU?$tmat3x4@M$00@1@@Z 004bf4d0 f i glm.obj
 0001:000be650       ??0?$tmat4x4@M$00@glm@@QAE@ABU?$tmat4x2@M$00@1@@Z 004bf650 f i glm.obj
 0001:000be7d0       ??0?$tmat4x4@M$00@glm@@QAE@ABU?$tmat4x3@M$00@1@@Z 004bf7d0 f i glm.obj
 0001:000be9a0       ??0?$tmat4x4@M$00@glm@@QAE@ABU?$tvec4@M$00@1@000@Z 004bf9a0 f i glm.obj
 0001:000beaa0       ??0?$tmat4x4@M$00@glm@@QAE@W4ctor@1@@Z 004bfaa0 f i glm.obj
 0001:000beb10       ??0?$tmat4x4@M$00@glm@@QAE@XZ 004bfb10 f i glm.obj
 0001:000bec40       ??0?$tmat4x4@M$01@glm@@QAE@ABM000000000000000@Z 004bfc40 f i glm.obj
 0001:000beeb0       ??0?$tmat4x4@M$01@glm@@QAE@ABM@Z 004bfeb0 f i glm.obj
 0001:000bf010       ??0?$tmat4x4@M$01@glm@@QAE@ABU?$tmat2x2@M$01@1@@Z 004c0010 f i glm.obj
 0001:000bf190       ??0?$tmat4x4@M$01@glm@@QAE@ABU?$tmat2x3@M$01@1@@Z 004c0190 f i glm.obj
 0001:000bf310       ??0?$tmat4x4@M$01@glm@@QAE@ABU?$tmat2x4@M$01@1@@Z 004c0310 f i glm.obj
 0001:000bf480       ??0?$tmat4x4@M$01@glm@@QAE@ABU?$tmat3x2@M$01@1@@Z 004c0480 f i glm.obj
 0001:000bf630       ??0?$tmat4x4@M$01@glm@@QAE@ABU?$tmat3x3@M$01@1@@Z 004c0630 f i glm.obj
 0001:000bf7d0       ??0?$tmat4x4@M$01@glm@@QAE@ABU?$tmat3x4@M$01@1@@Z 004c07d0 f i glm.obj
 0001:000bf950       ??0?$tmat4x4@M$01@glm@@QAE@ABU?$tmat4x2@M$01@1@@Z 004c0950 f i glm.obj
 0001:000bfad0       ??0?$tmat4x4@M$01@glm@@QAE@ABU?$tmat4x3@M$01@1@@Z 004c0ad0 f i glm.obj
 0001:000bfca0       ??0?$tmat4x4@M$01@glm@@QAE@ABU?$tvec4@M$01@1@000@Z 004c0ca0 f i glm.obj
 0001:000bfda0       ??0?$tmat4x4@M$01@glm@@QAE@W4ctor@1@@Z 004c0da0 f i glm.obj
 0001:000bfe10       ??0?$tmat4x4@M$01@glm@@QAE@XZ 004c0e10 f i glm.obj
 0001:000bff40       ??0?$tmat4x4@M$0A@@glm@@QAE@ABM000000000000000@Z 004c0f40 f i glm.obj
 0001:000c01b0       ??0?$tmat4x4@M$0A@@glm@@QAE@ABU?$tmat2x2@M$0A@@1@@Z 004c11b0 f i glm.obj
 0001:000c0330       ??0?$tmat4x4@M$0A@@glm@@QAE@ABU?$tmat2x3@M$0A@@1@@Z 004c1330 f i glm.obj
 0001:000c04b0       ??0?$tmat4x4@M$0A@@glm@@QAE@ABU?$tmat2x4@M$0A@@1@@Z 004c14b0 f i glm.obj
 0001:000c0620       ??0?$tmat4x4@M$0A@@glm@@QAE@ABU?$tmat3x2@M$0A@@1@@Z 004c1620 f i glm.obj
 0001:000c07d0       ??0?$tmat4x4@M$0A@@glm@@QAE@ABU?$tmat3x4@M$0A@@1@@Z 004c17d0 f i glm.obj
 0001:000c0950       ??0?$tmat4x4@M$0A@@glm@@QAE@ABU?$tmat4x2@M$0A@@1@@Z 004c1950 f i glm.obj
 0001:000c0ad0       ??0?$tmat4x4@M$0A@@glm@@QAE@ABU?$tmat4x3@M$0A@@1@@Z 004c1ad0 f i glm.obj
 0001:000c0ca0       ??0?$tmat4x4@M$0A@@glm@@QAE@ABU?$tvec4@M$0A@@1@000@Z 004c1ca0 f i glm.obj
 0001:000c0da0       ??0?$tmat4x4@N$00@glm@@QAE@ABN000000000000000@Z 004c1da0 f i glm.obj
 0001:000c1010       ??0?$tmat4x4@N$00@glm@@QAE@ABN@Z 004c2010 f i glm.obj
 0001:000c1150       ??0?$tmat4x4@N$00@glm@@QAE@ABU?$tmat2x2@N$00@1@@Z 004c2150 f i glm.obj
 0001:000c12b0       ??0?$tmat4x4@N$00@glm@@QAE@ABU?$tmat2x3@N$00@1@@Z 004c22b0 f i glm.obj
 0001:000c1400       ??0?$tmat4x4@N$00@glm@@QAE@ABU?$tmat2x4@N$00@1@@Z 004c2400 f i glm.obj
 0001:000c1530       ??0?$tmat4x4@N$00@glm@@QAE@ABU?$tmat3x2@N$00@1@@Z 004c2530 f i glm.obj
 0001:000c16b0       ??0?$tmat4x4@N$00@glm@@QAE@ABU?$tmat3x3@N$00@1@@Z 004c26b0 f i glm.obj
 0001:000c1830       ??0?$tmat4x4@N$00@glm@@QAE@ABU?$tmat3x4@N$00@1@@Z 004c2830 f i glm.obj
 0001:000c1980       ??0?$tmat4x4@N$00@glm@@QAE@ABU?$tmat4x2@N$00@1@@Z 004c2980 f i glm.obj
 0001:000c1ae0       ??0?$tmat4x4@N$00@glm@@QAE@ABU?$tmat4x3@N$00@1@@Z 004c2ae0 f i glm.obj
 0001:000c1c80       ??0?$tmat4x4@N$00@glm@@QAE@ABU?$tvec4@N$00@1@000@Z 004c2c80 f i glm.obj
 0001:000c1d50       ??0?$tmat4x4@N$00@glm@@QAE@W4ctor@1@@Z 004c2d50 f i glm.obj
 0001:000c1dc0       ??0?$tmat4x4@N$00@glm@@QAE@XZ 004c2dc0 f i glm.obj
 0001:000c1ed0       ??0?$tmat4x4@N$01@glm@@QAE@ABN000000000000000@Z 004c2ed0 f i glm.obj
 0001:000c2140       ??0?$tmat4x4@N$01@glm@@QAE@ABN@Z 004c3140 f i glm.obj
 0001:000c2280       ??0?$tmat4x4@N$01@glm@@QAE@ABU?$tmat2x2@N$01@1@@Z 004c3280 f i glm.obj
 0001:000c23e0       ??0?$tmat4x4@N$01@glm@@QAE@ABU?$tmat2x3@N$01@1@@Z 004c33e0 f i glm.obj
 0001:000c2530       ??0?$tmat4x4@N$01@glm@@QAE@ABU?$tmat2x4@N$01@1@@Z 004c3530 f i glm.obj
 0001:000c2660       ??0?$tmat4x4@N$01@glm@@QAE@ABU?$tmat3x2@N$01@1@@Z 004c3660 f i glm.obj
 0001:000c27e0       ??0?$tmat4x4@N$01@glm@@QAE@ABU?$tmat3x3@N$01@1@@Z 004c37e0 f i glm.obj
 0001:000c2960       ??0?$tmat4x4@N$01@glm@@QAE@ABU?$tmat3x4@N$01@1@@Z 004c3960 f i glm.obj
 0001:000c2ab0       ??0?$tmat4x4@N$01@glm@@QAE@ABU?$tmat4x2@N$01@1@@Z 004c3ab0 f i glm.obj
 0001:000c2c10       ??0?$tmat4x4@N$01@glm@@QAE@ABU?$tmat4x3@N$01@1@@Z 004c3c10 f i glm.obj
 0001:000c2db0       ??0?$tmat4x4@N$01@glm@@QAE@ABU?$tvec4@N$01@1@000@Z 004c3db0 f i glm.obj
 0001:000c2e80       ??0?$tmat4x4@N$01@glm@@QAE@W4ctor@1@@Z 004c3e80 f i glm.obj
 0001:000c2ef0       ??0?$tmat4x4@N$01@glm@@QAE@XZ 004c3ef0 f i glm.obj
 0001:000c3000       ??0?$tmat4x4@N$0A@@glm@@QAE@ABN000000000000000@Z 004c4000 f i glm.obj
 0001:000c3270       ??0?$tmat4x4@N$0A@@glm@@QAE@ABN@Z 004c4270 f i glm.obj
 0001:000c33b0       ??0?$tmat4x4@N$0A@@glm@@QAE@ABU?$tmat2x2@N$0A@@1@@Z 004c43b0 f i glm.obj
 0001:000c3510       ??0?$tmat4x4@N$0A@@glm@@QAE@ABU?$tmat2x3@N$0A@@1@@Z 004c4510 f i glm.obj
 0001:000c3660       ??0?$tmat4x4@N$0A@@glm@@QAE@ABU?$tmat2x4@N$0A@@1@@Z 004c4660 f i glm.obj
 0001:000c3790       ??0?$tmat4x4@N$0A@@glm@@QAE@ABU?$tmat3x2@N$0A@@1@@Z 004c4790 f i glm.obj
 0001:000c3910       ??0?$tmat4x4@N$0A@@glm@@QAE@ABU?$tmat3x3@N$0A@@1@@Z 004c4910 f i glm.obj
 0001:000c3a90       ??0?$tmat4x4@N$0A@@glm@@QAE@ABU?$tmat3x4@N$0A@@1@@Z 004c4a90 f i glm.obj
 0001:000c3be0       ??0?$tmat4x4@N$0A@@glm@@QAE@ABU?$tmat4x2@N$0A@@1@@Z 004c4be0 f i glm.obj
 0001:000c3d40       ??0?$tmat4x4@N$0A@@glm@@QAE@ABU?$tmat4x3@N$0A@@1@@Z 004c4d40 f i glm.obj
 0001:000c3ee0       ??0?$tmat4x4@N$0A@@glm@@QAE@ABU?$tvec4@N$0A@@1@000@Z 004c4ee0 f i glm.obj
 0001:000c3fb0       ??0?$tmat4x4@N$0A@@glm@@QAE@W4ctor@1@@Z 004c4fb0 f i glm.obj
 0001:000c4020       ??0?$tmat4x4@N$0A@@glm@@QAE@XZ 004c5020 f i glm.obj
 0001:000c4130       ??0?$tquat@M$00@glm@@QAE@ABM000@Z 004c5130 f i glm.obj
 0001:000c4170       ??0?$tquat@M$00@glm@@QAE@ABMABU?$tvec3@M$00@1@@Z 004c5170 f i glm.obj
 0001:000c41b0       ??0?$tquat@M$00@glm@@QAE@ABU?$tmat3x3@M$00@1@@Z 004c51b0 f i glm.obj
 0001:000c41f0       ??0?$tquat@M$00@glm@@QAE@ABU?$tmat4x4@M$00@1@@Z 004c51f0 f i glm.obj
 0001:000c4250       ??0?$tquat@M$00@glm@@QAE@ABU?$tvec3@M$00@1@0@Z 004c5250 f i glm.obj
 0001:000c4310       ??0?$tquat@M$00@glm@@QAE@ABU?$tvec3@M$00@1@@Z 004c5310 f i glm.obj
 0001:000c44b0       ??0?$tquat@M$00@glm@@QAE@W4ctor@1@@Z 004c54b0 f i glm.obj
 0001:000c44c0       ??0?$tquat@M$00@glm@@QAE@XZ 004c54c0 f i glm.obj
 0001:000c4500       ??0?$tquat@M$01@glm@@QAE@ABM000@Z 004c5500 f i glm.obj
 0001:000c4540       ??0?$tquat@M$01@glm@@QAE@ABMABU?$tvec3@M$01@1@@Z 004c5540 f i glm.obj
 0001:000c4580       ??0?$tquat@M$01@glm@@QAE@ABU?$tmat3x3@M$01@1@@Z 004c5580 f i glm.obj
 0001:000c45c0       ??0?$tquat@M$01@glm@@QAE@ABU?$tmat4x4@M$01@1@@Z 004c55c0 f i glm.obj
 0001:000c4620       ??0?$tquat@M$01@glm@@QAE@ABU?$tvec3@M$01@1@0@Z 004c5620 f i glm.obj
 0001:000c46e0       ??0?$tquat@M$01@glm@@QAE@ABU?$tvec3@M$01@1@@Z 004c56e0 f i glm.obj
 0001:000c4880       ??0?$tquat@M$01@glm@@QAE@W4ctor@1@@Z 004c5880 f i glm.obj
 0001:000c4890       ??0?$tquat@M$01@glm@@QAE@XZ 004c5890 f i glm.obj
 0001:000c48d0       ??0?$tquat@M$0A@@glm@@QAE@ABM000@Z 004c58d0 f i glm.obj
 0001:000c4910       ??0?$tquat@M$0A@@glm@@QAE@ABMABU?$tvec3@M$0A@@1@@Z 004c5910 f i glm.obj
 0001:000c4950       ??0?$tquat@M$0A@@glm@@QAE@ABU?$tmat3x3@M$0A@@1@@Z 004c5950 f i glm.obj
 0001:000c4990       ??0?$tquat@M$0A@@glm@@QAE@ABU?$tmat4x4@M$0A@@1@@Z 004c5990 f i glm.obj
 0001:000c49f0       ??0?$tquat@M$0A@@glm@@QAE@ABU?$tvec3@M$0A@@1@0@Z 004c59f0 f i glm.obj
 0001:000c4ab0       ??0?$tquat@M$0A@@glm@@QAE@ABU?$tvec3@M$0A@@1@@Z 004c5ab0 f i glm.obj
 0001:000c4c50       ??0?$tquat@M$0A@@glm@@QAE@W4ctor@1@@Z 004c5c50 f i glm.obj
 0001:000c4c60       ??0?$tquat@M$0A@@glm@@QAE@XZ 004c5c60 f i glm.obj
 0001:000c4ca0       ??0?$tquat@N$00@glm@@QAE@ABN000@Z 004c5ca0 f i glm.obj
 0001:000c4cf0       ??0?$tquat@N$00@glm@@QAE@ABNABU?$tvec3@N$00@1@@Z 004c5cf0 f i glm.obj
 0001:000c4d40       ??0?$tquat@N$00@glm@@QAE@ABU?$tmat3x3@N$00@1@@Z 004c5d40 f i glm.obj
 0001:000c4d80       ??0?$tquat@N$00@glm@@QAE@ABU?$tmat4x4@N$00@1@@Z 004c5d80 f i glm.obj
 0001:000c4dd0       ??0?$tquat@N$00@glm@@QAE@ABU?$tvec3@N$00@1@0@Z 004c5dd0 f i glm.obj
 0001:000c4e80       ??0?$tquat@N$00@glm@@QAE@ABU?$tvec3@N$00@1@@Z 004c5e80 f i glm.obj
 0001:000c5030       ??0?$tquat@N$00@glm@@QAE@W4ctor@1@@Z 004c6030 f i glm.obj
 0001:000c5040       ??0?$tquat@N$00@glm@@QAE@XZ 004c6040 f i glm.obj
 0001:000c5080       ??0?$tquat@N$01@glm@@QAE@ABN000@Z 004c6080 f i glm.obj
 0001:000c50d0       ??0?$tquat@N$01@glm@@QAE@ABNABU?$tvec3@N$01@1@@Z 004c60d0 f i glm.obj
 0001:000c5120       ??0?$tquat@N$01@glm@@QAE@ABU?$tmat3x3@N$01@1@@Z 004c6120 f i glm.obj
 0001:000c5160       ??0?$tquat@N$01@glm@@QAE@ABU?$tmat4x4@N$01@1@@Z 004c6160 f i glm.obj
 0001:000c51b0       ??0?$tquat@N$01@glm@@QAE@ABU?$tvec3@N$01@1@0@Z 004c61b0 f i glm.obj
 0001:000c5260       ??0?$tquat@N$01@glm@@QAE@ABU?$tvec3@N$01@1@@Z 004c6260 f i glm.obj
 0001:000c5410       ??0?$tquat@N$01@glm@@QAE@W4ctor@1@@Z 004c6410 f i glm.obj
 0001:000c5420       ??0?$tquat@N$01@glm@@QAE@XZ 004c6420 f i glm.obj
 0001:000c5460       ??0?$tquat@N$0A@@glm@@QAE@ABN000@Z 004c6460 f i glm.obj
 0001:000c54b0       ??0?$tquat@N$0A@@glm@@QAE@ABNABU?$tvec3@N$0A@@1@@Z 004c64b0 f i glm.obj
 0001:000c5500       ??0?$tquat@N$0A@@glm@@QAE@ABU?$tmat3x3@N$0A@@1@@Z 004c6500 f i glm.obj
 0001:000c5540       ??0?$tquat@N$0A@@glm@@QAE@ABU?$tmat4x4@N$0A@@1@@Z 004c6540 f i glm.obj
 0001:000c5590       ??0?$tquat@N$0A@@glm@@QAE@ABU?$tvec3@N$0A@@1@0@Z 004c6590 f i glm.obj
 0001:000c5640       ??0?$tquat@N$0A@@glm@@QAE@ABU?$tvec3@N$0A@@1@@Z 004c6640 f i glm.obj
 0001:000c57f0       ??0?$tquat@N$0A@@glm@@QAE@W4ctor@1@@Z 004c67f0 f i glm.obj
 0001:000c5800       ??0?$tquat@N$0A@@glm@@QAE@XZ 004c6800 f i glm.obj
 0001:000c5840       ??0?$tvec1@C$00@glm@@QAE@C@Z 004c6840 f i glm.obj
 0001:000c5860       ??0?$tvec1@C$00@glm@@QAE@W4ctor@1@@Z 004c6860 f i glm.obj
 0001:000c5870       ??0?$tvec1@C$00@glm@@QAE@XZ 004c6870 f i glm.obj
 0001:000c5890       ??0?$tvec1@C$01@glm@@QAE@C@Z 004c6890 f i glm.obj
 0001:000c58b0       ??0?$tvec1@C$01@glm@@QAE@W4ctor@1@@Z 004c68b0 f i glm.obj
 0001:000c58c0       ??0?$tvec1@C$01@glm@@QAE@XZ 004c68c0 f i glm.obj
 0001:000c58e0       ??0?$tvec1@C$0A@@glm@@QAE@C@Z 004c68e0 f i glm.obj
 0001:000c5900       ??0?$tvec1@C$0A@@glm@@QAE@W4ctor@1@@Z 004c6900 f i glm.obj
 0001:000c5910       ??0?$tvec1@C$0A@@glm@@QAE@XZ 004c6910 f i glm.obj
 0001:000c5930       ??0?$tvec1@E$00@glm@@QAE@E@Z 004c6930 f i glm.obj
 0001:000c5950       ??0?$tvec1@E$00@glm@@QAE@W4ctor@1@@Z 004c6950 f i glm.obj
 0001:000c5960       ??0?$tvec1@E$00@glm@@QAE@XZ 004c6960 f i glm.obj
 0001:000c5980       ??0?$tvec1@E$01@glm@@QAE@E@Z 004c6980 f i glm.obj
 0001:000c59a0       ??0?$tvec1@E$01@glm@@QAE@W4ctor@1@@Z 004c69a0 f i glm.obj
 0001:000c59b0       ??0?$tvec1@E$01@glm@@QAE@XZ 004c69b0 f i glm.obj
 0001:000c59d0       ??0?$tvec1@E$0A@@glm@@QAE@E@Z 004c69d0 f i glm.obj
 0001:000c59f0       ??0?$tvec1@E$0A@@glm@@QAE@W4ctor@1@@Z 004c69f0 f i glm.obj
 0001:000c5a00       ??0?$tvec1@E$0A@@glm@@QAE@XZ 004c6a00 f i glm.obj
 0001:000c5a20       ??0?$tvec1@F$00@glm@@QAE@F@Z 004c6a20 f i glm.obj
 0001:000c5a40       ??0?$tvec1@F$00@glm@@QAE@W4ctor@1@@Z 004c6a40 f i glm.obj
 0001:000c5a50       ??0?$tvec1@F$00@glm@@QAE@XZ 004c6a50 f i glm.obj
 0001:000c5a70       ??0?$tvec1@F$01@glm@@QAE@F@Z 004c6a70 f i glm.obj
 0001:000c5a90       ??0?$tvec1@F$01@glm@@QAE@W4ctor@1@@Z 004c6a90 f i glm.obj
 0001:000c5aa0       ??0?$tvec1@F$01@glm@@QAE@XZ 004c6aa0 f i glm.obj
 0001:000c5ac0       ??0?$tvec1@F$0A@@glm@@QAE@F@Z 004c6ac0 f i glm.obj
 0001:000c5ae0       ??0?$tvec1@F$0A@@glm@@QAE@W4ctor@1@@Z 004c6ae0 f i glm.obj
 0001:000c5af0       ??0?$tvec1@F$0A@@glm@@QAE@XZ 004c6af0 f i glm.obj
 0001:000c5b10       ??0?$tvec1@G$00@glm@@QAE@G@Z 004c6b10 f i glm.obj
 0001:000c5b30       ??0?$tvec1@G$00@glm@@QAE@W4ctor@1@@Z 004c6b30 f i glm.obj
 0001:000c5b40       ??0?$tvec1@G$00@glm@@QAE@XZ 004c6b40 f i glm.obj
 0001:000c5b60       ??0?$tvec1@G$01@glm@@QAE@G@Z 004c6b60 f i glm.obj
 0001:000c5b80       ??0?$tvec1@G$01@glm@@QAE@W4ctor@1@@Z 004c6b80 f i glm.obj
 0001:000c5b90       ??0?$tvec1@G$01@glm@@QAE@XZ 004c6b90 f i glm.obj
 0001:000c5bb0       ??0?$tvec1@G$0A@@glm@@QAE@G@Z 004c6bb0 f i glm.obj
 0001:000c5bd0       ??0?$tvec1@G$0A@@glm@@QAE@W4ctor@1@@Z 004c6bd0 f i glm.obj
 0001:000c5be0       ??0?$tvec1@G$0A@@glm@@QAE@XZ 004c6be0 f i glm.obj
 0001:000c5c00       ??0?$tvec1@H$00@glm@@QAE@H@Z 004c6c00 f i glm.obj
 0001:000c5c20       ??0?$tvec1@H$00@glm@@QAE@W4ctor@1@@Z 004c6c20 f i glm.obj
 0001:000c5c30       ??0?$tvec1@H$00@glm@@QAE@XZ 004c6c30 f i glm.obj
 0001:000c5c50       ??0?$tvec1@H$01@glm@@QAE@H@Z 004c6c50 f i glm.obj
 0001:000c5c70       ??0?$tvec1@H$01@glm@@QAE@W4ctor@1@@Z 004c6c70 f i glm.obj
 0001:000c5c80       ??0?$tvec1@H$01@glm@@QAE@XZ 004c6c80 f i glm.obj
 0001:000c5ca0       ??0?$tvec1@H$0A@@glm@@QAE@H@Z 004c6ca0 f i glm.obj
 0001:000c5cc0       ??0?$tvec1@H$0A@@glm@@QAE@W4ctor@1@@Z 004c6cc0 f i glm.obj
 0001:000c5cd0       ??0?$tvec1@H$0A@@glm@@QAE@XZ 004c6cd0 f i glm.obj
 0001:000c5cf0       ??0?$tvec1@I$00@glm@@QAE@I@Z 004c6cf0 f i glm.obj
 0001:000c5d10       ??0?$tvec1@I$00@glm@@QAE@W4ctor@1@@Z 004c6d10 f i glm.obj
 0001:000c5d20       ??0?$tvec1@I$00@glm@@QAE@XZ 004c6d20 f i glm.obj
 0001:000c5d40       ??0?$tvec1@I$01@glm@@QAE@I@Z 004c6d40 f i glm.obj
 0001:000c5d60       ??0?$tvec1@I$01@glm@@QAE@W4ctor@1@@Z 004c6d60 f i glm.obj
 0001:000c5d70       ??0?$tvec1@I$01@glm@@QAE@XZ 004c6d70 f i glm.obj
 0001:000c5d90       ??0?$tvec1@I$0A@@glm@@QAE@I@Z 004c6d90 f i glm.obj
 0001:000c5db0       ??0?$tvec1@I$0A@@glm@@QAE@W4ctor@1@@Z 004c6db0 f i glm.obj
 0001:000c5dc0       ??0?$tvec1@I$0A@@glm@@QAE@XZ 004c6dc0 f i glm.obj
 0001:000c5de0       ??0?$tvec1@M$00@glm@@QAE@M@Z 004c6de0 f i glm.obj
 0001:000c5e00       ??0?$tvec1@M$00@glm@@QAE@W4ctor@1@@Z 004c6e00 f i glm.obj
 0001:000c5e10       ??0?$tvec1@M$00@glm@@QAE@XZ 004c6e10 f i glm.obj
 0001:000c5e30       ??0?$tvec1@M$01@glm@@QAE@M@Z 004c6e30 f i glm.obj
 0001:000c5e50       ??0?$tvec1@M$01@glm@@QAE@W4ctor@1@@Z 004c6e50 f i glm.obj
 0001:000c5e60       ??0?$tvec1@M$01@glm@@QAE@XZ 004c6e60 f i glm.obj
 0001:000c5e80       ??0?$tvec1@M$0A@@glm@@QAE@M@Z 004c6e80 f i glm.obj
 0001:000c5ea0       ??0?$tvec1@M$0A@@glm@@QAE@W4ctor@1@@Z 004c6ea0 f i glm.obj
 0001:000c5eb0       ??0?$tvec1@M$0A@@glm@@QAE@XZ 004c6eb0 f i glm.obj
 0001:000c5ed0       ??0?$tvec1@N$00@glm@@QAE@N@Z 004c6ed0 f i glm.obj
 0001:000c5ef0       ??0?$tvec1@N$00@glm@@QAE@W4ctor@1@@Z 004c6ef0 f i glm.obj
 0001:000c5f00       ??0?$tvec1@N$00@glm@@QAE@XZ 004c6f00 f i glm.obj
 0001:000c5f20       ??0?$tvec1@N$01@glm@@QAE@N@Z 004c6f20 f i glm.obj
 0001:000c5f40       ??0?$tvec1@N$01@glm@@QAE@W4ctor@1@@Z 004c6f40 f i glm.obj
 0001:000c5f50       ??0?$tvec1@N$01@glm@@QAE@XZ 004c6f50 f i glm.obj
 0001:000c5f70       ??0?$tvec1@N$0A@@glm@@QAE@N@Z 004c6f70 f i glm.obj
 0001:000c5f90       ??0?$tvec1@N$0A@@glm@@QAE@W4ctor@1@@Z 004c6f90 f i glm.obj
 0001:000c5fa0       ??0?$tvec1@N$0A@@glm@@QAE@XZ 004c6fa0 f i glm.obj
 0001:000c5fc0       ??0?$tvec1@_J$00@glm@@QAE@W4ctor@1@@Z 004c6fc0 f i glm.obj
 0001:000c5fd0       ??0?$tvec1@_J$00@glm@@QAE@XZ 004c6fd0 f i glm.obj
 0001:000c5ff0       ??0?$tvec1@_J$00@glm@@QAE@_J@Z 004c6ff0 f i glm.obj
 0001:000c6010       ??0?$tvec1@_J$01@glm@@QAE@W4ctor@1@@Z 004c7010 f i glm.obj
 0001:000c6020       ??0?$tvec1@_J$01@glm@@QAE@XZ 004c7020 f i glm.obj
 0001:000c6040       ??0?$tvec1@_J$01@glm@@QAE@_J@Z 004c7040 f i glm.obj
 0001:000c6060       ??0?$tvec1@_J$0A@@glm@@QAE@W4ctor@1@@Z 004c7060 f i glm.obj
 0001:000c6070       ??0?$tvec1@_J$0A@@glm@@QAE@XZ 004c7070 f i glm.obj
 0001:000c6090       ??0?$tvec1@_J$0A@@glm@@QAE@_J@Z 004c7090 f i glm.obj
 0001:000c60b0       ??0?$tvec1@_K$00@glm@@QAE@W4ctor@1@@Z 004c70b0 f i glm.obj
 0001:000c60c0       ??0?$tvec1@_K$00@glm@@QAE@XZ 004c70c0 f i glm.obj
 0001:000c60e0       ??0?$tvec1@_K$00@glm@@QAE@_K@Z 004c70e0 f i glm.obj
 0001:000c6100       ??0?$tvec1@_K$01@glm@@QAE@W4ctor@1@@Z 004c7100 f i glm.obj
 0001:000c6110       ??0?$tvec1@_K$01@glm@@QAE@XZ 004c7110 f i glm.obj
 0001:000c6130       ??0?$tvec1@_K$01@glm@@QAE@_K@Z 004c7130 f i glm.obj
 0001:000c6150       ??0?$tvec1@_K$0A@@glm@@QAE@W4ctor@1@@Z 004c7150 f i glm.obj
 0001:000c6160       ??0?$tvec1@_K$0A@@glm@@QAE@XZ 004c7160 f i glm.obj
 0001:000c6180       ??0?$tvec1@_K$0A@@glm@@QAE@_K@Z 004c7180 f i glm.obj
 0001:000c61a0       ??0?$tvec2@C$00@glm@@QAE@C@Z 004c71a0 f i glm.obj
 0001:000c61d0       ??0?$tvec2@C$00@glm@@QAE@CC@Z 004c71d0 f i glm.obj
 0001:000c6200       ??0?$tvec2@C$00@glm@@QAE@W4ctor@1@@Z 004c7200 f i glm.obj
 0001:000c6210       ??0?$tvec2@C$00@glm@@QAE@XZ 004c7210 f i glm.obj
 0001:000c6230       ??0?$tvec2@C$01@glm@@QAE@C@Z 004c7230 f i glm.obj
 0001:000c6260       ??0?$tvec2@C$01@glm@@QAE@CC@Z 004c7260 f i glm.obj
 0001:000c6290       ??0?$tvec2@C$01@glm@@QAE@W4ctor@1@@Z 004c7290 f i glm.obj
 0001:000c62a0       ??0?$tvec2@C$01@glm@@QAE@XZ 004c72a0 f i glm.obj
 0001:000c62c0       ??0?$tvec2@C$0A@@glm@@QAE@C@Z 004c72c0 f i glm.obj
 0001:000c62f0       ??0?$tvec2@C$0A@@glm@@QAE@CC@Z 004c72f0 f i glm.obj
 0001:000c6320       ??0?$tvec2@C$0A@@glm@@QAE@W4ctor@1@@Z 004c7320 f i glm.obj
 0001:000c6330       ??0?$tvec2@C$0A@@glm@@QAE@XZ 004c7330 f i glm.obj
 0001:000c6350       ??0?$tvec2@E$00@glm@@QAE@E@Z 004c7350 f i glm.obj
 0001:000c6380       ??0?$tvec2@E$00@glm@@QAE@EE@Z 004c7380 f i glm.obj
 0001:000c63b0       ??0?$tvec2@E$00@glm@@QAE@W4ctor@1@@Z 004c73b0 f i glm.obj
 0001:000c63c0       ??0?$tvec2@E$00@glm@@QAE@XZ 004c73c0 f i glm.obj
 0001:000c63e0       ??0?$tvec2@E$01@glm@@QAE@E@Z 004c73e0 f i glm.obj
 0001:000c6410       ??0?$tvec2@E$01@glm@@QAE@EE@Z 004c7410 f i glm.obj
 0001:000c6440       ??0?$tvec2@E$01@glm@@QAE@W4ctor@1@@Z 004c7440 f i glm.obj
 0001:000c6450       ??0?$tvec2@E$01@glm@@QAE@XZ 004c7450 f i glm.obj
 0001:000c6470       ??0?$tvec2@E$0A@@glm@@QAE@E@Z 004c7470 f i glm.obj
 0001:000c64a0       ??0?$tvec2@E$0A@@glm@@QAE@EE@Z 004c74a0 f i glm.obj
 0001:000c64d0       ??0?$tvec2@E$0A@@glm@@QAE@W4ctor@1@@Z 004c74d0 f i glm.obj
 0001:000c64e0       ??0?$tvec2@E$0A@@glm@@QAE@XZ 004c74e0 f i glm.obj
 0001:000c6500       ??0?$tvec2@F$00@glm@@QAE@F@Z 004c7500 f i glm.obj
 0001:000c6530       ??0?$tvec2@F$00@glm@@QAE@FF@Z 004c7530 f i glm.obj
 0001:000c6560       ??0?$tvec2@F$00@glm@@QAE@W4ctor@1@@Z 004c7560 f i glm.obj
 0001:000c6570       ??0?$tvec2@F$00@glm@@QAE@XZ 004c7570 f i glm.obj
 0001:000c6590       ??0?$tvec2@F$01@glm@@QAE@F@Z 004c7590 f i glm.obj
 0001:000c65c0       ??0?$tvec2@F$01@glm@@QAE@FF@Z 004c75c0 f i glm.obj
 0001:000c65f0       ??0?$tvec2@F$01@glm@@QAE@W4ctor@1@@Z 004c75f0 f i glm.obj
 0001:000c6600       ??0?$tvec2@F$01@glm@@QAE@XZ 004c7600 f i glm.obj
 0001:000c6620       ??0?$tvec2@F$0A@@glm@@QAE@F@Z 004c7620 f i glm.obj
 0001:000c6650       ??0?$tvec2@F$0A@@glm@@QAE@FF@Z 004c7650 f i glm.obj
 0001:000c6680       ??0?$tvec2@F$0A@@glm@@QAE@W4ctor@1@@Z 004c7680 f i glm.obj
 0001:000c6690       ??0?$tvec2@F$0A@@glm@@QAE@XZ 004c7690 f i glm.obj
 0001:000c66b0       ??0?$tvec2@G$00@glm@@QAE@G@Z 004c76b0 f i glm.obj
 0001:000c66e0       ??0?$tvec2@G$00@glm@@QAE@GG@Z 004c76e0 f i glm.obj
 0001:000c6710       ??0?$tvec2@G$00@glm@@QAE@W4ctor@1@@Z 004c7710 f i glm.obj
 0001:000c6720       ??0?$tvec2@G$00@glm@@QAE@XZ 004c7720 f i glm.obj
 0001:000c6740       ??0?$tvec2@G$01@glm@@QAE@G@Z 004c7740 f i glm.obj
 0001:000c6770       ??0?$tvec2@G$01@glm@@QAE@GG@Z 004c7770 f i glm.obj
 0001:000c67a0       ??0?$tvec2@G$01@glm@@QAE@W4ctor@1@@Z 004c77a0 f i glm.obj
 0001:000c67b0       ??0?$tvec2@G$01@glm@@QAE@XZ 004c77b0 f i glm.obj
 0001:000c67d0       ??0?$tvec2@G$0A@@glm@@QAE@G@Z 004c77d0 f i glm.obj
 0001:000c6800       ??0?$tvec2@G$0A@@glm@@QAE@GG@Z 004c7800 f i glm.obj
 0001:000c6830       ??0?$tvec2@G$0A@@glm@@QAE@W4ctor@1@@Z 004c7830 f i glm.obj
 0001:000c6840       ??0?$tvec2@G$0A@@glm@@QAE@XZ 004c7840 f i glm.obj
 0001:000c6860       ??0?$tvec2@H$00@glm@@QAE@H@Z 004c7860 f i glm.obj
 0001:000c6890       ??0?$tvec2@H$00@glm@@QAE@HH@Z 004c7890 f i glm.obj
 0001:000c68c0       ??0?$tvec2@H$00@glm@@QAE@W4ctor@1@@Z 004c78c0 f i glm.obj
 0001:000c68d0       ??0?$tvec2@H$00@glm@@QAE@XZ 004c78d0 f i glm.obj
 0001:000c6900       ??0?$tvec2@H$01@glm@@QAE@H@Z 004c7900 f i glm.obj
 0001:000c6930       ??0?$tvec2@H$01@glm@@QAE@HH@Z 004c7930 f i glm.obj
 0001:000c6960       ??0?$tvec2@H$01@glm@@QAE@W4ctor@1@@Z 004c7960 f i glm.obj
 0001:000c6970       ??0?$tvec2@H$01@glm@@QAE@XZ 004c7970 f i glm.obj
 0001:000c69a0       ??0?$tvec2@H$0A@@glm@@QAE@H@Z 004c79a0 f i glm.obj
 0001:000c69d0       ??0?$tvec2@H$0A@@glm@@QAE@HH@Z 004c79d0 f i glm.obj
 0001:000c6a00       ??0?$tvec2@H$0A@@glm@@QAE@W4ctor@1@@Z 004c7a00 f i glm.obj
 0001:000c6a10       ??0?$tvec2@H$0A@@glm@@QAE@XZ 004c7a10 f i glm.obj
 0001:000c6a40       ??0?$tvec2@I$00@glm@@QAE@I@Z 004c7a40 f i glm.obj
 0001:000c6a70       ??0?$tvec2@I$00@glm@@QAE@II@Z 004c7a70 f i glm.obj
 0001:000c6aa0       ??0?$tvec2@I$00@glm@@QAE@W4ctor@1@@Z 004c7aa0 f i glm.obj
 0001:000c6ab0       ??0?$tvec2@I$00@glm@@QAE@XZ 004c7ab0 f i glm.obj
 0001:000c6ae0       ??0?$tvec2@I$01@glm@@QAE@I@Z 004c7ae0 f i glm.obj
 0001:000c6b10       ??0?$tvec2@I$01@glm@@QAE@II@Z 004c7b10 f i glm.obj
 0001:000c6b40       ??0?$tvec2@I$01@glm@@QAE@W4ctor@1@@Z 004c7b40 f i glm.obj
 0001:000c6b50       ??0?$tvec2@I$01@glm@@QAE@XZ 004c7b50 f i glm.obj
 0001:000c6b80       ??0?$tvec2@I$0A@@glm@@QAE@I@Z 004c7b80 f i glm.obj
 0001:000c6bb0       ??0?$tvec2@I$0A@@glm@@QAE@II@Z 004c7bb0 f i glm.obj
 0001:000c6be0       ??0?$tvec2@I$0A@@glm@@QAE@W4ctor@1@@Z 004c7be0 f i glm.obj
 0001:000c6bf0       ??0?$tvec2@I$0A@@glm@@QAE@XZ 004c7bf0 f i glm.obj
 0001:000c6c20       ??0?$tvec2@M$00@glm@@QAE@M@Z 004c7c20 f i glm.obj
 0001:000c6c50       ??0?$tvec2@M$00@glm@@QAE@MM@Z 004c7c50 f i glm.obj
 0001:000c6c80       ??0?$tvec2@M$00@glm@@QAE@W4ctor@1@@Z 004c7c80 f i glm.obj
 0001:000c6c90       ??0?$tvec2@M$00@glm@@QAE@XZ 004c7c90 f i glm.obj
 0001:000c6cc0       ??0?$tvec2@M$01@glm@@QAE@M@Z 004c7cc0 f i glm.obj
 0001:000c6cf0       ??0?$tvec2@M$01@glm@@QAE@MM@Z 004c7cf0 f i glm.obj
 0001:000c6d20       ??0?$tvec2@M$01@glm@@QAE@W4ctor@1@@Z 004c7d20 f i glm.obj
 0001:000c6d30       ??0?$tvec2@M$01@glm@@QAE@XZ 004c7d30 f i glm.obj
 0001:000c6d60       ??0?$tvec2@M$0A@@glm@@QAE@M@Z 004c7d60 f i glm.obj
 0001:000c6d90       ??0?$tvec2@M$0A@@glm@@QAE@MM@Z 004c7d90 f i glm.obj
 0001:000c6dc0       ??0?$tvec2@M$0A@@glm@@QAE@W4ctor@1@@Z 004c7dc0 f i glm.obj
 0001:000c6dd0       ??0?$tvec2@M$0A@@glm@@QAE@XZ 004c7dd0 f i glm.obj
 0001:000c6e00       ??0?$tvec2@N$00@glm@@QAE@N@Z 004c7e00 f i glm.obj
 0001:000c6e30       ??0?$tvec2@N$00@glm@@QAE@NN@Z 004c7e30 f i glm.obj
 0001:000c6e60       ??0?$tvec2@N$00@glm@@QAE@W4ctor@1@@Z 004c7e60 f i glm.obj
 0001:000c6e70       ??0?$tvec2@N$00@glm@@QAE@XZ 004c7e70 f i glm.obj
 0001:000c6ea0       ??0?$tvec2@N$01@glm@@QAE@N@Z 004c7ea0 f i glm.obj
 0001:000c6ed0       ??0?$tvec2@N$01@glm@@QAE@NN@Z 004c7ed0 f i glm.obj
 0001:000c6f00       ??0?$tvec2@N$01@glm@@QAE@W4ctor@1@@Z 004c7f00 f i glm.obj
 0001:000c6f10       ??0?$tvec2@N$01@glm@@QAE@XZ 004c7f10 f i glm.obj
 0001:000c6f40       ??0?$tvec2@N$0A@@glm@@QAE@N@Z 004c7f40 f i glm.obj
 0001:000c6f70       ??0?$tvec2@N$0A@@glm@@QAE@NN@Z 004c7f70 f i glm.obj
 0001:000c6fa0       ??0?$tvec2@N$0A@@glm@@QAE@W4ctor@1@@Z 004c7fa0 f i glm.obj
 0001:000c6fb0       ??0?$tvec2@N$0A@@glm@@QAE@XZ 004c7fb0 f i glm.obj
 0001:000c6fe0       ??0?$tvec2@_J$00@glm@@QAE@W4ctor@1@@Z 004c7fe0 f i glm.obj
 0001:000c6ff0       ??0?$tvec2@_J$00@glm@@QAE@XZ 004c7ff0 f i glm.obj
 0001:000c7020       ??0?$tvec2@_J$00@glm@@QAE@_J0@Z 004c8020 f i glm.obj
 0001:000c7050       ??0?$tvec2@_J$00@glm@@QAE@_J@Z 004c8050 f i glm.obj
 0001:000c7080       ??0?$tvec2@_J$01@glm@@QAE@W4ctor@1@@Z 004c8080 f i glm.obj
 0001:000c7090       ??0?$tvec2@_J$01@glm@@QAE@XZ 004c8090 f i glm.obj
 0001:000c70c0       ??0?$tvec2@_J$01@glm@@QAE@_J0@Z 004c80c0 f i glm.obj
 0001:000c70f0       ??0?$tvec2@_J$01@glm@@QAE@_J@Z 004c80f0 f i glm.obj
 0001:000c7120       ??0?$tvec2@_J$0A@@glm@@QAE@W4ctor@1@@Z 004c8120 f i glm.obj
 0001:000c7130       ??0?$tvec2@_J$0A@@glm@@QAE@XZ 004c8130 f i glm.obj
 0001:000c7160       ??0?$tvec2@_J$0A@@glm@@QAE@_J0@Z 004c8160 f i glm.obj
 0001:000c7190       ??0?$tvec2@_J$0A@@glm@@QAE@_J@Z 004c8190 f i glm.obj
 0001:000c71c0       ??0?$tvec2@_K$00@glm@@QAE@W4ctor@1@@Z 004c81c0 f i glm.obj
 0001:000c71d0       ??0?$tvec2@_K$00@glm@@QAE@XZ 004c81d0 f i glm.obj
 0001:000c7200       ??0?$tvec2@_K$00@glm@@QAE@_K0@Z 004c8200 f i glm.obj
 0001:000c7230       ??0?$tvec2@_K$00@glm@@QAE@_K@Z 004c8230 f i glm.obj
 0001:000c7260       ??0?$tvec2@_K$01@glm@@QAE@W4ctor@1@@Z 004c8260 f i glm.obj
 0001:000c7270       ??0?$tvec2@_K$01@glm@@QAE@XZ 004c8270 f i glm.obj
 0001:000c72a0       ??0?$tvec2@_K$01@glm@@QAE@_K0@Z 004c82a0 f i glm.obj
 0001:000c72d0       ??0?$tvec2@_K$01@glm@@QAE@_K@Z 004c82d0 f i glm.obj
 0001:000c7300       ??0?$tvec2@_K$0A@@glm@@QAE@W4ctor@1@@Z 004c8300 f i glm.obj
 0001:000c7310       ??0?$tvec2@_K$0A@@glm@@QAE@XZ 004c8310 f i glm.obj
 0001:000c7340       ??0?$tvec2@_K$0A@@glm@@QAE@_K0@Z 004c8340 f i glm.obj
 0001:000c7370       ??0?$tvec2@_K$0A@@glm@@QAE@_K@Z 004c8370 f i glm.obj
 0001:000c73a0       ??0?$tvec3@C$00@glm@@QAE@C@Z 004c83a0 f i glm.obj
 0001:000c73d0       ??0?$tvec3@C$00@glm@@QAE@CCC@Z 004c83d0 f i glm.obj
 0001:000c7400       ??0?$tvec3@C$00@glm@@QAE@W4ctor@1@@Z 004c8400 f i glm.obj
 0001:000c7410       ??0?$tvec3@C$00@glm@@QAE@XZ 004c8410 f i glm.obj
 0001:000c7440       ??0?$tvec3@C$01@glm@@QAE@C@Z 004c8440 f i glm.obj
 0001:000c7470       ??0?$tvec3@C$01@glm@@QAE@CCC@Z 004c8470 f i glm.obj
 0001:000c74a0       ??0?$tvec3@C$01@glm@@QAE@W4ctor@1@@Z 004c84a0 f i glm.obj
 0001:000c74b0       ??0?$tvec3@C$01@glm@@QAE@XZ 004c84b0 f i glm.obj
 0001:000c74e0       ??0?$tvec3@C$0A@@glm@@QAE@C@Z 004c84e0 f i glm.obj
 0001:000c7510       ??0?$tvec3@C$0A@@glm@@QAE@CCC@Z 004c8510 f i glm.obj
 0001:000c7540       ??0?$tvec3@C$0A@@glm@@QAE@W4ctor@1@@Z 004c8540 f i glm.obj
 0001:000c7550       ??0?$tvec3@C$0A@@glm@@QAE@XZ 004c8550 f i glm.obj
 0001:000c7580       ??0?$tvec3@E$00@glm@@QAE@E@Z 004c8580 f i glm.obj
 0001:000c75b0       ??0?$tvec3@E$00@glm@@QAE@EEE@Z 004c85b0 f i glm.obj
 0001:000c75e0       ??0?$tvec3@E$00@glm@@QAE@W4ctor@1@@Z 004c85e0 f i glm.obj
 0001:000c75f0       ??0?$tvec3@E$00@glm@@QAE@XZ 004c85f0 f i glm.obj
 0001:000c7620       ??0?$tvec3@E$01@glm@@QAE@E@Z 004c8620 f i glm.obj
 0001:000c7650       ??0?$tvec3@E$01@glm@@QAE@EEE@Z 004c8650 f i glm.obj
 0001:000c7680       ??0?$tvec3@E$01@glm@@QAE@W4ctor@1@@Z 004c8680 f i glm.obj
 0001:000c7690       ??0?$tvec3@E$01@glm@@QAE@XZ 004c8690 f i glm.obj
 0001:000c76c0       ??0?$tvec3@E$0A@@glm@@QAE@E@Z 004c86c0 f i glm.obj
 0001:000c76f0       ??0?$tvec3@E$0A@@glm@@QAE@EEE@Z 004c86f0 f i glm.obj
 0001:000c7720       ??0?$tvec3@E$0A@@glm@@QAE@W4ctor@1@@Z 004c8720 f i glm.obj
 0001:000c7730       ??0?$tvec3@E$0A@@glm@@QAE@XZ 004c8730 f i glm.obj
 0001:000c7760       ??0?$tvec3@F$00@glm@@QAE@F@Z 004c8760 f i glm.obj
 0001:000c7790       ??0?$tvec3@F$00@glm@@QAE@FFF@Z 004c8790 f i glm.obj
 0001:000c77c0       ??0?$tvec3@F$00@glm@@QAE@W4ctor@1@@Z 004c87c0 f i glm.obj
 0001:000c77d0       ??0?$tvec3@F$00@glm@@QAE@XZ 004c87d0 f i glm.obj
 0001:000c7800       ??0?$tvec3@F$01@glm@@QAE@F@Z 004c8800 f i glm.obj
 0001:000c7830       ??0?$tvec3@F$01@glm@@QAE@FFF@Z 004c8830 f i glm.obj
 0001:000c7860       ??0?$tvec3@F$01@glm@@QAE@W4ctor@1@@Z 004c8860 f i glm.obj
 0001:000c7870       ??0?$tvec3@F$01@glm@@QAE@XZ 004c8870 f i glm.obj
 0001:000c78a0       ??0?$tvec3@F$0A@@glm@@QAE@F@Z 004c88a0 f i glm.obj
 0001:000c78d0       ??0?$tvec3@F$0A@@glm@@QAE@FFF@Z 004c88d0 f i glm.obj
 0001:000c7900       ??0?$tvec3@F$0A@@glm@@QAE@W4ctor@1@@Z 004c8900 f i glm.obj
 0001:000c7910       ??0?$tvec3@F$0A@@glm@@QAE@XZ 004c8910 f i glm.obj
 0001:000c7940       ??0?$tvec3@G$00@glm@@QAE@G@Z 004c8940 f i glm.obj
 0001:000c7970       ??0?$tvec3@G$00@glm@@QAE@GGG@Z 004c8970 f i glm.obj
 0001:000c79a0       ??0?$tvec3@G$00@glm@@QAE@W4ctor@1@@Z 004c89a0 f i glm.obj
 0001:000c79b0       ??0?$tvec3@G$00@glm@@QAE@XZ 004c89b0 f i glm.obj
 0001:000c79e0       ??0?$tvec3@G$01@glm@@QAE@G@Z 004c89e0 f i glm.obj
 0001:000c7a10       ??0?$tvec3@G$01@glm@@QAE@GGG@Z 004c8a10 f i glm.obj
 0001:000c7a40       ??0?$tvec3@G$01@glm@@QAE@W4ctor@1@@Z 004c8a40 f i glm.obj
 0001:000c7a50       ??0?$tvec3@G$01@glm@@QAE@XZ 004c8a50 f i glm.obj
 0001:000c7a80       ??0?$tvec3@G$0A@@glm@@QAE@G@Z 004c8a80 f i glm.obj
 0001:000c7ab0       ??0?$tvec3@G$0A@@glm@@QAE@GGG@Z 004c8ab0 f i glm.obj
 0001:000c7ae0       ??0?$tvec3@G$0A@@glm@@QAE@W4ctor@1@@Z 004c8ae0 f i glm.obj
 0001:000c7af0       ??0?$tvec3@G$0A@@glm@@QAE@XZ 004c8af0 f i glm.obj
 0001:000c7b20       ??0?$tvec3@H$00@glm@@QAE@H@Z 004c8b20 f i glm.obj
 0001:000c7b50       ??0?$tvec3@H$00@glm@@QAE@HHH@Z 004c8b50 f i glm.obj
 0001:000c7b80       ??0?$tvec3@H$00@glm@@QAE@W4ctor@1@@Z 004c8b80 f i glm.obj
 0001:000c7b90       ??0?$tvec3@H$00@glm@@QAE@XZ 004c8b90 f i glm.obj
 0001:000c7bc0       ??0?$tvec3@H$01@glm@@QAE@H@Z 004c8bc0 f i glm.obj
 0001:000c7bf0       ??0?$tvec3@H$01@glm@@QAE@HHH@Z 004c8bf0 f i glm.obj
 0001:000c7c20       ??0?$tvec3@H$01@glm@@QAE@W4ctor@1@@Z 004c8c20 f i glm.obj
 0001:000c7c30       ??0?$tvec3@H$01@glm@@QAE@XZ 004c8c30 f i glm.obj
 0001:000c7c60       ??0?$tvec3@H$0A@@glm@@QAE@H@Z 004c8c60 f i glm.obj
 0001:000c7c90       ??0?$tvec3@H$0A@@glm@@QAE@HHH@Z 004c8c90 f i glm.obj
 0001:000c7cc0       ??0?$tvec3@H$0A@@glm@@QAE@W4ctor@1@@Z 004c8cc0 f i glm.obj
 0001:000c7cd0       ??0?$tvec3@H$0A@@glm@@QAE@XZ 004c8cd0 f i glm.obj
 0001:000c7d00       ??0?$tvec3@I$00@glm@@QAE@I@Z 004c8d00 f i glm.obj
 0001:000c7d30       ??0?$tvec3@I$00@glm@@QAE@III@Z 004c8d30 f i glm.obj
 0001:000c7d60       ??0?$tvec3@I$00@glm@@QAE@W4ctor@1@@Z 004c8d60 f i glm.obj
 0001:000c7d70       ??0?$tvec3@I$00@glm@@QAE@XZ 004c8d70 f i glm.obj
 0001:000c7da0       ??0?$tvec3@I$01@glm@@QAE@I@Z 004c8da0 f i glm.obj
 0001:000c7dd0       ??0?$tvec3@I$01@glm@@QAE@III@Z 004c8dd0 f i glm.obj
 0001:000c7e00       ??0?$tvec3@I$01@glm@@QAE@W4ctor@1@@Z 004c8e00 f i glm.obj
 0001:000c7e10       ??0?$tvec3@I$01@glm@@QAE@XZ 004c8e10 f i glm.obj
 0001:000c7e40       ??0?$tvec3@I$0A@@glm@@QAE@I@Z 004c8e40 f i glm.obj
 0001:000c7e70       ??0?$tvec3@I$0A@@glm@@QAE@III@Z 004c8e70 f i glm.obj
 0001:000c7ea0       ??0?$tvec3@I$0A@@glm@@QAE@W4ctor@1@@Z 004c8ea0 f i glm.obj
 0001:000c7eb0       ??0?$tvec3@I$0A@@glm@@QAE@XZ 004c8eb0 f i glm.obj
 0001:000c7ee0       ??0?$tvec3@M$00@glm@@QAE@M@Z 004c8ee0 f i glm.obj
 0001:000c7f20       ??0?$tvec3@M$00@glm@@QAE@MMM@Z 004c8f20 f i glm.obj
 0001:000c7f60       ??0?$tvec3@M$00@glm@@QAE@W4ctor@1@@Z 004c8f60 f i glm.obj
 0001:000c7f70       ??0?$tvec3@M$00@glm@@QAE@XZ 004c8f70 f i glm.obj
 0001:000c7fa0       ??0?$tvec3@M$01@glm@@QAE@M@Z 004c8fa0 f i glm.obj
 0001:000c7fe0       ??0?$tvec3@M$01@glm@@QAE@MMM@Z 004c8fe0 f i glm.obj
 0001:000c8020       ??0?$tvec3@M$01@glm@@QAE@W4ctor@1@@Z 004c9020 f i glm.obj
 0001:000c8030       ??0?$tvec3@M$01@glm@@QAE@XZ 004c9030 f i glm.obj
 0001:000c8060       ??0?$tvec3@M$0A@@glm@@QAE@M@Z 004c9060 f i glm.obj
 0001:000c80a0       ??0?$tvec3@M$0A@@glm@@QAE@MMM@Z 004c90a0 f i glm.obj
 0001:000c80e0       ??0?$tvec3@M$0A@@glm@@QAE@W4ctor@1@@Z 004c90e0 f i glm.obj
 0001:000c80f0       ??0?$tvec3@M$0A@@glm@@QAE@XZ 004c90f0 f i glm.obj
 0001:000c8120       ??0?$tvec3@N$00@glm@@QAE@N@Z 004c9120 f i glm.obj
 0001:000c8160       ??0?$tvec3@N$00@glm@@QAE@NNN@Z 004c9160 f i glm.obj
 0001:000c81a0       ??0?$tvec3@N$00@glm@@QAE@W4ctor@1@@Z 004c91a0 f i glm.obj
 0001:000c81b0       ??0?$tvec3@N$00@glm@@QAE@XZ 004c91b0 f i glm.obj
 0001:000c81e0       ??0?$tvec3@N$01@glm@@QAE@N@Z 004c91e0 f i glm.obj
 0001:000c8220       ??0?$tvec3@N$01@glm@@QAE@NNN@Z 004c9220 f i glm.obj
 0001:000c8260       ??0?$tvec3@N$01@glm@@QAE@W4ctor@1@@Z 004c9260 f i glm.obj
 0001:000c8270       ??0?$tvec3@N$01@glm@@QAE@XZ 004c9270 f i glm.obj
 0001:000c82a0       ??0?$tvec3@N$0A@@glm@@QAE@N@Z 004c92a0 f i glm.obj
 0001:000c82e0       ??0?$tvec3@N$0A@@glm@@QAE@NNN@Z 004c92e0 f i glm.obj
 0001:000c8320       ??0?$tvec3@N$0A@@glm@@QAE@W4ctor@1@@Z 004c9320 f i glm.obj
 0001:000c8330       ??0?$tvec3@N$0A@@glm@@QAE@XZ 004c9330 f i glm.obj
 0001:000c8360       ??0?$tvec3@_J$00@glm@@QAE@W4ctor@1@@Z 004c9360 f i glm.obj
 0001:000c8370       ??0?$tvec3@_J$00@glm@@QAE@XZ 004c9370 f i glm.obj
 0001:000c83b0       ??0?$tvec3@_J$00@glm@@QAE@_J00@Z 004c93b0 f i glm.obj
 0001:000c83f0       ??0?$tvec3@_J$00@glm@@QAE@_J@Z 004c93f0 f i glm.obj
 0001:000c8430       ??0?$tvec3@_J$01@glm@@QAE@W4ctor@1@@Z 004c9430 f i glm.obj
 0001:000c8440       ??0?$tvec3@_J$01@glm@@QAE@XZ 004c9440 f i glm.obj
 0001:000c8480       ??0?$tvec3@_J$01@glm@@QAE@_J00@Z 004c9480 f i glm.obj
 0001:000c84c0       ??0?$tvec3@_J$01@glm@@QAE@_J@Z 004c94c0 f i glm.obj
 0001:000c8500       ??0?$tvec3@_J$0A@@glm@@QAE@W4ctor@1@@Z 004c9500 f i glm.obj
 0001:000c8510       ??0?$tvec3@_J$0A@@glm@@QAE@XZ 004c9510 f i glm.obj
 0001:000c8550       ??0?$tvec3@_J$0A@@glm@@QAE@_J00@Z 004c9550 f i glm.obj
 0001:000c8590       ??0?$tvec3@_J$0A@@glm@@QAE@_J@Z 004c9590 f i glm.obj
 0001:000c85d0       ??0?$tvec3@_K$00@glm@@QAE@W4ctor@1@@Z 004c95d0 f i glm.obj
 0001:000c85e0       ??0?$tvec3@_K$00@glm@@QAE@XZ 004c95e0 f i glm.obj
 0001:000c8620       ??0?$tvec3@_K$00@glm@@QAE@_K00@Z 004c9620 f i glm.obj
 0001:000c8660       ??0?$tvec3@_K$00@glm@@QAE@_K@Z 004c9660 f i glm.obj
 0001:000c86a0       ??0?$tvec3@_K$01@glm@@QAE@W4ctor@1@@Z 004c96a0 f i glm.obj
 0001:000c86b0       ??0?$tvec3@_K$01@glm@@QAE@XZ 004c96b0 f i glm.obj
 0001:000c86f0       ??0?$tvec3@_K$01@glm@@QAE@_K00@Z 004c96f0 f i glm.obj
 0001:000c8730       ??0?$tvec3@_K$01@glm@@QAE@_K@Z 004c9730 f i glm.obj
 0001:000c8770       ??0?$tvec3@_K$0A@@glm@@QAE@W4ctor@1@@Z 004c9770 f i glm.obj
 0001:000c8780       ??0?$tvec3@_K$0A@@glm@@QAE@XZ 004c9780 f i glm.obj
 0001:000c87c0       ??0?$tvec3@_K$0A@@glm@@QAE@_K00@Z 004c97c0 f i glm.obj
 0001:000c8800       ??0?$tvec3@_K$0A@@glm@@QAE@_K@Z 004c9800 f i glm.obj
 0001:000c8840       ??0?$tvec4@C$00@glm@@QAE@C@Z 004c9840 f i glm.obj
 0001:000c8880       ??0?$tvec4@C$00@glm@@QAE@CCCC@Z 004c9880 f i glm.obj
 0001:000c88c0       ??0?$tvec4@C$00@glm@@QAE@W4ctor@1@@Z 004c98c0 f i glm.obj
 0001:000c88d0       ??0?$tvec4@C$00@glm@@QAE@XZ 004c98d0 f i glm.obj
 0001:000c8900       ??0?$tvec4@C$01@glm@@QAE@C@Z 004c9900 f i glm.obj
 0001:000c8940       ??0?$tvec4@C$01@glm@@QAE@CCCC@Z 004c9940 f i glm.obj
 0001:000c8980       ??0?$tvec4@C$01@glm@@QAE@W4ctor@1@@Z 004c9980 f i glm.obj
 0001:000c8990       ??0?$tvec4@C$01@glm@@QAE@XZ 004c9990 f i glm.obj
 0001:000c89c0       ??0?$tvec4@C$0A@@glm@@QAE@C@Z 004c99c0 f i glm.obj
 0001:000c8a00       ??0?$tvec4@C$0A@@glm@@QAE@CCCC@Z 004c9a00 f i glm.obj
 0001:000c8a40       ??0?$tvec4@C$0A@@glm@@QAE@W4ctor@1@@Z 004c9a40 f i glm.obj
 0001:000c8a50       ??0?$tvec4@C$0A@@glm@@QAE@XZ 004c9a50 f i glm.obj
 0001:000c8a80       ??0?$tvec4@E$00@glm@@QAE@E@Z 004c9a80 f i glm.obj
 0001:000c8ac0       ??0?$tvec4@E$00@glm@@QAE@EEEE@Z 004c9ac0 f i glm.obj
 0001:000c8b00       ??0?$tvec4@E$00@glm@@QAE@W4ctor@1@@Z 004c9b00 f i glm.obj
 0001:000c8b10       ??0?$tvec4@E$00@glm@@QAE@XZ 004c9b10 f i glm.obj
 0001:000c8b40       ??0?$tvec4@E$01@glm@@QAE@E@Z 004c9b40 f i glm.obj
 0001:000c8b80       ??0?$tvec4@E$01@glm@@QAE@EEEE@Z 004c9b80 f i glm.obj
 0001:000c8bc0       ??0?$tvec4@E$01@glm@@QAE@W4ctor@1@@Z 004c9bc0 f i glm.obj
 0001:000c8bd0       ??0?$tvec4@E$01@glm@@QAE@XZ 004c9bd0 f i glm.obj
 0001:000c8c00       ??0?$tvec4@E$0A@@glm@@QAE@E@Z 004c9c00 f i glm.obj
 0001:000c8c40       ??0?$tvec4@E$0A@@glm@@QAE@EEEE@Z 004c9c40 f i glm.obj
 0001:000c8c80       ??0?$tvec4@E$0A@@glm@@QAE@W4ctor@1@@Z 004c9c80 f i glm.obj
 0001:000c8c90       ??0?$tvec4@E$0A@@glm@@QAE@XZ 004c9c90 f i glm.obj
 0001:000c8cc0       ??0?$tvec4@F$00@glm@@QAE@F@Z 004c9cc0 f i glm.obj
 0001:000c8d00       ??0?$tvec4@F$00@glm@@QAE@FFFF@Z 004c9d00 f i glm.obj
 0001:000c8d40       ??0?$tvec4@F$00@glm@@QAE@W4ctor@1@@Z 004c9d40 f i glm.obj
 0001:000c8d50       ??0?$tvec4@F$00@glm@@QAE@XZ 004c9d50 f i glm.obj
 0001:000c8d90       ??0?$tvec4@F$01@glm@@QAE@F@Z 004c9d90 f i glm.obj
 0001:000c8dd0       ??0?$tvec4@F$01@glm@@QAE@FFFF@Z 004c9dd0 f i glm.obj
 0001:000c8e10       ??0?$tvec4@F$01@glm@@QAE@W4ctor@1@@Z 004c9e10 f i glm.obj
 0001:000c8e20       ??0?$tvec4@F$01@glm@@QAE@XZ 004c9e20 f i glm.obj
 0001:000c8e60       ??0?$tvec4@F$0A@@glm@@QAE@F@Z 004c9e60 f i glm.obj
 0001:000c8ea0       ??0?$tvec4@F$0A@@glm@@QAE@FFFF@Z 004c9ea0 f i glm.obj
 0001:000c8ee0       ??0?$tvec4@F$0A@@glm@@QAE@W4ctor@1@@Z 004c9ee0 f i glm.obj
 0001:000c8ef0       ??0?$tvec4@F$0A@@glm@@QAE@XZ 004c9ef0 f i glm.obj
 0001:000c8f30       ??0?$tvec4@G$00@glm@@QAE@G@Z 004c9f30 f i glm.obj
 0001:000c8f70       ??0?$tvec4@G$00@glm@@QAE@GGGG@Z 004c9f70 f i glm.obj
 0001:000c8fb0       ??0?$tvec4@G$00@glm@@QAE@W4ctor@1@@Z 004c9fb0 f i glm.obj
 0001:000c8fc0       ??0?$tvec4@G$00@glm@@QAE@XZ 004c9fc0 f i glm.obj
 0001:000c9000       ??0?$tvec4@G$01@glm@@QAE@G@Z 004ca000 f i glm.obj
 0001:000c9040       ??0?$tvec4@G$01@glm@@QAE@GGGG@Z 004ca040 f i glm.obj
 0001:000c9080       ??0?$tvec4@G$01@glm@@QAE@W4ctor@1@@Z 004ca080 f i glm.obj
 0001:000c9090       ??0?$tvec4@G$01@glm@@QAE@XZ 004ca090 f i glm.obj
 0001:000c90d0       ??0?$tvec4@G$0A@@glm@@QAE@G@Z 004ca0d0 f i glm.obj
 0001:000c9110       ??0?$tvec4@G$0A@@glm@@QAE@GGGG@Z 004ca110 f i glm.obj
 0001:000c9150       ??0?$tvec4@G$0A@@glm@@QAE@W4ctor@1@@Z 004ca150 f i glm.obj
 0001:000c9160       ??0?$tvec4@G$0A@@glm@@QAE@XZ 004ca160 f i glm.obj
 0001:000c91a0       ??0?$tvec4@H$00@glm@@QAE@H@Z 004ca1a0 f i glm.obj
 0001:000c91e0       ??0?$tvec4@H$00@glm@@QAE@HHHH@Z 004ca1e0 f i glm.obj
 0001:000c9220       ??0?$tvec4@H$00@glm@@QAE@W4ctor@1@@Z 004ca220 f i glm.obj
 0001:000c9230       ??0?$tvec4@H$00@glm@@QAE@XZ 004ca230 f i glm.obj
 0001:000c9270       ??0?$tvec4@H$01@glm@@QAE@H@Z 004ca270 f i glm.obj
 0001:000c92b0       ??0?$tvec4@H$01@glm@@QAE@HHHH@Z 004ca2b0 f i glm.obj
 0001:000c92f0       ??0?$tvec4@H$01@glm@@QAE@W4ctor@1@@Z 004ca2f0 f i glm.obj
 0001:000c9300       ??0?$tvec4@H$01@glm@@QAE@XZ 004ca300 f i glm.obj
 0001:000c9340       ??0?$tvec4@H$0A@@glm@@QAE@H@Z 004ca340 f i glm.obj
 0001:000c9380       ??0?$tvec4@H$0A@@glm@@QAE@HHHH@Z 004ca380 f i glm.obj
 0001:000c93c0       ??0?$tvec4@H$0A@@glm@@QAE@W4ctor@1@@Z 004ca3c0 f i glm.obj
 0001:000c93d0       ??0?$tvec4@H$0A@@glm@@QAE@XZ 004ca3d0 f i glm.obj
 0001:000c9410       ??0?$tvec4@I$00@glm@@QAE@I@Z 004ca410 f i glm.obj
 0001:000c9450       ??0?$tvec4@I$00@glm@@QAE@IIII@Z 004ca450 f i glm.obj
 0001:000c9490       ??0?$tvec4@I$00@glm@@QAE@W4ctor@1@@Z 004ca490 f i glm.obj
 0001:000c94a0       ??0?$tvec4@I$00@glm@@QAE@XZ 004ca4a0 f i glm.obj
 0001:000c94e0       ??0?$tvec4@I$01@glm@@QAE@I@Z 004ca4e0 f i glm.obj
 0001:000c9520       ??0?$tvec4@I$01@glm@@QAE@IIII@Z 004ca520 f i glm.obj
 0001:000c9560       ??0?$tvec4@I$01@glm@@QAE@W4ctor@1@@Z 004ca560 f i glm.obj
 0001:000c9570       ??0?$tvec4@I$01@glm@@QAE@XZ 004ca570 f i glm.obj
 0001:000c95b0       ??0?$tvec4@I$0A@@glm@@QAE@I@Z 004ca5b0 f i glm.obj
 0001:000c95f0       ??0?$tvec4@I$0A@@glm@@QAE@IIII@Z 004ca5f0 f i glm.obj
 0001:000c9630       ??0?$tvec4@I$0A@@glm@@QAE@W4ctor@1@@Z 004ca630 f i glm.obj
 0001:000c9640       ??0?$tvec4@I$0A@@glm@@QAE@XZ 004ca640 f i glm.obj
 0001:000c9680       ??0?$tvec4@M$00@glm@@QAE@M@Z 004ca680 f i glm.obj
 0001:000c96d0       ??0?$tvec4@M$00@glm@@QAE@MMMM@Z 004ca6d0 f i glm.obj
 0001:000c9720       ??0?$tvec4@M$00@glm@@QAE@W4ctor@1@@Z 004ca720 f i glm.obj
 0001:000c9730       ??0?$tvec4@M$00@glm@@QAE@XZ 004ca730 f i glm.obj
 0001:000c9770       ??0?$tvec4@M$01@glm@@QAE@M@Z 004ca770 f i glm.obj
 0001:000c97c0       ??0?$tvec4@M$01@glm@@QAE@MMMM@Z 004ca7c0 f i glm.obj
 0001:000c9810       ??0?$tvec4@M$01@glm@@QAE@W4ctor@1@@Z 004ca810 f i glm.obj
 0001:000c9820       ??0?$tvec4@M$01@glm@@QAE@XZ 004ca820 f i glm.obj
 0001:000c9860       ??0?$tvec4@M$0A@@glm@@QAE@M@Z 004ca860 f i glm.obj
 0001:000c98b0       ??0?$tvec4@M$0A@@glm@@QAE@MMMM@Z 004ca8b0 f i glm.obj
 0001:000c9900       ??0?$tvec4@M$0A@@glm@@QAE@W4ctor@1@@Z 004ca900 f i glm.obj
 0001:000c9910       ??0?$tvec4@M$0A@@glm@@QAE@XZ 004ca910 f i glm.obj
 0001:000c9950       ??0?$tvec4@N$00@glm@@QAE@N@Z 004ca950 f i glm.obj
 0001:000c99a0       ??0?$tvec4@N$00@glm@@QAE@NNNN@Z 004ca9a0 f i glm.obj
 0001:000c99f0       ??0?$tvec4@N$00@glm@@QAE@W4ctor@1@@Z 004ca9f0 f i glm.obj
 0001:000c9a00       ??0?$tvec4@N$00@glm@@QAE@XZ 004caa00 f i glm.obj
 0001:000c9a40       ??0?$tvec4@N$01@glm@@QAE@N@Z 004caa40 f i glm.obj
 0001:000c9a90       ??0?$tvec4@N$01@glm@@QAE@NNNN@Z 004caa90 f i glm.obj
 0001:000c9ae0       ??0?$tvec4@N$01@glm@@QAE@W4ctor@1@@Z 004caae0 f i glm.obj
 0001:000c9af0       ??0?$tvec4@N$01@glm@@QAE@XZ 004caaf0 f i glm.obj
 0001:000c9b30       ??0?$tvec4@N$0A@@glm@@QAE@N@Z 004cab30 f i glm.obj
 0001:000c9b80       ??0?$tvec4@N$0A@@glm@@QAE@NNNN@Z 004cab80 f i glm.obj
 0001:000c9bd0       ??0?$tvec4@N$0A@@glm@@QAE@W4ctor@1@@Z 004cabd0 f i glm.obj
 0001:000c9be0       ??0?$tvec4@N$0A@@glm@@QAE@XZ 004cabe0 f i glm.obj
 0001:000c9c20       ??0?$tvec4@_J$00@glm@@QAE@W4ctor@1@@Z 004cac20 f i glm.obj
 0001:000c9c30       ??0?$tvec4@_J$00@glm@@QAE@XZ 004cac30 f i glm.obj
 0001:000c9c90       ??0?$tvec4@_J$00@glm@@QAE@_J000@Z 004cac90 f i glm.obj
 0001:000c9ce0       ??0?$tvec4@_J$00@glm@@QAE@_J@Z 004cace0 f i glm.obj
 0001:000c9d30       ??0?$tvec4@_J$01@glm@@QAE@W4ctor@1@@Z 004cad30 f i glm.obj
 0001:000c9d40       ??0?$tvec4@_J$01@glm@@QAE@XZ 004cad40 f i glm.obj
 0001:000c9da0       ??0?$tvec4@_J$01@glm@@QAE@_J000@Z 004cada0 f i glm.obj
 0001:000c9df0       ??0?$tvec4@_J$01@glm@@QAE@_J@Z 004cadf0 f i glm.obj
 0001:000c9e40       ??0?$tvec4@_J$0A@@glm@@QAE@W4ctor@1@@Z 004cae40 f i glm.obj
 0001:000c9e50       ??0?$tvec4@_J$0A@@glm@@QAE@XZ 004cae50 f i glm.obj
 0001:000c9eb0       ??0?$tvec4@_J$0A@@glm@@QAE@_J000@Z 004caeb0 f i glm.obj
 0001:000c9f00       ??0?$tvec4@_J$0A@@glm@@QAE@_J@Z 004caf00 f i glm.obj
 0001:000c9f50       ??0?$tvec4@_K$00@glm@@QAE@W4ctor@1@@Z 004caf50 f i glm.obj
 0001:000c9f60       ??0?$tvec4@_K$00@glm@@QAE@XZ 004caf60 f i glm.obj
 0001:000c9fc0       ??0?$tvec4@_K$00@glm@@QAE@_K000@Z 004cafc0 f i glm.obj
 0001:000ca010       ??0?$tvec4@_K$00@glm@@QAE@_K@Z 004cb010 f i glm.obj
 0001:000ca060       ??0?$tvec4@_K$01@glm@@QAE@W4ctor@1@@Z 004cb060 f i glm.obj
 0001:000ca070       ??0?$tvec4@_K$01@glm@@QAE@XZ 004cb070 f i glm.obj
 0001:000ca0d0       ??0?$tvec4@_K$01@glm@@QAE@_K000@Z 004cb0d0 f i glm.obj
 0001:000ca120       ??0?$tvec4@_K$01@glm@@QAE@_K@Z 004cb120 f i glm.obj
 0001:000ca170       ??0?$tvec4@_K$0A@@glm@@QAE@W4ctor@1@@Z 004cb170 f i glm.obj
 0001:000ca180       ??0?$tvec4@_K$0A@@glm@@QAE@XZ 004cb180 f i glm.obj
 0001:000ca1e0       ??0?$tvec4@_K$0A@@glm@@QAE@_K000@Z 004cb1e0 f i glm.obj
 0001:000ca230       ??0?$tvec4@_K$0A@@glm@@QAE@_K@Z 004cb230 f i glm.obj
 0001:000ca280       ??A?$tdualquat@M$00@glm@@QAEAAU?$tquat@M$00@1@H@Z 004cb280 f i glm.obj
 0001:000ca2c0       ??A?$tdualquat@M$00@glm@@QBEABU?$tquat@M$00@1@H@Z 004cb2c0 f i glm.obj
 0001:000ca300       ??A?$tdualquat@M$01@glm@@QAEAAU?$tquat@M$01@1@H@Z 004cb300 f i glm.obj
 0001:000ca340       ??A?$tdualquat@M$01@glm@@QBEABU?$tquat@M$01@1@H@Z 004cb340 f i glm.obj
 0001:000ca380       ??A?$tdualquat@M$0A@@glm@@QAEAAU?$tquat@M$0A@@1@H@Z 004cb380 f i glm.obj
 0001:000ca3c0       ??A?$tdualquat@M$0A@@glm@@QBEABU?$tquat@M$0A@@1@H@Z 004cb3c0 f i glm.obj
 0001:000ca400       ??A?$tdualquat@N$00@glm@@QAEAAU?$tquat@N$00@1@H@Z 004cb400 f i glm.obj
 0001:000ca440       ??A?$tdualquat@N$00@glm@@QBEABU?$tquat@N$00@1@H@Z 004cb440 f i glm.obj
 0001:000ca480       ??A?$tdualquat@N$01@glm@@QAEAAU?$tquat@N$01@1@H@Z 004cb480 f i glm.obj
 0001:000ca4c0       ??A?$tdualquat@N$01@glm@@QBEABU?$tquat@N$01@1@H@Z 004cb4c0 f i glm.obj
 0001:000ca500       ??A?$tdualquat@N$0A@@glm@@QAEAAU?$tquat@N$0A@@1@H@Z 004cb500 f i glm.obj
 0001:000ca540       ??A?$tdualquat@N$0A@@glm@@QBEABU?$tquat@N$0A@@1@H@Z 004cb540 f i glm.obj
 0001:000ca580       ??A?$tmat2x2@M$00@glm@@QAEAAU?$tvec2@M$00@1@H@Z 004cb580 f i glm.obj
 0001:000ca5c0       ??A?$tmat2x2@M$00@glm@@QBEABU?$tvec2@M$00@1@H@Z 004cb5c0 f i glm.obj
 0001:000ca600       ??A?$tmat2x2@M$01@glm@@QAEAAU?$tvec2@M$01@1@H@Z 004cb600 f i glm.obj
 0001:000ca640       ??A?$tmat2x2@M$01@glm@@QBEABU?$tvec2@M$01@1@H@Z 004cb640 f i glm.obj
 0001:000ca680       ??A?$tmat2x2@M$0A@@glm@@QAEAAU?$tvec2@M$0A@@1@H@Z 004cb680 f i glm.obj
 0001:000ca6c0       ??A?$tmat2x2@M$0A@@glm@@QBEABU?$tvec2@M$0A@@1@H@Z 004cb6c0 f i glm.obj
 0001:000ca700       ??A?$tmat2x2@N$00@glm@@QAEAAU?$tvec2@N$00@1@H@Z 004cb700 f i glm.obj
 0001:000ca740       ??A?$tmat2x2@N$00@glm@@QBEABU?$tvec2@N$00@1@H@Z 004cb740 f i glm.obj
 0001:000ca780       ??A?$tmat2x2@N$01@glm@@QAEAAU?$tvec2@N$01@1@H@Z 004cb780 f i glm.obj
 0001:000ca7c0       ??A?$tmat2x2@N$01@glm@@QBEABU?$tvec2@N$01@1@H@Z 004cb7c0 f i glm.obj
 0001:000ca800       ??A?$tmat2x2@N$0A@@glm@@QAEAAU?$tvec2@N$0A@@1@H@Z 004cb800 f i glm.obj
 0001:000ca840       ??A?$tmat2x2@N$0A@@glm@@QBEABU?$tvec2@N$0A@@1@H@Z 004cb840 f i glm.obj
 0001:000ca880       ??A?$tmat2x3@M$00@glm@@QAEAAU?$tvec3@M$00@1@H@Z 004cb880 f i glm.obj
 0001:000ca8c0       ??A?$tmat2x3@M$00@glm@@QBEABU?$tvec3@M$00@1@H@Z 004cb8c0 f i glm.obj
 0001:000ca900       ??A?$tmat2x3@M$01@glm@@QAEAAU?$tvec3@M$01@1@H@Z 004cb900 f i glm.obj
 0001:000ca940       ??A?$tmat2x3@M$01@glm@@QBEABU?$tvec3@M$01@1@H@Z 004cb940 f i glm.obj
 0001:000ca980       ??A?$tmat2x3@M$0A@@glm@@QAEAAU?$tvec3@M$0A@@1@H@Z 004cb980 f i glm.obj
 0001:000ca9c0       ??A?$tmat2x3@M$0A@@glm@@QBEABU?$tvec3@M$0A@@1@H@Z 004cb9c0 f i glm.obj
 0001:000caa00       ??A?$tmat2x3@N$00@glm@@QAEAAU?$tvec3@N$00@1@H@Z 004cba00 f i glm.obj
 0001:000caa40       ??A?$tmat2x3@N$00@glm@@QBEABU?$tvec3@N$00@1@H@Z 004cba40 f i glm.obj
 0001:000caa80       ??A?$tmat2x3@N$01@glm@@QAEAAU?$tvec3@N$01@1@H@Z 004cba80 f i glm.obj
 0001:000caac0       ??A?$tmat2x3@N$01@glm@@QBEABU?$tvec3@N$01@1@H@Z 004cbac0 f i glm.obj
 0001:000cab00       ??A?$tmat2x3@N$0A@@glm@@QAEAAU?$tvec3@N$0A@@1@H@Z 004cbb00 f i glm.obj
 0001:000cab40       ??A?$tmat2x3@N$0A@@glm@@QBEABU?$tvec3@N$0A@@1@H@Z 004cbb40 f i glm.obj
 0001:000cab80       ??A?$tmat2x4@M$00@glm@@QAEAAU?$tvec4@M$00@1@H@Z 004cbb80 f i glm.obj
 0001:000cabc0       ??A?$tmat2x4@M$00@glm@@QBEABU?$tvec4@M$00@1@H@Z 004cbbc0 f i glm.obj
 0001:000cac00       ??A?$tmat2x4@M$01@glm@@QAEAAU?$tvec4@M$01@1@H@Z 004cbc00 f i glm.obj
 0001:000cac40       ??A?$tmat2x4@M$01@glm@@QBEABU?$tvec4@M$01@1@H@Z 004cbc40 f i glm.obj
 0001:000cac80       ??A?$tmat2x4@M$0A@@glm@@QAEAAU?$tvec4@M$0A@@1@H@Z 004cbc80 f i glm.obj
 0001:000cacc0       ??A?$tmat2x4@M$0A@@glm@@QBEABU?$tvec4@M$0A@@1@H@Z 004cbcc0 f i glm.obj
 0001:000cad00       ??A?$tmat2x4@N$00@glm@@QAEAAU?$tvec4@N$00@1@H@Z 004cbd00 f i glm.obj
 0001:000cad40       ??A?$tmat2x4@N$00@glm@@QBEABU?$tvec4@N$00@1@H@Z 004cbd40 f i glm.obj
 0001:000cad80       ??A?$tmat2x4@N$01@glm@@QAEAAU?$tvec4@N$01@1@H@Z 004cbd80 f i glm.obj
 0001:000cadc0       ??A?$tmat2x4@N$01@glm@@QBEABU?$tvec4@N$01@1@H@Z 004cbdc0 f i glm.obj
 0001:000cae00       ??A?$tmat2x4@N$0A@@glm@@QAEAAU?$tvec4@N$0A@@1@H@Z 004cbe00 f i glm.obj
 0001:000cae40       ??A?$tmat2x4@N$0A@@glm@@QBEABU?$tvec4@N$0A@@1@H@Z 004cbe40 f i glm.obj
 0001:000cae80       ??A?$tmat3x2@M$00@glm@@QAEAAU?$tvec2@M$00@1@H@Z 004cbe80 f i glm.obj
 0001:000caec0       ??A?$tmat3x2@M$00@glm@@QBEABU?$tvec2@M$00@1@H@Z 004cbec0 f i glm.obj
 0001:000caf00       ??A?$tmat3x2@M$01@glm@@QAEAAU?$tvec2@M$01@1@H@Z 004cbf00 f i glm.obj
 0001:000caf40       ??A?$tmat3x2@M$01@glm@@QBEABU?$tvec2@M$01@1@H@Z 004cbf40 f i glm.obj
 0001:000caf80       ??A?$tmat3x2@M$0A@@glm@@QAEAAU?$tvec2@M$0A@@1@H@Z 004cbf80 f i glm.obj
 0001:000cafc0       ??A?$tmat3x2@M$0A@@glm@@QBEABU?$tvec2@M$0A@@1@H@Z 004cbfc0 f i glm.obj
 0001:000cb000       ??A?$tmat3x2@N$00@glm@@QAEAAU?$tvec2@N$00@1@H@Z 004cc000 f i glm.obj
 0001:000cb040       ??A?$tmat3x2@N$00@glm@@QBEABU?$tvec2@N$00@1@H@Z 004cc040 f i glm.obj
 0001:000cb080       ??A?$tmat3x2@N$01@glm@@QAEAAU?$tvec2@N$01@1@H@Z 004cc080 f i glm.obj
 0001:000cb0c0       ??A?$tmat3x2@N$01@glm@@QBEABU?$tvec2@N$01@1@H@Z 004cc0c0 f i glm.obj
 0001:000cb100       ??A?$tmat3x2@N$0A@@glm@@QAEAAU?$tvec2@N$0A@@1@H@Z 004cc100 f i glm.obj
 0001:000cb140       ??A?$tmat3x2@N$0A@@glm@@QBEABU?$tvec2@N$0A@@1@H@Z 004cc140 f i glm.obj
 0001:000cb180       ??A?$tmat3x3@M$00@glm@@QAEAAU?$tvec3@M$00@1@H@Z 004cc180 f i glm.obj
 0001:000cb1c0       ??A?$tmat3x3@M$00@glm@@QBEABU?$tvec3@M$00@1@H@Z 004cc1c0 f i glm.obj
 0001:000cb200       ??A?$tmat3x3@M$01@glm@@QAEAAU?$tvec3@M$01@1@H@Z 004cc200 f i glm.obj
 0001:000cb240       ??A?$tmat3x3@M$01@glm@@QBEABU?$tvec3@M$01@1@H@Z 004cc240 f i glm.obj
 0001:000cb280       ??A?$tmat3x3@M$0A@@glm@@QAEAAU?$tvec3@M$0A@@1@H@Z 004cc280 f i glm.obj
 0001:000cb2c0       ??A?$tmat3x3@M$0A@@glm@@QBEABU?$tvec3@M$0A@@1@H@Z 004cc2c0 f i glm.obj
 0001:000cb300       ??A?$tmat3x3@N$00@glm@@QAEAAU?$tvec3@N$00@1@H@Z 004cc300 f i glm.obj
 0001:000cb340       ??A?$tmat3x3@N$00@glm@@QBEABU?$tvec3@N$00@1@H@Z 004cc340 f i glm.obj
 0001:000cb380       ??A?$tmat3x3@N$01@glm@@QAEAAU?$tvec3@N$01@1@H@Z 004cc380 f i glm.obj
 0001:000cb3c0       ??A?$tmat3x3@N$01@glm@@QBEABU?$tvec3@N$01@1@H@Z 004cc3c0 f i glm.obj
 0001:000cb400       ??A?$tmat3x3@N$0A@@glm@@QAEAAU?$tvec3@N$0A@@1@H@Z 004cc400 f i glm.obj
 0001:000cb440       ??A?$tmat3x3@N$0A@@glm@@QBEABU?$tvec3@N$0A@@1@H@Z 004cc440 f i glm.obj
 0001:000cb480       ??A?$tmat3x4@M$00@glm@@QAEAAU?$tvec4@M$00@1@H@Z 004cc480 f i glm.obj
 0001:000cb4c0       ??A?$tmat3x4@M$00@glm@@QBEABU?$tvec4@M$00@1@H@Z 004cc4c0 f i glm.obj
 0001:000cb500       ??A?$tmat3x4@M$01@glm@@QAEAAU?$tvec4@M$01@1@H@Z 004cc500 f i glm.obj
 0001:000cb540       ??A?$tmat3x4@M$01@glm@@QBEABU?$tvec4@M$01@1@H@Z 004cc540 f i glm.obj
 0001:000cb580       ??A?$tmat3x4@M$0A@@glm@@QAEAAU?$tvec4@M$0A@@1@H@Z 004cc580 f i glm.obj
 0001:000cb5c0       ??A?$tmat3x4@M$0A@@glm@@QBEABU?$tvec4@M$0A@@1@H@Z 004cc5c0 f i glm.obj
 0001:000cb600       ??A?$tmat3x4@N$00@glm@@QAEAAU?$tvec4@N$00@1@H@Z 004cc600 f i glm.obj
 0001:000cb640       ??A?$tmat3x4@N$00@glm@@QBEABU?$tvec4@N$00@1@H@Z 004cc640 f i glm.obj
 0001:000cb680       ??A?$tmat3x4@N$01@glm@@QAEAAU?$tvec4@N$01@1@H@Z 004cc680 f i glm.obj
 0001:000cb6c0       ??A?$tmat3x4@N$01@glm@@QBEABU?$tvec4@N$01@1@H@Z 004cc6c0 f i glm.obj
 0001:000cb700       ??A?$tmat3x4@N$0A@@glm@@QAEAAU?$tvec4@N$0A@@1@H@Z 004cc700 f i glm.obj
 0001:000cb740       ??A?$tmat3x4@N$0A@@glm@@QBEABU?$tvec4@N$0A@@1@H@Z 004cc740 f i glm.obj
 0001:000cb780       ??A?$tmat4x2@M$00@glm@@QAEAAU?$tvec2@M$00@1@H@Z 004cc780 f i glm.obj
 0001:000cb7c0       ??A?$tmat4x2@M$00@glm@@QBEABU?$tvec2@M$00@1@H@Z 004cc7c0 f i glm.obj
 0001:000cb800       ??A?$tmat4x2@M$01@glm@@QAEAAU?$tvec2@M$01@1@H@Z 004cc800 f i glm.obj
 0001:000cb840       ??A?$tmat4x2@M$01@glm@@QBEABU?$tvec2@M$01@1@H@Z 004cc840 f i glm.obj
 0001:000cb880       ??A?$tmat4x2@M$0A@@glm@@QAEAAU?$tvec2@M$0A@@1@H@Z 004cc880 f i glm.obj
 0001:000cb8c0       ??A?$tmat4x2@M$0A@@glm@@QBEABU?$tvec2@M$0A@@1@H@Z 004cc8c0 f i glm.obj
 0001:000cb900       ??A?$tmat4x2@N$00@glm@@QAEAAU?$tvec2@N$00@1@H@Z 004cc900 f i glm.obj
 0001:000cb940       ??A?$tmat4x2@N$00@glm@@QBEABU?$tvec2@N$00@1@H@Z 004cc940 f i glm.obj
 0001:000cb980       ??A?$tmat4x2@N$01@glm@@QAEAAU?$tvec2@N$01@1@H@Z 004cc980 f i glm.obj
 0001:000cb9c0       ??A?$tmat4x2@N$01@glm@@QBEABU?$tvec2@N$01@1@H@Z 004cc9c0 f i glm.obj
 0001:000cba00       ??A?$tmat4x2@N$0A@@glm@@QAEAAU?$tvec2@N$0A@@1@H@Z 004cca00 f i glm.obj
 0001:000cba40       ??A?$tmat4x2@N$0A@@glm@@QBEABU?$tvec2@N$0A@@1@H@Z 004cca40 f i glm.obj
 0001:000cba80       ??A?$tmat4x3@M$00@glm@@QAEAAU?$tvec3@M$00@1@H@Z 004cca80 f i glm.obj
 0001:000cbac0       ??A?$tmat4x3@M$00@glm@@QBEABU?$tvec3@M$00@1@H@Z 004ccac0 f i glm.obj
 0001:000cbb00       ??A?$tmat4x3@M$01@glm@@QAEAAU?$tvec3@M$01@1@H@Z 004ccb00 f i glm.obj
 0001:000cbb40       ??A?$tmat4x3@M$01@glm@@QBEABU?$tvec3@M$01@1@H@Z 004ccb40 f i glm.obj
 0001:000cbb80       ??A?$tmat4x3@M$0A@@glm@@QAEAAU?$tvec3@M$0A@@1@H@Z 004ccb80 f i glm.obj
 0001:000cbbc0       ??A?$tmat4x3@M$0A@@glm@@QBEABU?$tvec3@M$0A@@1@H@Z 004ccbc0 f i glm.obj
 0001:000cbc00       ??A?$tmat4x3@N$00@glm@@QAEAAU?$tvec3@N$00@1@H@Z 004ccc00 f i glm.obj
 0001:000cbc40       ??A?$tmat4x3@N$00@glm@@QBEABU?$tvec3@N$00@1@H@Z 004ccc40 f i glm.obj
 0001:000cbc80       ??A?$tmat4x3@N$01@glm@@QAEAAU?$tvec3@N$01@1@H@Z 004ccc80 f i glm.obj
 0001:000cbcc0       ??A?$tmat4x3@N$01@glm@@QBEABU?$tvec3@N$01@1@H@Z 004cccc0 f i glm.obj
 0001:000cbd00       ??A?$tmat4x3@N$0A@@glm@@QAEAAU?$tvec3@N$0A@@1@H@Z 004ccd00 f i glm.obj
 0001:000cbd40       ??A?$tmat4x3@N$0A@@glm@@QBEABU?$tvec3@N$0A@@1@H@Z 004ccd40 f i glm.obj
 0001:000cbd80       ??A?$tmat4x4@M$00@glm@@QAEAAU?$tvec4@M$00@1@H@Z 004ccd80 f i glm.obj
 0001:000cbdc0       ??A?$tmat4x4@M$00@glm@@QBEABU?$tvec4@M$00@1@H@Z 004ccdc0 f i glm.obj
 0001:000cbe00       ??A?$tmat4x4@M$01@glm@@QAEAAU?$tvec4@M$01@1@H@Z 004cce00 f i glm.obj
 0001:000cbe40       ??A?$tmat4x4@M$01@glm@@QBEABU?$tvec4@M$01@1@H@Z 004cce40 f i glm.obj
 0001:000cbe80       ??A?$tmat4x4@M$0A@@glm@@QAEAAU?$tvec4@M$0A@@1@H@Z 004cce80 f i glm.obj
 0001:000cbec0       ??A?$tmat4x4@M$0A@@glm@@QBEABU?$tvec4@M$0A@@1@H@Z 004ccec0 f i glm.obj
 0001:000cbf00       ??A?$tmat4x4@N$00@glm@@QAEAAU?$tvec4@N$00@1@H@Z 004ccf00 f i glm.obj
 0001:000cbf40       ??A?$tmat4x4@N$00@glm@@QBEABU?$tvec4@N$00@1@H@Z 004ccf40 f i glm.obj
 0001:000cbf80       ??A?$tmat4x4@N$01@glm@@QAEAAU?$tvec4@N$01@1@H@Z 004ccf80 f i glm.obj
 0001:000cbfc0       ??A?$tmat4x4@N$01@glm@@QBEABU?$tvec4@N$01@1@H@Z 004ccfc0 f i glm.obj
 0001:000cc000       ??A?$tmat4x4@N$0A@@glm@@QAEAAU?$tvec4@N$0A@@1@H@Z 004cd000 f i glm.obj
 0001:000cc040       ??A?$tmat4x4@N$0A@@glm@@QBEABU?$tvec4@N$0A@@1@H@Z 004cd040 f i glm.obj
 0001:000cc080       ??A?$tquat@M$00@glm@@QAEAAMH@Z 004cd080 f i glm.obj
 0001:000cc0c0       ??A?$tquat@M$00@glm@@QBEABMH@Z 004cd0c0 f i glm.obj
 0001:000cc100       ??A?$tquat@M$01@glm@@QAEAAMH@Z 004cd100 f i glm.obj
 0001:000cc140       ??A?$tquat@M$01@glm@@QBEABMH@Z 004cd140 f i glm.obj
 0001:000cc180       ??A?$tquat@M$0A@@glm@@QAEAAMH@Z 004cd180 f i glm.obj
 0001:000cc1c0       ??A?$tquat@M$0A@@glm@@QBEABMH@Z 004cd1c0 f i glm.obj
 0001:000cc200       ??A?$tquat@N$00@glm@@QAEAANH@Z 004cd200 f i glm.obj
 0001:000cc240       ??A?$tquat@N$00@glm@@QBEABNH@Z 004cd240 f i glm.obj
 0001:000cc280       ??A?$tquat@N$01@glm@@QAEAANH@Z 004cd280 f i glm.obj
 0001:000cc2c0       ??A?$tquat@N$01@glm@@QBEABNH@Z 004cd2c0 f i glm.obj
 0001:000cc300       ??A?$tquat@N$0A@@glm@@QAEAANH@Z 004cd300 f i glm.obj
 0001:000cc340       ??A?$tquat@N$0A@@glm@@QBEABNH@Z 004cd340 f i glm.obj
 0001:000cc380       ??A?$tvec1@C$00@glm@@QAEAACH@Z 004cd380 f i glm.obj
 0001:000cc3c0       ??A?$tvec1@C$00@glm@@QBEABCH@Z 004cd3c0 f i glm.obj
 0001:000cc400       ??A?$tvec1@C$01@glm@@QAEAACH@Z 004cd400 f i glm.obj
 0001:000cc440       ??A?$tvec1@C$01@glm@@QBEABCH@Z 004cd440 f i glm.obj
 0001:000cc480       ??A?$tvec1@C$0A@@glm@@QAEAACH@Z 004cd480 f i glm.obj
 0001:000cc4c0       ??A?$tvec1@C$0A@@glm@@QBEABCH@Z 004cd4c0 f i glm.obj
 0001:000cc500       ??A?$tvec1@E$00@glm@@QAEAAEH@Z 004cd500 f i glm.obj
 0001:000cc540       ??A?$tvec1@E$00@glm@@QBEABEH@Z 004cd540 f i glm.obj
 0001:000cc580       ??A?$tvec1@E$01@glm@@QAEAAEH@Z 004cd580 f i glm.obj
 0001:000cc5c0       ??A?$tvec1@E$01@glm@@QBEABEH@Z 004cd5c0 f i glm.obj
 0001:000cc600       ??A?$tvec1@E$0A@@glm@@QAEAAEH@Z 004cd600 f i glm.obj
 0001:000cc640       ??A?$tvec1@E$0A@@glm@@QBEABEH@Z 004cd640 f i glm.obj
 0001:000cc680       ??A?$tvec1@F$00@glm@@QAEAAFH@Z 004cd680 f i glm.obj
 0001:000cc6c0       ??A?$tvec1@F$00@glm@@QBEABFH@Z 004cd6c0 f i glm.obj
 0001:000cc700       ??A?$tvec1@F$01@glm@@QAEAAFH@Z 004cd700 f i glm.obj
 0001:000cc740       ??A?$tvec1@F$01@glm@@QBEABFH@Z 004cd740 f i glm.obj
 0001:000cc780       ??A?$tvec1@F$0A@@glm@@QAEAAFH@Z 004cd780 f i glm.obj
 0001:000cc7c0       ??A?$tvec1@F$0A@@glm@@QBEABFH@Z 004cd7c0 f i glm.obj
 0001:000cc800       ??A?$tvec1@G$00@glm@@QAEAAGH@Z 004cd800 f i glm.obj
 0001:000cc840       ??A?$tvec1@G$00@glm@@QBEABGH@Z 004cd840 f i glm.obj
 0001:000cc880       ??A?$tvec1@G$01@glm@@QAEAAGH@Z 004cd880 f i glm.obj
 0001:000cc8c0       ??A?$tvec1@G$01@glm@@QBEABGH@Z 004cd8c0 f i glm.obj
 0001:000cc900       ??A?$tvec1@G$0A@@glm@@QAEAAGH@Z 004cd900 f i glm.obj
 0001:000cc940       ??A?$tvec1@G$0A@@glm@@QBEABGH@Z 004cd940 f i glm.obj
 0001:000cc980       ??A?$tvec1@H$00@glm@@QAEAAHH@Z 004cd980 f i glm.obj
 0001:000cc9c0       ??A?$tvec1@H$00@glm@@QBEABHH@Z 004cd9c0 f i glm.obj
 0001:000cca00       ??A?$tvec1@H$01@glm@@QAEAAHH@Z 004cda00 f i glm.obj
 0001:000cca40       ??A?$tvec1@H$01@glm@@QBEABHH@Z 004cda40 f i glm.obj
 0001:000cca80       ??A?$tvec1@H$0A@@glm@@QAEAAHH@Z 004cda80 f i glm.obj
 0001:000ccac0       ??A?$tvec1@H$0A@@glm@@QBEABHH@Z 004cdac0 f i glm.obj
 0001:000ccb00       ??A?$tvec1@I$00@glm@@QAEAAIH@Z 004cdb00 f i glm.obj
 0001:000ccb40       ??A?$tvec1@I$00@glm@@QBEABIH@Z 004cdb40 f i glm.obj
 0001:000ccb80       ??A?$tvec1@I$01@glm@@QAEAAIH@Z 004cdb80 f i glm.obj
 0001:000ccbc0       ??A?$tvec1@I$01@glm@@QBEABIH@Z 004cdbc0 f i glm.obj
 0001:000ccc00       ??A?$tvec1@I$0A@@glm@@QAEAAIH@Z 004cdc00 f i glm.obj
 0001:000ccc40       ??A?$tvec1@I$0A@@glm@@QBEABIH@Z 004cdc40 f i glm.obj
 0001:000ccc80       ??A?$tvec1@M$00@glm@@QAEAAMH@Z 004cdc80 f i glm.obj
 0001:000cccc0       ??A?$tvec1@M$00@glm@@QBEABMH@Z 004cdcc0 f i glm.obj
 0001:000ccd00       ??A?$tvec1@M$01@glm@@QAEAAMH@Z 004cdd00 f i glm.obj
 0001:000ccd40       ??A?$tvec1@M$01@glm@@QBEABMH@Z 004cdd40 f i glm.obj
 0001:000ccd80       ??A?$tvec1@M$0A@@glm@@QAEAAMH@Z 004cdd80 f i glm.obj
 0001:000ccdc0       ??A?$tvec1@M$0A@@glm@@QBEABMH@Z 004cddc0 f i glm.obj
 0001:000cce00       ??A?$tvec1@N$00@glm@@QAEAANH@Z 004cde00 f i glm.obj
 0001:000cce40       ??A?$tvec1@N$00@glm@@QBEABNH@Z 004cde40 f i glm.obj
 0001:000cce80       ??A?$tvec1@N$01@glm@@QAEAANH@Z 004cde80 f i glm.obj
 0001:000ccec0       ??A?$tvec1@N$01@glm@@QBEABNH@Z 004cdec0 f i glm.obj
 0001:000ccf00       ??A?$tvec1@N$0A@@glm@@QAEAANH@Z 004cdf00 f i glm.obj
 0001:000ccf40       ??A?$tvec1@N$0A@@glm@@QBEABNH@Z 004cdf40 f i glm.obj
 0001:000ccf80       ??A?$tvec1@_J$00@glm@@QAEAA_JH@Z 004cdf80 f i glm.obj
 0001:000ccfc0       ??A?$tvec1@_J$00@glm@@QBEAB_JH@Z 004cdfc0 f i glm.obj
 0001:000cd000       ??A?$tvec1@_J$01@glm@@QAEAA_JH@Z 004ce000 f i glm.obj
 0001:000cd040       ??A?$tvec1@_J$01@glm@@QBEAB_JH@Z 004ce040 f i glm.obj
 0001:000cd080       ??A?$tvec1@_J$0A@@glm@@QAEAA_JH@Z 004ce080 f i glm.obj
 0001:000cd0c0       ??A?$tvec1@_J$0A@@glm@@QBEAB_JH@Z 004ce0c0 f i glm.obj
 0001:000cd100       ??A?$tvec1@_K$00@glm@@QAEAA_KH@Z 004ce100 f i glm.obj
 0001:000cd140       ??A?$tvec1@_K$00@glm@@QBEAB_KH@Z 004ce140 f i glm.obj
 0001:000cd180       ??A?$tvec1@_K$01@glm@@QAEAA_KH@Z 004ce180 f i glm.obj
 0001:000cd1c0       ??A?$tvec1@_K$01@glm@@QBEAB_KH@Z 004ce1c0 f i glm.obj
 0001:000cd200       ??A?$tvec1@_K$0A@@glm@@QAEAA_KH@Z 004ce200 f i glm.obj
 0001:000cd240       ??A?$tvec1@_K$0A@@glm@@QBEAB_KH@Z 004ce240 f i glm.obj
 0001:000cd280       ??A?$tvec2@C$00@glm@@QAEAACH@Z 004ce280 f i glm.obj
 0001:000cd2c0       ??A?$tvec2@C$00@glm@@QBEABCH@Z 004ce2c0 f i glm.obj
 0001:000cd300       ??A?$tvec2@C$01@glm@@QAEAACH@Z 004ce300 f i glm.obj
 0001:000cd340       ??A?$tvec2@C$01@glm@@QBEABCH@Z 004ce340 f i glm.obj
 0001:000cd380       ??A?$tvec2@C$0A@@glm@@QAEAACH@Z 004ce380 f i glm.obj
 0001:000cd3c0       ??A?$tvec2@C$0A@@glm@@QBEABCH@Z 004ce3c0 f i glm.obj
 0001:000cd400       ??A?$tvec2@E$00@glm@@QAEAAEH@Z 004ce400 f i glm.obj
 0001:000cd440       ??A?$tvec2@E$00@glm@@QBEABEH@Z 004ce440 f i glm.obj
 0001:000cd480       ??A?$tvec2@E$01@glm@@QAEAAEH@Z 004ce480 f i glm.obj
 0001:000cd4c0       ??A?$tvec2@E$01@glm@@QBEABEH@Z 004ce4c0 f i glm.obj
 0001:000cd500       ??A?$tvec2@E$0A@@glm@@QAEAAEH@Z 004ce500 f i glm.obj
 0001:000cd540       ??A?$tvec2@E$0A@@glm@@QBEABEH@Z 004ce540 f i glm.obj
 0001:000cd580       ??A?$tvec2@F$00@glm@@QAEAAFH@Z 004ce580 f i glm.obj
 0001:000cd5c0       ??A?$tvec2@F$00@glm@@QBEABFH@Z 004ce5c0 f i glm.obj
 0001:000cd600       ??A?$tvec2@F$01@glm@@QAEAAFH@Z 004ce600 f i glm.obj
 0001:000cd640       ??A?$tvec2@F$01@glm@@QBEABFH@Z 004ce640 f i glm.obj
 0001:000cd680       ??A?$tvec2@F$0A@@glm@@QAEAAFH@Z 004ce680 f i glm.obj
 0001:000cd6c0       ??A?$tvec2@F$0A@@glm@@QBEABFH@Z 004ce6c0 f i glm.obj
 0001:000cd700       ??A?$tvec2@G$00@glm@@QAEAAGH@Z 004ce700 f i glm.obj
 0001:000cd740       ??A?$tvec2@G$00@glm@@QBEABGH@Z 004ce740 f i glm.obj
 0001:000cd780       ??A?$tvec2@G$01@glm@@QAEAAGH@Z 004ce780 f i glm.obj
 0001:000cd7c0       ??A?$tvec2@G$01@glm@@QBEABGH@Z 004ce7c0 f i glm.obj
 0001:000cd800       ??A?$tvec2@G$0A@@glm@@QAEAAGH@Z 004ce800 f i glm.obj
 0001:000cd840       ??A?$tvec2@G$0A@@glm@@QBEABGH@Z 004ce840 f i glm.obj
 0001:000cd880       ??A?$tvec2@H$00@glm@@QAEAAHH@Z 004ce880 f i glm.obj
 0001:000cd8c0       ??A?$tvec2@H$00@glm@@QBEABHH@Z 004ce8c0 f i glm.obj
 0001:000cd900       ??A?$tvec2@H$01@glm@@QAEAAHH@Z 004ce900 f i glm.obj
 0001:000cd940       ??A?$tvec2@H$01@glm@@QBEABHH@Z 004ce940 f i glm.obj
 0001:000cd980       ??A?$tvec2@H$0A@@glm@@QAEAAHH@Z 004ce980 f i glm.obj
 0001:000cd9c0       ??A?$tvec2@H$0A@@glm@@QBEABHH@Z 004ce9c0 f i glm.obj
 0001:000cda00       ??A?$tvec2@I$00@glm@@QAEAAIH@Z 004cea00 f i glm.obj
 0001:000cda40       ??A?$tvec2@I$00@glm@@QBEABIH@Z 004cea40 f i glm.obj
 0001:000cda80       ??A?$tvec2@I$01@glm@@QAEAAIH@Z 004cea80 f i glm.obj
 0001:000cdac0       ??A?$tvec2@I$01@glm@@QBEABIH@Z 004ceac0 f i glm.obj
 0001:000cdb00       ??A?$tvec2@I$0A@@glm@@QAEAAIH@Z 004ceb00 f i glm.obj
 0001:000cdb40       ??A?$tvec2@I$0A@@glm@@QBEABIH@Z 004ceb40 f i glm.obj
 0001:000cdb80       ??A?$tvec2@M$00@glm@@QAEAAMH@Z 004ceb80 f i glm.obj
 0001:000cdbc0       ??A?$tvec2@M$00@glm@@QBEABMH@Z 004cebc0 f i glm.obj
 0001:000cdc00       ??A?$tvec2@M$01@glm@@QAEAAMH@Z 004cec00 f i glm.obj
 0001:000cdc40       ??A?$tvec2@M$01@glm@@QBEABMH@Z 004cec40 f i glm.obj
 0001:000cdc80       ??A?$tvec2@M$0A@@glm@@QAEAAMH@Z 004cec80 f i glm.obj
 0001:000cdcc0       ??A?$tvec2@M$0A@@glm@@QBEABMH@Z 004cecc0 f i glm.obj
 0001:000cdd00       ??A?$tvec2@N$00@glm@@QAEAANH@Z 004ced00 f i glm.obj
 0001:000cdd40       ??A?$tvec2@N$00@glm@@QBEABNH@Z 004ced40 f i glm.obj
 0001:000cdd80       ??A?$tvec2@N$01@glm@@QAEAANH@Z 004ced80 f i glm.obj
 0001:000cddc0       ??A?$tvec2@N$01@glm@@QBEABNH@Z 004cedc0 f i glm.obj
 0001:000cde00       ??A?$tvec2@N$0A@@glm@@QAEAANH@Z 004cee00 f i glm.obj
 0001:000cde40       ??A?$tvec2@N$0A@@glm@@QBEABNH@Z 004cee40 f i glm.obj
 0001:000cde80       ??A?$tvec2@_J$00@glm@@QAEAA_JH@Z 004cee80 f i glm.obj
 0001:000cdec0       ??A?$tvec2@_J$00@glm@@QBEAB_JH@Z 004ceec0 f i glm.obj
 0001:000cdf00       ??A?$tvec2@_J$01@glm@@QAEAA_JH@Z 004cef00 f i glm.obj
 0001:000cdf40       ??A?$tvec2@_J$01@glm@@QBEAB_JH@Z 004cef40 f i glm.obj
 0001:000cdf80       ??A?$tvec2@_J$0A@@glm@@QAEAA_JH@Z 004cef80 f i glm.obj
 0001:000cdfc0       ??A?$tvec2@_J$0A@@glm@@QBEAB_JH@Z 004cefc0 f i glm.obj
 0001:000ce000       ??A?$tvec2@_K$00@glm@@QAEAA_KH@Z 004cf000 f i glm.obj
 0001:000ce040       ??A?$tvec2@_K$00@glm@@QBEAB_KH@Z 004cf040 f i glm.obj
 0001:000ce080       ??A?$tvec2@_K$01@glm@@QAEAA_KH@Z 004cf080 f i glm.obj
 0001:000ce0c0       ??A?$tvec2@_K$01@glm@@QBEAB_KH@Z 004cf0c0 f i glm.obj
 0001:000ce100       ??A?$tvec2@_K$0A@@glm@@QAEAA_KH@Z 004cf100 f i glm.obj
 0001:000ce140       ??A?$tvec2@_K$0A@@glm@@QBEAB_KH@Z 004cf140 f i glm.obj
 0001:000ce180       ??A?$tvec3@C$00@glm@@QAEAACH@Z 004cf180 f i glm.obj
 0001:000ce1c0       ??A?$tvec3@C$00@glm@@QBEABCH@Z 004cf1c0 f i glm.obj
 0001:000ce200       ??A?$tvec3@C$01@glm@@QAEAACH@Z 004cf200 f i glm.obj
 0001:000ce240       ??A?$tvec3@C$01@glm@@QBEABCH@Z 004cf240 f i glm.obj
 0001:000ce280       ??A?$tvec3@C$0A@@glm@@QAEAACH@Z 004cf280 f i glm.obj
 0001:000ce2c0       ??A?$tvec3@C$0A@@glm@@QBEABCH@Z 004cf2c0 f i glm.obj
 0001:000ce300       ??A?$tvec3@E$00@glm@@QAEAAEH@Z 004cf300 f i glm.obj
 0001:000ce340       ??A?$tvec3@E$00@glm@@QBEABEH@Z 004cf340 f i glm.obj
 0001:000ce380       ??A?$tvec3@E$01@glm@@QAEAAEH@Z 004cf380 f i glm.obj
 0001:000ce3c0       ??A?$tvec3@E$01@glm@@QBEABEH@Z 004cf3c0 f i glm.obj
 0001:000ce400       ??A?$tvec3@E$0A@@glm@@QAEAAEH@Z 004cf400 f i glm.obj
 0001:000ce440       ??A?$tvec3@E$0A@@glm@@QBEABEH@Z 004cf440 f i glm.obj
 0001:000ce480       ??A?$tvec3@F$00@glm@@QAEAAFH@Z 004cf480 f i glm.obj
 0001:000ce4c0       ??A?$tvec3@F$00@glm@@QBEABFH@Z 004cf4c0 f i glm.obj
 0001:000ce500       ??A?$tvec3@F$01@glm@@QAEAAFH@Z 004cf500 f i glm.obj
 0001:000ce540       ??A?$tvec3@F$01@glm@@QBEABFH@Z 004cf540 f i glm.obj
 0001:000ce580       ??A?$tvec3@F$0A@@glm@@QAEAAFH@Z 004cf580 f i glm.obj
 0001:000ce5c0       ??A?$tvec3@F$0A@@glm@@QBEABFH@Z 004cf5c0 f i glm.obj
 0001:000ce600       ??A?$tvec3@G$00@glm@@QAEAAGH@Z 004cf600 f i glm.obj
 0001:000ce640       ??A?$tvec3@G$00@glm@@QBEABGH@Z 004cf640 f i glm.obj
 0001:000ce680       ??A?$tvec3@G$01@glm@@QAEAAGH@Z 004cf680 f i glm.obj
 0001:000ce6c0       ??A?$tvec3@G$01@glm@@QBEABGH@Z 004cf6c0 f i glm.obj
 0001:000ce700       ??A?$tvec3@G$0A@@glm@@QAEAAGH@Z 004cf700 f i glm.obj
 0001:000ce740       ??A?$tvec3@G$0A@@glm@@QBEABGH@Z 004cf740 f i glm.obj
 0001:000ce780       ??A?$tvec3@H$00@glm@@QAEAAHH@Z 004cf780 f i glm.obj
 0001:000ce7c0       ??A?$tvec3@H$00@glm@@QBEABHH@Z 004cf7c0 f i glm.obj
 0001:000ce800       ??A?$tvec3@H$01@glm@@QAEAAHH@Z 004cf800 f i glm.obj
 0001:000ce840       ??A?$tvec3@H$01@glm@@QBEABHH@Z 004cf840 f i glm.obj
 0001:000ce880       ??A?$tvec3@H$0A@@glm@@QAEAAHH@Z 004cf880 f i glm.obj
 0001:000ce8c0       ??A?$tvec3@H$0A@@glm@@QBEABHH@Z 004cf8c0 f i glm.obj
 0001:000ce900       ??A?$tvec3@I$00@glm@@QAEAAIH@Z 004cf900 f i glm.obj
 0001:000ce940       ??A?$tvec3@I$00@glm@@QBEABIH@Z 004cf940 f i glm.obj
 0001:000ce980       ??A?$tvec3@I$01@glm@@QAEAAIH@Z 004cf980 f i glm.obj
 0001:000ce9c0       ??A?$tvec3@I$01@glm@@QBEABIH@Z 004cf9c0 f i glm.obj
 0001:000cea00       ??A?$tvec3@I$0A@@glm@@QAEAAIH@Z 004cfa00 f i glm.obj
 0001:000cea40       ??A?$tvec3@I$0A@@glm@@QBEABIH@Z 004cfa40 f i glm.obj
 0001:000cea80       ??A?$tvec3@M$00@glm@@QAEAAMH@Z 004cfa80 f i glm.obj
 0001:000ceac0       ??A?$tvec3@M$00@glm@@QBEABMH@Z 004cfac0 f i glm.obj
 0001:000ceb00       ??A?$tvec3@M$01@glm@@QAEAAMH@Z 004cfb00 f i glm.obj
 0001:000ceb40       ??A?$tvec3@M$01@glm@@QBEABMH@Z 004cfb40 f i glm.obj
 0001:000ceb80       ??A?$tvec3@M$0A@@glm@@QAEAAMH@Z 004cfb80 f i glm.obj
 0001:000cebc0       ??A?$tvec3@M$0A@@glm@@QBEABMH@Z 004cfbc0 f i glm.obj
 0001:000cec00       ??A?$tvec3@N$00@glm@@QAEAANH@Z 004cfc00 f i glm.obj
 0001:000cec40       ??A?$tvec3@N$00@glm@@QBEABNH@Z 004cfc40 f i glm.obj
 0001:000cec80       ??A?$tvec3@N$01@glm@@QAEAANH@Z 004cfc80 f i glm.obj
 0001:000cecc0       ??A?$tvec3@N$01@glm@@QBEABNH@Z 004cfcc0 f i glm.obj
 0001:000ced00       ??A?$tvec3@N$0A@@glm@@QAEAANH@Z 004cfd00 f i glm.obj
 0001:000ced40       ??A?$tvec3@N$0A@@glm@@QBEABNH@Z 004cfd40 f i glm.obj
 0001:000ced80       ??A?$tvec3@_J$00@glm@@QAEAA_JH@Z 004cfd80 f i glm.obj
 0001:000cedc0       ??A?$tvec3@_J$00@glm@@QBEAB_JH@Z 004cfdc0 f i glm.obj
 0001:000cee00       ??A?$tvec3@_J$01@glm@@QAEAA_JH@Z 004cfe00 f i glm.obj
 0001:000cee40       ??A?$tvec3@_J$01@glm@@QBEAB_JH@Z 004cfe40 f i glm.obj
 0001:000cee80       ??A?$tvec3@_J$0A@@glm@@QAEAA_JH@Z 004cfe80 f i glm.obj
 0001:000ceec0       ??A?$tvec3@_J$0A@@glm@@QBEAB_JH@Z 004cfec0 f i glm.obj
 0001:000cef00       ??A?$tvec3@_K$00@glm@@QAEAA_KH@Z 004cff00 f i glm.obj
 0001:000cef40       ??A?$tvec3@_K$00@glm@@QBEAB_KH@Z 004cff40 f i glm.obj
 0001:000cef80       ??A?$tvec3@_K$01@glm@@QAEAA_KH@Z 004cff80 f i glm.obj
 0001:000cefc0       ??A?$tvec3@_K$01@glm@@QBEAB_KH@Z 004cffc0 f i glm.obj
 0001:000cf000       ??A?$tvec3@_K$0A@@glm@@QAEAA_KH@Z 004d0000 f i glm.obj
 0001:000cf040       ??A?$tvec3@_K$0A@@glm@@QBEAB_KH@Z 004d0040 f i glm.obj
 0001:000cf080       ??A?$tvec4@C$00@glm@@QAEAACH@Z 004d0080 f i glm.obj
 0001:000cf0c0       ??A?$tvec4@C$00@glm@@QBEABCH@Z 004d00c0 f i glm.obj
 0001:000cf100       ??A?$tvec4@C$01@glm@@QAEAACH@Z 004d0100 f i glm.obj
 0001:000cf140       ??A?$tvec4@C$01@glm@@QBEABCH@Z 004d0140 f i glm.obj
 0001:000cf180       ??A?$tvec4@C$0A@@glm@@QAEAACH@Z 004d0180 f i glm.obj
 0001:000cf1c0       ??A?$tvec4@C$0A@@glm@@QBEABCH@Z 004d01c0 f i glm.obj
 0001:000cf200       ??A?$tvec4@E$00@glm@@QAEAAEH@Z 004d0200 f i glm.obj
 0001:000cf240       ??A?$tvec4@E$00@glm@@QBEABEH@Z 004d0240 f i glm.obj
 0001:000cf280       ??A?$tvec4@E$01@glm@@QAEAAEH@Z 004d0280 f i glm.obj
 0001:000cf2c0       ??A?$tvec4@E$01@glm@@QBEABEH@Z 004d02c0 f i glm.obj
 0001:000cf300       ??A?$tvec4@E$0A@@glm@@QAEAAEH@Z 004d0300 f i glm.obj
 0001:000cf340       ??A?$tvec4@E$0A@@glm@@QBEABEH@Z 004d0340 f i glm.obj
 0001:000cf380       ??A?$tvec4@F$00@glm@@QAEAAFH@Z 004d0380 f i glm.obj
 0001:000cf3c0       ??A?$tvec4@F$00@glm@@QBEABFH@Z 004d03c0 f i glm.obj
 0001:000cf400       ??A?$tvec4@F$01@glm@@QAEAAFH@Z 004d0400 f i glm.obj
 0001:000cf440       ??A?$tvec4@F$01@glm@@QBEABFH@Z 004d0440 f i glm.obj
 0001:000cf480       ??A?$tvec4@F$0A@@glm@@QAEAAFH@Z 004d0480 f i glm.obj
 0001:000cf4c0       ??A?$tvec4@F$0A@@glm@@QBEABFH@Z 004d04c0 f i glm.obj
 0001:000cf500       ??A?$tvec4@G$00@glm@@QAEAAGH@Z 004d0500 f i glm.obj
 0001:000cf540       ??A?$tvec4@G$00@glm@@QBEABGH@Z 004d0540 f i glm.obj
 0001:000cf580       ??A?$tvec4@G$01@glm@@QAEAAGH@Z 004d0580 f i glm.obj
 0001:000cf5c0       ??A?$tvec4@G$01@glm@@QBEABGH@Z 004d05c0 f i glm.obj
 0001:000cf600       ??A?$tvec4@G$0A@@glm@@QAEAAGH@Z 004d0600 f i glm.obj
 0001:000cf640       ??A?$tvec4@G$0A@@glm@@QBEABGH@Z 004d0640 f i glm.obj
 0001:000cf680       ??A?$tvec4@H$00@glm@@QAEAAHH@Z 004d0680 f i glm.obj
 0001:000cf6c0       ??A?$tvec4@H$00@glm@@QBEABHH@Z 004d06c0 f i glm.obj
 0001:000cf700       ??A?$tvec4@H$01@glm@@QAEAAHH@Z 004d0700 f i glm.obj
 0001:000cf740       ??A?$tvec4@H$01@glm@@QBEABHH@Z 004d0740 f i glm.obj
 0001:000cf780       ??A?$tvec4@H$0A@@glm@@QAEAAHH@Z 004d0780 f i glm.obj
 0001:000cf7c0       ??A?$tvec4@H$0A@@glm@@QBEABHH@Z 004d07c0 f i glm.obj
 0001:000cf800       ??A?$tvec4@I$00@glm@@QAEAAIH@Z 004d0800 f i glm.obj
 0001:000cf840       ??A?$tvec4@I$00@glm@@QBEABIH@Z 004d0840 f i glm.obj
 0001:000cf880       ??A?$tvec4@I$01@glm@@QAEAAIH@Z 004d0880 f i glm.obj
 0001:000cf8c0       ??A?$tvec4@I$01@glm@@QBEABIH@Z 004d08c0 f i glm.obj
 0001:000cf900       ??A?$tvec4@I$0A@@glm@@QAEAAIH@Z 004d0900 f i glm.obj
 0001:000cf940       ??A?$tvec4@I$0A@@glm@@QBEABIH@Z 004d0940 f i glm.obj
 0001:000cf980       ??A?$tvec4@M$00@glm@@QAEAAMH@Z 004d0980 f i glm.obj
 0001:000cf9c0       ??A?$tvec4@M$00@glm@@QBEABMH@Z 004d09c0 f i glm.obj
 0001:000cfa00       ??A?$tvec4@M$01@glm@@QAEAAMH@Z 004d0a00 f i glm.obj
 0001:000cfa40       ??A?$tvec4@M$01@glm@@QBEABMH@Z 004d0a40 f i glm.obj
 0001:000cfa80       ??A?$tvec4@M$0A@@glm@@QBEABMH@Z 004d0a80 f i glm.obj
 0001:000cfac0       ??A?$tvec4@N$00@glm@@QAEAANH@Z 004d0ac0 f i glm.obj
 0001:000cfb00       ??A?$tvec4@N$00@glm@@QBEABNH@Z 004d0b00 f i glm.obj
 0001:000cfb40       ??A?$tvec4@N$01@glm@@QAEAANH@Z 004d0b40 f i glm.obj
 0001:000cfb80       ??A?$tvec4@N$01@glm@@QBEABNH@Z 004d0b80 f i glm.obj
 0001:000cfbc0       ??A?$tvec4@N$0A@@glm@@QAEAANH@Z 004d0bc0 f i glm.obj
 0001:000cfc00       ??A?$tvec4@N$0A@@glm@@QBEABNH@Z 004d0c00 f i glm.obj
 0001:000cfc40       ??A?$tvec4@_J$00@glm@@QAEAA_JH@Z 004d0c40 f i glm.obj
 0001:000cfc80       ??A?$tvec4@_J$00@glm@@QBEAB_JH@Z 004d0c80 f i glm.obj
 0001:000cfcc0       ??A?$tvec4@_J$01@glm@@QAEAA_JH@Z 004d0cc0 f i glm.obj
 0001:000cfd00       ??A?$tvec4@_J$01@glm@@QBEAB_JH@Z 004d0d00 f i glm.obj
 0001:000cfd40       ??A?$tvec4@_J$0A@@glm@@QAEAA_JH@Z 004d0d40 f i glm.obj
 0001:000cfd80       ??A?$tvec4@_J$0A@@glm@@QBEAB_JH@Z 004d0d80 f i glm.obj
 0001:000cfdc0       ??A?$tvec4@_K$00@glm@@QAEAA_KH@Z 004d0dc0 f i glm.obj
 0001:000cfe00       ??A?$tvec4@_K$00@glm@@QBEAB_KH@Z 004d0e00 f i glm.obj
 0001:000cfe40       ??A?$tvec4@_K$01@glm@@QAEAA_KH@Z 004d0e40 f i glm.obj
 0001:000cfe80       ??A?$tvec4@_K$01@glm@@QBEAB_KH@Z 004d0e80 f i glm.obj
 0001:000cfec0       ??A?$tvec4@_K$0A@@glm@@QAEAA_KH@Z 004d0ec0 f i glm.obj
 0001:000cff00       ??A?$tvec4@_K$0A@@glm@@QBEAB_KH@Z 004d0f00 f i glm.obj
 0001:000cff40       ??B?$tquat@M$00@glm@@QAE?AU?$tmat3x3@M$00@1@XZ 004d0f40 f i glm.obj
 0001:000cff60       ??B?$tquat@M$00@glm@@QAE?AU?$tmat4x4@M$00@1@XZ 004d0f60 f i glm.obj
 0001:000cffa0       ??B?$tquat@M$01@glm@@QAE?AU?$tmat3x3@M$01@1@XZ 004d0fa0 f i glm.obj
 0001:000cffc0       ??B?$tquat@M$01@glm@@QAE?AU?$tmat4x4@M$01@1@XZ 004d0fc0 f i glm.obj
 0001:000d0000       ??B?$tquat@M$0A@@glm@@QAE?AU?$tmat3x3@M$0A@@1@XZ 004d1000 f i glm.obj
 0001:000d0020       ??B?$tquat@M$0A@@glm@@QAE?AU?$tmat4x4@M$0A@@1@XZ 004d1020 f i glm.obj
 0001:000d0060       ??B?$tquat@N$00@glm@@QAE?AU?$tmat3x3@N$00@1@XZ 004d1060 f i glm.obj
 0001:000d0080       ??B?$tquat@N$00@glm@@QAE?AU?$tmat4x4@N$00@1@XZ 004d1080 f i glm.obj
 0001:000d00c0       ??B?$tquat@N$01@glm@@QAE?AU?$tmat3x3@N$01@1@XZ 004d10c0 f i glm.obj
 0001:000d00e0       ??B?$tquat@N$01@glm@@QAE?AU?$tmat4x4@N$01@1@XZ 004d10e0 f i glm.obj
 0001:000d0120       ??B?$tquat@N$0A@@glm@@QAE?AU?$tmat3x3@N$0A@@1@XZ 004d1120 f i glm.obj
 0001:000d0140       ??B?$tquat@N$0A@@glm@@QAE?AU?$tmat4x4@N$0A@@1@XZ 004d1140 f i glm.obj
 0001:000d0180       ??E?$tmat2x2@M$00@glm@@QAE?AU01@H@Z 004d1180 f i glm.obj
 0001:000d01f0       ??E?$tmat2x2@M$00@glm@@QAEAAU01@XZ 004d11f0 f i glm.obj
 0001:000d0280       ??E?$tmat2x2@M$01@glm@@QAE?AU01@H@Z 004d1280 f i glm.obj
 0001:000d02f0       ??E?$tmat2x2@M$01@glm@@QAEAAU01@XZ 004d12f0 f i glm.obj
 0001:000d0380       ??E?$tmat2x2@M$0A@@glm@@QAE?AU01@H@Z 004d1380 f i glm.obj
 0001:000d03f0       ??E?$tmat2x2@M$0A@@glm@@QAEAAU01@XZ 004d13f0 f i glm.obj
 0001:000d0480       ??E?$tmat2x2@N$00@glm@@QAE?AU01@H@Z 004d1480 f i glm.obj
 0001:000d04d0       ??E?$tmat2x2@N$00@glm@@QAEAAU01@XZ 004d14d0 f i glm.obj
 0001:000d0560       ??E?$tmat2x2@N$01@glm@@QAE?AU01@H@Z 004d1560 f i glm.obj
 0001:000d05b0       ??E?$tmat2x2@N$01@glm@@QAEAAU01@XZ 004d15b0 f i glm.obj
 0001:000d0640       ??E?$tmat2x2@N$0A@@glm@@QAE?AU01@H@Z 004d1640 f i glm.obj
 0001:000d0690       ??E?$tmat2x2@N$0A@@glm@@QAEAAU01@XZ 004d1690 f i glm.obj
 0001:000d0720       ??E?$tmat2x3@M$00@glm@@QAE?AU01@H@Z 004d1720 f i glm.obj
 0001:000d07a0       ??E?$tmat2x3@M$00@glm@@QAEAAU01@XZ 004d17a0 f i glm.obj
 0001:000d0860       ??E?$tmat2x3@M$01@glm@@QAE?AU01@H@Z 004d1860 f i glm.obj
 0001:000d08e0       ??E?$tmat2x3@M$01@glm@@QAEAAU01@XZ 004d18e0 f i glm.obj
 0001:000d09a0       ??E?$tmat2x3@M$0A@@glm@@QAE?AU01@H@Z 004d19a0 f i glm.obj
 0001:000d0a20       ??E?$tmat2x3@M$0A@@glm@@QAEAAU01@XZ 004d1a20 f i glm.obj
 0001:000d0ae0       ??E?$tmat2x3@N$00@glm@@QAE?AU01@H@Z 004d1ae0 f i glm.obj
 0001:000d0b30       ??E?$tmat2x3@N$00@glm@@QAEAAU01@XZ 004d1b30 f i glm.obj
 0001:000d0bf0       ??E?$tmat2x3@N$01@glm@@QAE?AU01@H@Z 004d1bf0 f i glm.obj
 0001:000d0c40       ??E?$tmat2x3@N$01@glm@@QAEAAU01@XZ 004d1c40 f i glm.obj
 0001:000d0d00       ??E?$tmat2x3@N$0A@@glm@@QAE?AU01@H@Z 004d1d00 f i glm.obj
 0001:000d0d50       ??E?$tmat2x3@N$0A@@glm@@QAEAAU01@XZ 004d1d50 f i glm.obj
 0001:000d0e10       ??E?$tmat2x4@M$00@glm@@QAE?AU01@H@Z 004d1e10 f i glm.obj
 0001:000d0e80       ??E?$tmat2x4@M$00@glm@@QAEAAU01@XZ 004d1e80 f i glm.obj
 0001:000d0eb0       ??E?$tmat2x4@M$01@glm@@QAE?AU01@H@Z 004d1eb0 f i glm.obj
 0001:000d0f20       ??E?$tmat2x4@M$01@glm@@QAEAAU01@XZ 004d1f20 f i glm.obj
 0001:000d0f50       ??E?$tmat2x4@M$0A@@glm@@QAE?AU01@H@Z 004d1f50 f i glm.obj
 0001:000d0fc0       ??E?$tmat2x4@M$0A@@glm@@QAEAAU01@XZ 004d1fc0 f i glm.obj
 0001:000d0ff0       ??E?$tmat2x4@N$00@glm@@QAE?AU01@H@Z 004d1ff0 f i glm.obj
 0001:000d1060       ??E?$tmat2x4@N$00@glm@@QAEAAU01@XZ 004d2060 f i glm.obj
 0001:000d1090       ??E?$tmat2x4@N$01@glm@@QAE?AU01@H@Z 004d2090 f i glm.obj
 0001:000d1100       ??E?$tmat2x4@N$01@glm@@QAEAAU01@XZ 004d2100 f i glm.obj
 0001:000d1130       ??E?$tmat2x4@N$0A@@glm@@QAE?AU01@H@Z 004d2130 f i glm.obj
 0001:000d11a0       ??E?$tmat2x4@N$0A@@glm@@QAEAAU01@XZ 004d21a0 f i glm.obj
 0001:000d11d0       ??E?$tmat3x2@M$00@glm@@QAE?AU01@H@Z 004d21d0 f i glm.obj
 0001:000d1250       ??E?$tmat3x2@M$00@glm@@QAEAAU01@XZ 004d2250 f i glm.obj
 0001:000d1320       ??E?$tmat3x2@M$01@glm@@QAE?AU01@H@Z 004d2320 f i glm.obj
 0001:000d13a0       ??E?$tmat3x2@M$01@glm@@QAEAAU01@XZ 004d23a0 f i glm.obj
 0001:000d1470       ??E?$tmat3x2@M$0A@@glm@@QAE?AU01@H@Z 004d2470 f i glm.obj
 0001:000d14f0       ??E?$tmat3x2@M$0A@@glm@@QAEAAU01@XZ 004d24f0 f i glm.obj
 0001:000d15c0       ??E?$tmat3x2@N$00@glm@@QAE?AU01@H@Z 004d25c0 f i glm.obj
 0001:000d1610       ??E?$tmat3x2@N$00@glm@@QAEAAU01@XZ 004d2610 f i glm.obj
 0001:000d16e0       ??E?$tmat3x2@N$01@glm@@QAE?AU01@H@Z 004d26e0 f i glm.obj
 0001:000d1730       ??E?$tmat3x2@N$01@glm@@QAEAAU01@XZ 004d2730 f i glm.obj
 0001:000d1800       ??E?$tmat3x2@N$0A@@glm@@QAE?AU01@H@Z 004d2800 f i glm.obj
 0001:000d1850       ??E?$tmat3x2@N$0A@@glm@@QAEAAU01@XZ 004d2850 f i glm.obj
 0001:000d1920       ??E?$tmat3x3@M$00@glm@@QAE?AU01@H@Z 004d2920 f i glm.obj
 0001:000d1970       ??E?$tmat3x3@M$00@glm@@QAEAAU01@XZ 004d2970 f i glm.obj
 0001:000d1a80       ??E?$tmat3x3@M$01@glm@@QAE?AU01@H@Z 004d2a80 f i glm.obj
 0001:000d1ad0       ??E?$tmat3x3@M$01@glm@@QAEAAU01@XZ 004d2ad0 f i glm.obj
 0001:000d1be0       ??E?$tmat3x3@M$0A@@glm@@QAE?AU01@H@Z 004d2be0 f i glm.obj
 0001:000d1c30       ??E?$tmat3x3@M$0A@@glm@@QAEAAU01@XZ 004d2c30 f i glm.obj
 0001:000d1d40       ??E?$tmat3x3@N$00@glm@@QAE?AU01@H@Z 004d2d40 f i glm.obj
 0001:000d1d90       ??E?$tmat3x3@N$00@glm@@QAEAAU01@XZ 004d2d90 f i glm.obj
 0001:000d1ea0       ??E?$tmat3x3@N$01@glm@@QAE?AU01@H@Z 004d2ea0 f i glm.obj
 0001:000d1ef0       ??E?$tmat3x3@N$01@glm@@QAEAAU01@XZ 004d2ef0 f i glm.obj
 0001:000d2000       ??E?$tmat3x3@N$0A@@glm@@QAE?AU01@H@Z 004d3000 f i glm.obj
 0001:000d2050       ??E?$tmat3x3@N$0A@@glm@@QAEAAU01@XZ 004d3050 f i glm.obj
 0001:000d2160       ??E?$tmat3x4@M$00@glm@@QAE?AU01@H@Z 004d3160 f i glm.obj
 0001:000d21b0       ??E?$tmat3x4@M$00@glm@@QAEAAU01@XZ 004d31b0 f i glm.obj
 0001:000d21f0       ??E?$tmat3x4@M$01@glm@@QAE?AU01@H@Z 004d31f0 f i glm.obj
 0001:000d2240       ??E?$tmat3x4@M$01@glm@@QAEAAU01@XZ 004d3240 f i glm.obj
 0001:000d2280       ??E?$tmat3x4@M$0A@@glm@@QAE?AU01@H@Z 004d3280 f i glm.obj
 0001:000d22d0       ??E?$tmat3x4@M$0A@@glm@@QAEAAU01@XZ 004d32d0 f i glm.obj
 0001:000d2310       ??E?$tmat3x4@N$00@glm@@QAE?AU01@H@Z 004d3310 f i glm.obj
 0001:000d2360       ??E?$tmat3x4@N$00@glm@@QAEAAU01@XZ 004d3360 f i glm.obj
 0001:000d23a0       ??E?$tmat3x4@N$01@glm@@QAE?AU01@H@Z 004d33a0 f i glm.obj
 0001:000d23f0       ??E?$tmat3x4@N$01@glm@@QAEAAU01@XZ 004d33f0 f i glm.obj
 0001:000d2430       ??E?$tmat3x4@N$0A@@glm@@QAE?AU01@H@Z 004d3430 f i glm.obj
 0001:000d2480       ??E?$tmat3x4@N$0A@@glm@@QAEAAU01@XZ 004d3480 f i glm.obj
 0001:000d24c0       ??E?$tmat4x2@M$00@glm@@QAE?AU01@H@Z 004d34c0 f i glm.obj
 0001:000d2510       ??E?$tmat4x2@M$00@glm@@QAEAAU01@XZ 004d3510 f i glm.obj
 0001:000d2610       ??E?$tmat4x2@M$01@glm@@QAE?AU01@H@Z 004d3610 f i glm.obj
 0001:000d2660       ??E?$tmat4x2@M$01@glm@@QAEAAU01@XZ 004d3660 f i glm.obj
 0001:000d2760       ??E?$tmat4x2@M$0A@@glm@@QAE?AU01@H@Z 004d3760 f i glm.obj
 0001:000d27b0       ??E?$tmat4x2@M$0A@@glm@@QAEAAU01@XZ 004d37b0 f i glm.obj
 0001:000d28b0       ??E?$tmat4x2@N$00@glm@@QAE?AU01@H@Z 004d38b0 f i glm.obj
 0001:000d2900       ??E?$tmat4x2@N$00@glm@@QAEAAU01@XZ 004d3900 f i glm.obj
 0001:000d2a00       ??E?$tmat4x2@N$01@glm@@QAE?AU01@H@Z 004d3a00 f i glm.obj
 0001:000d2a50       ??E?$tmat4x2@N$01@glm@@QAEAAU01@XZ 004d3a50 f i glm.obj
 0001:000d2b50       ??E?$tmat4x2@N$0A@@glm@@QAE?AU01@H@Z 004d3b50 f i glm.obj
 0001:000d2ba0       ??E?$tmat4x2@N$0A@@glm@@QAEAAU01@XZ 004d3ba0 f i glm.obj
 0001:000d2ca0       ??E?$tmat4x3@M$00@glm@@QAE?AU01@H@Z 004d3ca0 f i glm.obj
 0001:000d2cf0       ??E?$tmat4x3@M$00@glm@@QAEAAU01@XZ 004d3cf0 f i glm.obj
 0001:000d2e50       ??E?$tmat4x3@M$01@glm@@QAE?AU01@H@Z 004d3e50 f i glm.obj
 0001:000d2ea0       ??E?$tmat4x3@M$01@glm@@QAEAAU01@XZ 004d3ea0 f i glm.obj
 0001:000d3000       ??E?$tmat4x3@M$0A@@glm@@QAE?AU01@H@Z 004d4000 f i glm.obj
 0001:000d3050       ??E?$tmat4x3@M$0A@@glm@@QAEAAU01@XZ 004d4050 f i glm.obj
 0001:000d31b0       ??E?$tmat4x3@N$00@glm@@QAE?AU01@H@Z 004d41b0 f i glm.obj
 0001:000d3200       ??E?$tmat4x3@N$00@glm@@QAEAAU01@XZ 004d4200 f i glm.obj
 0001:000d3360       ??E?$tmat4x3@N$01@glm@@QAE?AU01@H@Z 004d4360 f i glm.obj
 0001:000d33b0       ??E?$tmat4x3@N$01@glm@@QAEAAU01@XZ 004d43b0 f i glm.obj
 0001:000d3510       ??E?$tmat4x3@N$0A@@glm@@QAE?AU01@H@Z 004d4510 f i glm.obj
 0001:000d3560       ??E?$tmat4x3@N$0A@@glm@@QAEAAU01@XZ 004d4560 f i glm.obj
 0001:000d36c0       ??E?$tmat4x4@M$00@glm@@QAE?AU01@H@Z 004d46c0 f i glm.obj
 0001:000d3710       ??E?$tmat4x4@M$00@glm@@QAEAAU01@XZ 004d4710 f i glm.obj
 0001:000d3760       ??E?$tmat4x4@M$01@glm@@QAE?AU01@H@Z 004d4760 f i glm.obj
 0001:000d37b0       ??E?$tmat4x4@M$01@glm@@QAEAAU01@XZ 004d47b0 f i glm.obj
 0001:000d3800       ??E?$tmat4x4@M$0A@@glm@@QAE?AU01@H@Z 004d4800 f i glm.obj
 0001:000d3850       ??E?$tmat4x4@M$0A@@glm@@QAEAAU01@XZ 004d4850 f i glm.obj
 0001:000d38a0       ??E?$tmat4x4@N$00@glm@@QAE?AU01@H@Z 004d48a0 f i glm.obj
 0001:000d3900       ??E?$tmat4x4@N$00@glm@@QAEAAU01@XZ 004d4900 f i glm.obj
 0001:000d3950       ??E?$tmat4x4@N$01@glm@@QAE?AU01@H@Z 004d4950 f i glm.obj
 0001:000d39b0       ??E?$tmat4x4@N$01@glm@@QAEAAU01@XZ 004d49b0 f i glm.obj
 0001:000d3a00       ??E?$tmat4x4@N$0A@@glm@@QAE?AU01@H@Z 004d4a00 f i glm.obj
 0001:000d3a60       ??E?$tmat4x4@N$0A@@glm@@QAEAAU01@XZ 004d4a60 f i glm.obj
 0001:000d3ab0       ??E?$tvec1@C$00@glm@@QAE?AU01@H@Z 004d4ab0 f i glm.obj
 0001:000d3ae0       ??E?$tvec1@C$00@glm@@QAEAAU01@XZ 004d4ae0 f i glm.obj
 0001:000d3b00       ??E?$tvec1@C$01@glm@@QAE?AU01@H@Z 004d4b00 f i glm.obj
 0001:000d3b30       ??E?$tvec1@C$01@glm@@QAEAAU01@XZ 004d4b30 f i glm.obj
 0001:000d3b50       ??E?$tvec1@C$0A@@glm@@QAE?AU01@H@Z 004d4b50 f i glm.obj
 0001:000d3b80       ??E?$tvec1@C$0A@@glm@@QAEAAU01@XZ 004d4b80 f i glm.obj
 0001:000d3ba0       ??E?$tvec1@E$00@glm@@QAE?AU01@H@Z 004d4ba0 f i glm.obj
 0001:000d3bd0       ??E?$tvec1@E$00@glm@@QAEAAU01@XZ 004d4bd0 f i glm.obj
 0001:000d3bf0       ??E?$tvec1@E$01@glm@@QAE?AU01@H@Z 004d4bf0 f i glm.obj
 0001:000d3c20       ??E?$tvec1@E$01@glm@@QAEAAU01@XZ 004d4c20 f i glm.obj
 0001:000d3c40       ??E?$tvec1@E$0A@@glm@@QAE?AU01@H@Z 004d4c40 f i glm.obj
 0001:000d3c70       ??E?$tvec1@E$0A@@glm@@QAEAAU01@XZ 004d4c70 f i glm.obj
 0001:000d3c90       ??E?$tvec1@F$00@glm@@QAE?AU01@H@Z 004d4c90 f i glm.obj
 0001:000d3cd0       ??E?$tvec1@F$00@glm@@QAEAAU01@XZ 004d4cd0 f i glm.obj
 0001:000d3cf0       ??E?$tvec1@F$01@glm@@QAE?AU01@H@Z 004d4cf0 f i glm.obj
 0001:000d3d30       ??E?$tvec1@F$01@glm@@QAEAAU01@XZ 004d4d30 f i glm.obj
 0001:000d3d50       ??E?$tvec1@F$0A@@glm@@QAE?AU01@H@Z 004d4d50 f i glm.obj
 0001:000d3d90       ??E?$tvec1@F$0A@@glm@@QAEAAU01@XZ 004d4d90 f i glm.obj
 0001:000d3db0       ??E?$tvec1@G$00@glm@@QAE?AU01@H@Z 004d4db0 f i glm.obj
 0001:000d3df0       ??E?$tvec1@G$00@glm@@QAEAAU01@XZ 004d4df0 f i glm.obj
 0001:000d3e10       ??E?$tvec1@G$01@glm@@QAE?AU01@H@Z 004d4e10 f i glm.obj
 0001:000d3e50       ??E?$tvec1@G$01@glm@@QAEAAU01@XZ 004d4e50 f i glm.obj
 0001:000d3e70       ??E?$tvec1@G$0A@@glm@@QAE?AU01@H@Z 004d4e70 f i glm.obj
 0001:000d3eb0       ??E?$tvec1@G$0A@@glm@@QAEAAU01@XZ 004d4eb0 f i glm.obj
 0001:000d3ed0       ??E?$tvec1@H$00@glm@@QAE?AU01@H@Z 004d4ed0 f i glm.obj
 0001:000d3f00       ??E?$tvec1@H$00@glm@@QAEAAU01@XZ 004d4f00 f i glm.obj
 0001:000d3f20       ??E?$tvec1@H$01@glm@@QAE?AU01@H@Z 004d4f20 f i glm.obj
 0001:000d3f50       ??E?$tvec1@H$01@glm@@QAEAAU01@XZ 004d4f50 f i glm.obj
 0001:000d3f70       ??E?$tvec1@H$0A@@glm@@QAE?AU01@H@Z 004d4f70 f i glm.obj
 0001:000d3fa0       ??E?$tvec1@H$0A@@glm@@QAEAAU01@XZ 004d4fa0 f i glm.obj
 0001:000d3fc0       ??E?$tvec1@I$00@glm@@QAE?AU01@H@Z 004d4fc0 f i glm.obj
 0001:000d3ff0       ??E?$tvec1@I$00@glm@@QAEAAU01@XZ 004d4ff0 f i glm.obj
 0001:000d4010       ??E?$tvec1@I$01@glm@@QAE?AU01@H@Z 004d5010 f i glm.obj
 0001:000d4040       ??E?$tvec1@I$01@glm@@QAEAAU01@XZ 004d5040 f i glm.obj
 0001:000d4060       ??E?$tvec1@I$0A@@glm@@QAE?AU01@H@Z 004d5060 f i glm.obj
 0001:000d4090       ??E?$tvec1@I$0A@@glm@@QAEAAU01@XZ 004d5090 f i glm.obj
 0001:000d40b0       ??E?$tvec1@M$00@glm@@QAE?AU01@H@Z 004d50b0 f i glm.obj
 0001:000d40f0       ??E?$tvec1@M$00@glm@@QAEAAU01@XZ 004d50f0 f i glm.obj
 0001:000d4120       ??E?$tvec1@M$01@glm@@QAE?AU01@H@Z 004d5120 f i glm.obj
 0001:000d4160       ??E?$tvec1@M$01@glm@@QAEAAU01@XZ 004d5160 f i glm.obj
 0001:000d4190       ??E?$tvec1@M$0A@@glm@@QAE?AU01@H@Z 004d5190 f i glm.obj
 0001:000d41d0       ??E?$tvec1@M$0A@@glm@@QAEAAU01@XZ 004d51d0 f i glm.obj
 0001:000d4200       ??E?$tvec1@N$00@glm@@QAE?AU01@H@Z 004d5200 f i glm.obj
 0001:000d4250       ??E?$tvec1@N$00@glm@@QAEAAU01@XZ 004d5250 f i glm.obj
 0001:000d4280       ??E?$tvec1@N$01@glm@@QAE?AU01@H@Z 004d5280 f i glm.obj
 0001:000d42d0       ??E?$tvec1@N$01@glm@@QAEAAU01@XZ 004d52d0 f i glm.obj
 0001:000d4300       ??E?$tvec1@N$0A@@glm@@QAE?AU01@H@Z 004d5300 f i glm.obj
 0001:000d4350       ??E?$tvec1@N$0A@@glm@@QAEAAU01@XZ 004d5350 f i glm.obj
 0001:000d4380       ??E?$tvec1@_J$00@glm@@QAE?AU01@H@Z 004d5380 f i glm.obj
 0001:000d43d0       ??E?$tvec1@_J$00@glm@@QAEAAU01@XZ 004d53d0 f i glm.obj
 0001:000d4400       ??E?$tvec1@_J$01@glm@@QAE?AU01@H@Z 004d5400 f i glm.obj
 0001:000d4450       ??E?$tvec1@_J$01@glm@@QAEAAU01@XZ 004d5450 f i glm.obj
 0001:000d4480       ??E?$tvec1@_J$0A@@glm@@QAE?AU01@H@Z 004d5480 f i glm.obj
 0001:000d44d0       ??E?$tvec1@_J$0A@@glm@@QAEAAU01@XZ 004d54d0 f i glm.obj
 0001:000d4500       ??E?$tvec1@_K$00@glm@@QAE?AU01@H@Z 004d5500 f i glm.obj
 0001:000d4550       ??E?$tvec1@_K$00@glm@@QAEAAU01@XZ 004d5550 f i glm.obj
 0001:000d4580       ??E?$tvec1@_K$01@glm@@QAE?AU01@H@Z 004d5580 f i glm.obj
 0001:000d45d0       ??E?$tvec1@_K$01@glm@@QAEAAU01@XZ 004d55d0 f i glm.obj
 0001:000d4600       ??E?$tvec1@_K$0A@@glm@@QAE?AU01@H@Z 004d5600 f i glm.obj
 0001:000d4650       ??E?$tvec1@_K$0A@@glm@@QAEAAU01@XZ 004d5650 f i glm.obj
 0001:000d4680       ??E?$tvec2@C$00@glm@@QAE?AU01@H@Z 004d5680 f i glm.obj
 0001:000d46c0       ??E?$tvec2@C$00@glm@@QAEAAU01@XZ 004d56c0 f i glm.obj
 0001:000d46f0       ??E?$tvec2@C$01@glm@@QAE?AU01@H@Z 004d56f0 f i glm.obj
 0001:000d4730       ??E?$tvec2@C$01@glm@@QAEAAU01@XZ 004d5730 f i glm.obj
 0001:000d4760       ??E?$tvec2@C$0A@@glm@@QAE?AU01@H@Z 004d5760 f i glm.obj
 0001:000d47a0       ??E?$tvec2@C$0A@@glm@@QAEAAU01@XZ 004d57a0 f i glm.obj
 0001:000d47d0       ??E?$tvec2@E$00@glm@@QAE?AU01@H@Z 004d57d0 f i glm.obj
 0001:000d4810       ??E?$tvec2@E$00@glm@@QAEAAU01@XZ 004d5810 f i glm.obj
 0001:000d4840       ??E?$tvec2@E$01@glm@@QAE?AU01@H@Z 004d5840 f i glm.obj
 0001:000d4880       ??E?$tvec2@E$01@glm@@QAEAAU01@XZ 004d5880 f i glm.obj
 0001:000d48b0       ??E?$tvec2@E$0A@@glm@@QAE?AU01@H@Z 004d58b0 f i glm.obj
 0001:000d48f0       ??E?$tvec2@E$0A@@glm@@QAEAAU01@XZ 004d58f0 f i glm.obj
 0001:000d4920       ??E?$tvec2@F$00@glm@@QAE?AU01@H@Z 004d5920 f i glm.obj
 0001:000d4970       ??E?$tvec2@F$00@glm@@QAEAAU01@XZ 004d5970 f i glm.obj
 0001:000d49a0       ??E?$tvec2@F$01@glm@@QAE?AU01@H@Z 004d59a0 f i glm.obj
 0001:000d49f0       ??E?$tvec2@F$01@glm@@QAEAAU01@XZ 004d59f0 f i glm.obj
 0001:000d4a20       ??E?$tvec2@F$0A@@glm@@QAE?AU01@H@Z 004d5a20 f i glm.obj
 0001:000d4a70       ??E?$tvec2@F$0A@@glm@@QAEAAU01@XZ 004d5a70 f i glm.obj
 0001:000d4aa0       ??E?$tvec2@G$00@glm@@QAE?AU01@H@Z 004d5aa0 f i glm.obj
 0001:000d4af0       ??E?$tvec2@G$00@glm@@QAEAAU01@XZ 004d5af0 f i glm.obj
 0001:000d4b20       ??E?$tvec2@G$01@glm@@QAE?AU01@H@Z 004d5b20 f i glm.obj
 0001:000d4b70       ??E?$tvec2@G$01@glm@@QAEAAU01@XZ 004d5b70 f i glm.obj
 0001:000d4ba0       ??E?$tvec2@G$0A@@glm@@QAE?AU01@H@Z 004d5ba0 f i glm.obj
 0001:000d4bf0       ??E?$tvec2@G$0A@@glm@@QAEAAU01@XZ 004d5bf0 f i glm.obj
 0001:000d4c20       ??E?$tvec2@H$00@glm@@QAE?AU01@H@Z 004d5c20 f i glm.obj
 0001:000d4c70       ??E?$tvec2@H$00@glm@@QAEAAU01@XZ 004d5c70 f i glm.obj
 0001:000d4ca0       ??E?$tvec2@H$01@glm@@QAE?AU01@H@Z 004d5ca0 f i glm.obj
 0001:000d4cf0       ??E?$tvec2@H$01@glm@@QAEAAU01@XZ 004d5cf0 f i glm.obj
 0001:000d4d20       ??E?$tvec2@H$0A@@glm@@QAE?AU01@H@Z 004d5d20 f i glm.obj
 0001:000d4d70       ??E?$tvec2@H$0A@@glm@@QAEAAU01@XZ 004d5d70 f i glm.obj
 0001:000d4da0       ??E?$tvec2@I$00@glm@@QAE?AU01@H@Z 004d5da0 f i glm.obj
 0001:000d4df0       ??E?$tvec2@I$00@glm@@QAEAAU01@XZ 004d5df0 f i glm.obj
 0001:000d4e20       ??E?$tvec2@I$01@glm@@QAE?AU01@H@Z 004d5e20 f i glm.obj
 0001:000d4e70       ??E?$tvec2@I$01@glm@@QAEAAU01@XZ 004d5e70 f i glm.obj
 0001:000d4ea0       ??E?$tvec2@I$0A@@glm@@QAE?AU01@H@Z 004d5ea0 f i glm.obj
 0001:000d4ef0       ??E?$tvec2@I$0A@@glm@@QAEAAU01@XZ 004d5ef0 f i glm.obj
 0001:000d4f20       ??E?$tvec2@M$00@glm@@QAE?AU01@H@Z 004d5f20 f i glm.obj
 0001:000d4f80       ??E?$tvec2@M$00@glm@@QAEAAU01@XZ 004d5f80 f i glm.obj
 0001:000d4fc0       ??E?$tvec2@M$01@glm@@QAE?AU01@H@Z 004d5fc0 f i glm.obj
 0001:000d5020       ??E?$tvec2@M$01@glm@@QAEAAU01@XZ 004d6020 f i glm.obj
 0001:000d5060       ??E?$tvec2@M$0A@@glm@@QAE?AU01@H@Z 004d6060 f i glm.obj
 0001:000d50c0       ??E?$tvec2@M$0A@@glm@@QAEAAU01@XZ 004d60c0 f i glm.obj
 0001:000d5100       ??E?$tvec2@N$00@glm@@QAE?AU01@H@Z 004d6100 f i glm.obj
 0001:000d5180       ??E?$tvec2@N$00@glm@@QAEAAU01@XZ 004d6180 f i glm.obj
 0001:000d51c0       ??E?$tvec2@N$01@glm@@QAE?AU01@H@Z 004d61c0 f i glm.obj
 0001:000d5240       ??E?$tvec2@N$01@glm@@QAEAAU01@XZ 004d6240 f i glm.obj
 0001:000d5280       ??E?$tvec2@N$0A@@glm@@QAE?AU01@H@Z 004d6280 f i glm.obj
 0001:000d5300       ??E?$tvec2@N$0A@@glm@@QAEAAU01@XZ 004d6300 f i glm.obj
 0001:000d5340       ??E?$tvec2@_J$00@glm@@QAE?AU01@H@Z 004d6340 f i glm.obj
 0001:000d53c0       ??E?$tvec2@_J$00@glm@@QAEAAU01@XZ 004d63c0 f i glm.obj
 0001:000d5400       ??E?$tvec2@_J$01@glm@@QAE?AU01@H@Z 004d6400 f i glm.obj
 0001:000d5480       ??E?$tvec2@_J$01@glm@@QAEAAU01@XZ 004d6480 f i glm.obj
 0001:000d54c0       ??E?$tvec2@_J$0A@@glm@@QAE?AU01@H@Z 004d64c0 f i glm.obj
 0001:000d5540       ??E?$tvec2@_J$0A@@glm@@QAEAAU01@XZ 004d6540 f i glm.obj
 0001:000d5580       ??E?$tvec2@_K$00@glm@@QAE?AU01@H@Z 004d6580 f i glm.obj
 0001:000d5600       ??E?$tvec2@_K$00@glm@@QAEAAU01@XZ 004d6600 f i glm.obj
 0001:000d5640       ??E?$tvec2@_K$01@glm@@QAE?AU01@H@Z 004d6640 f i glm.obj
 0001:000d56c0       ??E?$tvec2@_K$01@glm@@QAEAAU01@XZ 004d66c0 f i glm.obj
 0001:000d5700       ??E?$tvec2@_K$0A@@glm@@QAE?AU01@H@Z 004d6700 f i glm.obj
 0001:000d5780       ??E?$tvec2@_K$0A@@glm@@QAEAAU01@XZ 004d6780 f i glm.obj
 0001:000d57c0       ??E?$tvec3@C$00@glm@@QAE?AU01@H@Z 004d67c0 f i glm.obj
 0001:000d5820       ??E?$tvec3@C$00@glm@@QAEAAU01@XZ 004d6820 f i glm.obj
 0001:000d5860       ??E?$tvec3@C$01@glm@@QAE?AU01@H@Z 004d6860 f i glm.obj
 0001:000d58c0       ??E?$tvec3@C$01@glm@@QAEAAU01@XZ 004d68c0 f i glm.obj
 0001:000d5900       ??E?$tvec3@C$0A@@glm@@QAE?AU01@H@Z 004d6900 f i glm.obj
 0001:000d5960       ??E?$tvec3@C$0A@@glm@@QAEAAU01@XZ 004d6960 f i glm.obj
 0001:000d59a0       ??E?$tvec3@E$00@glm@@QAE?AU01@H@Z 004d69a0 f i glm.obj
 0001:000d5a00       ??E?$tvec3@E$00@glm@@QAEAAU01@XZ 004d6a00 f i glm.obj
 0001:000d5a40       ??E?$tvec3@E$01@glm@@QAE?AU01@H@Z 004d6a40 f i glm.obj
 0001:000d5aa0       ??E?$tvec3@E$01@glm@@QAEAAU01@XZ 004d6aa0 f i glm.obj
 0001:000d5ae0       ??E?$tvec3@E$0A@@glm@@QAE?AU01@H@Z 004d6ae0 f i glm.obj
 0001:000d5b40       ??E?$tvec3@E$0A@@glm@@QAEAAU01@XZ 004d6b40 f i glm.obj
 0001:000d5b80       ??E?$tvec3@F$00@glm@@QAE?AU01@H@Z 004d6b80 f i glm.obj
 0001:000d5bf0       ??E?$tvec3@F$00@glm@@QAEAAU01@XZ 004d6bf0 f i glm.obj
 0001:000d5c40       ??E?$tvec3@F$01@glm@@QAE?AU01@H@Z 004d6c40 f i glm.obj
 0001:000d5cb0       ??E?$tvec3@F$01@glm@@QAEAAU01@XZ 004d6cb0 f i glm.obj
 0001:000d5d00       ??E?$tvec3@F$0A@@glm@@QAE?AU01@H@Z 004d6d00 f i glm.obj
 0001:000d5d70       ??E?$tvec3@F$0A@@glm@@QAEAAU01@XZ 004d6d70 f i glm.obj
 0001:000d5dc0       ??E?$tvec3@G$00@glm@@QAE?AU01@H@Z 004d6dc0 f i glm.obj
 0001:000d5e30       ??E?$tvec3@G$00@glm@@QAEAAU01@XZ 004d6e30 f i glm.obj
 0001:000d5e80       ??E?$tvec3@G$01@glm@@QAE?AU01@H@Z 004d6e80 f i glm.obj
 0001:000d5ef0       ??E?$tvec3@G$01@glm@@QAEAAU01@XZ 004d6ef0 f i glm.obj
 0001:000d5f40       ??E?$tvec3@G$0A@@glm@@QAE?AU01@H@Z 004d6f40 f i glm.obj
 0001:000d5fb0       ??E?$tvec3@G$0A@@glm@@QAEAAU01@XZ 004d6fb0 f i glm.obj
 0001:000d6000       ??E?$tvec3@H$00@glm@@QAE?AU01@H@Z 004d7000 f i glm.obj
 0001:000d6070       ??E?$tvec3@H$00@glm@@QAEAAU01@XZ 004d7070 f i glm.obj
 0001:000d60b0       ??E?$tvec3@H$01@glm@@QAE?AU01@H@Z 004d70b0 f i glm.obj
 0001:000d6120       ??E?$tvec3@H$01@glm@@QAEAAU01@XZ 004d7120 f i glm.obj
 0001:000d6160       ??E?$tvec3@H$0A@@glm@@QAE?AU01@H@Z 004d7160 f i glm.obj
 0001:000d61d0       ??E?$tvec3@H$0A@@glm@@QAEAAU01@XZ 004d71d0 f i glm.obj
 0001:000d6210       ??E?$tvec3@I$00@glm@@QAE?AU01@H@Z 004d7210 f i glm.obj
 0001:000d6280       ??E?$tvec3@I$00@glm@@QAEAAU01@XZ 004d7280 f i glm.obj
 0001:000d62c0       ??E?$tvec3@I$01@glm@@QAE?AU01@H@Z 004d72c0 f i glm.obj
 0001:000d6330       ??E?$tvec3@I$01@glm@@QAEAAU01@XZ 004d7330 f i glm.obj
 0001:000d6370       ??E?$tvec3@I$0A@@glm@@QAE?AU01@H@Z 004d7370 f i glm.obj
 0001:000d63e0       ??E?$tvec3@I$0A@@glm@@QAEAAU01@XZ 004d73e0 f i glm.obj
 0001:000d6420       ??E?$tvec3@M$00@glm@@QAE?AU01@H@Z 004d7420 f i glm.obj
 0001:000d64a0       ??E?$tvec3@M$00@glm@@QAEAAU01@XZ 004d74a0 f i glm.obj
 0001:000d6500       ??E?$tvec3@M$01@glm@@QAE?AU01@H@Z 004d7500 f i glm.obj
 0001:000d6580       ??E?$tvec3@M$01@glm@@QAEAAU01@XZ 004d7580 f i glm.obj
 0001:000d65e0       ??E?$tvec3@M$0A@@glm@@QAE?AU01@H@Z 004d75e0 f i glm.obj
 0001:000d6660       ??E?$tvec3@M$0A@@glm@@QAEAAU01@XZ 004d7660 f i glm.obj
 0001:000d66c0       ??E?$tvec3@N$00@glm@@QAE?AU01@H@Z 004d76c0 f i glm.obj
 0001:000d6770       ??E?$tvec3@N$00@glm@@QAEAAU01@XZ 004d7770 f i glm.obj
 0001:000d67d0       ??E?$tvec3@N$01@glm@@QAE?AU01@H@Z 004d77d0 f i glm.obj
 0001:000d6880       ??E?$tvec3@N$01@glm@@QAEAAU01@XZ 004d7880 f i glm.obj
 0001:000d68e0       ??E?$tvec3@N$0A@@glm@@QAE?AU01@H@Z 004d78e0 f i glm.obj
 0001:000d6990       ??E?$tvec3@N$0A@@glm@@QAEAAU01@XZ 004d7990 f i glm.obj
 0001:000d69f0       ??E?$tvec3@_J$00@glm@@QAE?AU01@H@Z 004d79f0 f i glm.obj
 0001:000d6aa0       ??E?$tvec3@_J$00@glm@@QAEAAU01@XZ 004d7aa0 f i glm.obj
 0001:000d6b00       ??E?$tvec3@_J$01@glm@@QAE?AU01@H@Z 004d7b00 f i glm.obj
 0001:000d6bb0       ??E?$tvec3@_J$01@glm@@QAEAAU01@XZ 004d7bb0 f i glm.obj
 0001:000d6c10       ??E?$tvec3@_J$0A@@glm@@QAE?AU01@H@Z 004d7c10 f i glm.obj
 0001:000d6cc0       ??E?$tvec3@_J$0A@@glm@@QAEAAU01@XZ 004d7cc0 f i glm.obj
 0001:000d6d20       ??E?$tvec3@_K$00@glm@@QAE?AU01@H@Z 004d7d20 f i glm.obj
 0001:000d6dd0       ??E?$tvec3@_K$00@glm@@QAEAAU01@XZ 004d7dd0 f i glm.obj
 0001:000d6e30       ??E?$tvec3@_K$01@glm@@QAE?AU01@H@Z 004d7e30 f i glm.obj
 0001:000d6ee0       ??E?$tvec3@_K$01@glm@@QAEAAU01@XZ 004d7ee0 f i glm.obj
 0001:000d6f40       ??E?$tvec3@_K$0A@@glm@@QAE?AU01@H@Z 004d7f40 f i glm.obj
 0001:000d6ff0       ??E?$tvec3@_K$0A@@glm@@QAEAAU01@XZ 004d7ff0 f i glm.obj
 0001:000d7050       ??E?$tvec4@C$00@glm@@QAE?AU01@H@Z 004d8050 f i glm.obj
 0001:000d7080       ??E?$tvec4@C$00@glm@@QAEAAU01@XZ 004d8080 f i glm.obj
 0001:000d70d0       ??E?$tvec4@C$01@glm@@QAE?AU01@H@Z 004d80d0 f i glm.obj
 0001:000d7100       ??E?$tvec4@C$01@glm@@QAEAAU01@XZ 004d8100 f i glm.obj
 0001:000d7150       ??E?$tvec4@C$0A@@glm@@QAE?AU01@H@Z 004d8150 f i glm.obj
 0001:000d7180       ??E?$tvec4@C$0A@@glm@@QAEAAU01@XZ 004d8180 f i glm.obj
 0001:000d71d0       ??E?$tvec4@E$00@glm@@QAE?AU01@H@Z 004d81d0 f i glm.obj
 0001:000d7200       ??E?$tvec4@E$00@glm@@QAEAAU01@XZ 004d8200 f i glm.obj
 0001:000d7250       ??E?$tvec4@E$01@glm@@QAE?AU01@H@Z 004d8250 f i glm.obj
 0001:000d7280       ??E?$tvec4@E$01@glm@@QAEAAU01@XZ 004d8280 f i glm.obj
 0001:000d72d0       ??E?$tvec4@E$0A@@glm@@QAE?AU01@H@Z 004d82d0 f i glm.obj
 0001:000d7300       ??E?$tvec4@E$0A@@glm@@QAEAAU01@XZ 004d8300 f i glm.obj
 0001:000d7350       ??E?$tvec4@F$00@glm@@QAE?AU01@H@Z 004d8350 f i glm.obj
 0001:000d7390       ??E?$tvec4@F$00@glm@@QAEAAU01@XZ 004d8390 f i glm.obj
 0001:000d73f0       ??E?$tvec4@F$01@glm@@QAE?AU01@H@Z 004d83f0 f i glm.obj
 0001:000d7430       ??E?$tvec4@F$01@glm@@QAEAAU01@XZ 004d8430 f i glm.obj
 0001:000d7490       ??E?$tvec4@F$0A@@glm@@QAE?AU01@H@Z 004d8490 f i glm.obj
 0001:000d74d0       ??E?$tvec4@F$0A@@glm@@QAEAAU01@XZ 004d84d0 f i glm.obj
 0001:000d7530       ??E?$tvec4@G$00@glm@@QAE?AU01@H@Z 004d8530 f i glm.obj
 0001:000d7570       ??E?$tvec4@G$00@glm@@QAEAAU01@XZ 004d8570 f i glm.obj
 0001:000d75d0       ??E?$tvec4@G$01@glm@@QAE?AU01@H@Z 004d85d0 f i glm.obj
 0001:000d7610       ??E?$tvec4@G$01@glm@@QAEAAU01@XZ 004d8610 f i glm.obj
 0001:000d7670       ??E?$tvec4@G$0A@@glm@@QAE?AU01@H@Z 004d8670 f i glm.obj
 0001:000d76b0       ??E?$tvec4@G$0A@@glm@@QAEAAU01@XZ 004d86b0 f i glm.obj
 0001:000d7710       ??E?$tvec4@H$00@glm@@QAE?AU01@H@Z 004d8710 f i glm.obj
 0001:000d7760       ??E?$tvec4@H$00@glm@@QAEAAU01@XZ 004d8760 f i glm.obj
 0001:000d77b0       ??E?$tvec4@H$01@glm@@QAE?AU01@H@Z 004d87b0 f i glm.obj
 0001:000d7800       ??E?$tvec4@H$01@glm@@QAEAAU01@XZ 004d8800 f i glm.obj
 0001:000d7850       ??E?$tvec4@H$0A@@glm@@QAE?AU01@H@Z 004d8850 f i glm.obj
 0001:000d78a0       ??E?$tvec4@H$0A@@glm@@QAEAAU01@XZ 004d88a0 f i glm.obj
 0001:000d78f0       ??E?$tvec4@I$00@glm@@QAE?AU01@H@Z 004d88f0 f i glm.obj
 0001:000d7940       ??E?$tvec4@I$00@glm@@QAEAAU01@XZ 004d8940 f i glm.obj
 0001:000d7990       ??E?$tvec4@I$01@glm@@QAE?AU01@H@Z 004d8990 f i glm.obj
 0001:000d79e0       ??E?$tvec4@I$01@glm@@QAEAAU01@XZ 004d89e0 f i glm.obj
 0001:000d7a30       ??E?$tvec4@I$0A@@glm@@QAE?AU01@H@Z 004d8a30 f i glm.obj
 0001:000d7a80       ??E?$tvec4@I$0A@@glm@@QAEAAU01@XZ 004d8a80 f i glm.obj
 0001:000d7ad0       ??E?$tvec4@M$00@glm@@QAE?AU01@H@Z 004d8ad0 f i glm.obj
 0001:000d7b20       ??E?$tvec4@M$00@glm@@QAEAAU01@XZ 004d8b20 f i glm.obj
 0001:000d7b90       ??E?$tvec4@M$01@glm@@QAE?AU01@H@Z 004d8b90 f i glm.obj
 0001:000d7be0       ??E?$tvec4@M$01@glm@@QAEAAU01@XZ 004d8be0 f i glm.obj
 0001:000d7c50       ??E?$tvec4@M$0A@@glm@@QAE?AU01@H@Z 004d8c50 f i glm.obj
 0001:000d7ca0       ??E?$tvec4@M$0A@@glm@@QAEAAU01@XZ 004d8ca0 f i glm.obj
 0001:000d7d10       ??E?$tvec4@N$00@glm@@QAE?AU01@H@Z 004d8d10 f i glm.obj
 0001:000d7d50       ??E?$tvec4@N$00@glm@@QAEAAU01@XZ 004d8d50 f i glm.obj
 0001:000d7dc0       ??E?$tvec4@N$01@glm@@QAE?AU01@H@Z 004d8dc0 f i glm.obj
 0001:000d7e00       ??E?$tvec4@N$01@glm@@QAEAAU01@XZ 004d8e00 f i glm.obj
 0001:000d7e70       ??E?$tvec4@N$0A@@glm@@QAE?AU01@H@Z 004d8e70 f i glm.obj
 0001:000d7eb0       ??E?$tvec4@N$0A@@glm@@QAEAAU01@XZ 004d8eb0 f i glm.obj
 0001:000d7f20       ??E?$tvec4@_J$00@glm@@QAE?AU01@H@Z 004d8f20 f i glm.obj
 0001:000d7f60       ??E?$tvec4@_J$00@glm@@QAEAAU01@XZ 004d8f60 f i glm.obj
 0001:000d7fd0       ??E?$tvec4@_J$01@glm@@QAE?AU01@H@Z 004d8fd0 f i glm.obj
 0001:000d8010       ??E?$tvec4@_J$01@glm@@QAEAAU01@XZ 004d9010 f i glm.obj
 0001:000d8080       ??E?$tvec4@_J$0A@@glm@@QAE?AU01@H@Z 004d9080 f i glm.obj
 0001:000d80c0       ??E?$tvec4@_J$0A@@glm@@QAEAAU01@XZ 004d90c0 f i glm.obj
 0001:000d8130       ??E?$tvec4@_K$00@glm@@QAE?AU01@H@Z 004d9130 f i glm.obj
 0001:000d8170       ??E?$tvec4@_K$00@glm@@QAEAAU01@XZ 004d9170 f i glm.obj
 0001:000d81e0       ??E?$tvec4@_K$01@glm@@QAE?AU01@H@Z 004d91e0 f i glm.obj
 0001:000d8220       ??E?$tvec4@_K$01@glm@@QAEAAU01@XZ 004d9220 f i glm.obj
 0001:000d8290       ??E?$tvec4@_K$0A@@glm@@QAE?AU01@H@Z 004d9290 f i glm.obj
 0001:000d82d0       ??E?$tvec4@_K$0A@@glm@@QAEAAU01@XZ 004d92d0 f i glm.obj
 0001:000d8340       ??F?$tmat2x2@M$00@glm@@QAE?AU01@H@Z 004d9340 f i glm.obj
 0001:000d83b0       ??F?$tmat2x2@M$00@glm@@QAEAAU01@XZ 004d93b0 f i glm.obj
 0001:000d8440       ??F?$tmat2x2@M$01@glm@@QAE?AU01@H@Z 004d9440 f i glm.obj
 0001:000d84b0       ??F?$tmat2x2@M$01@glm@@QAEAAU01@XZ 004d94b0 f i glm.obj
 0001:000d8540       ??F?$tmat2x2@M$0A@@glm@@QAE?AU01@H@Z 004d9540 f i glm.obj
 0001:000d85b0       ??F?$tmat2x2@M$0A@@glm@@QAEAAU01@XZ 004d95b0 f i glm.obj
 0001:000d8640       ??F?$tmat2x2@N$00@glm@@QAE?AU01@H@Z 004d9640 f i glm.obj
 0001:000d8690       ??F?$tmat2x2@N$00@glm@@QAEAAU01@XZ 004d9690 f i glm.obj
 0001:000d8720       ??F?$tmat2x2@N$01@glm@@QAE?AU01@H@Z 004d9720 f i glm.obj
 0001:000d8770       ??F?$tmat2x2@N$01@glm@@QAEAAU01@XZ 004d9770 f i glm.obj
 0001:000d8800       ??F?$tmat2x2@N$0A@@glm@@QAE?AU01@H@Z 004d9800 f i glm.obj
 0001:000d8850       ??F?$tmat2x2@N$0A@@glm@@QAEAAU01@XZ 004d9850 f i glm.obj
 0001:000d88e0       ??F?$tmat2x3@M$00@glm@@QAE?AU01@H@Z 004d98e0 f i glm.obj
 0001:000d8960       ??F?$tmat2x3@M$00@glm@@QAEAAU01@XZ 004d9960 f i glm.obj
 0001:000d8a20       ??F?$tmat2x3@M$01@glm@@QAE?AU01@H@Z 004d9a20 f i glm.obj
 0001:000d8aa0       ??F?$tmat2x3@M$01@glm@@QAEAAU01@XZ 004d9aa0 f i glm.obj
 0001:000d8b60       ??F?$tmat2x3@M$0A@@glm@@QAE?AU01@H@Z 004d9b60 f i glm.obj
 0001:000d8be0       ??F?$tmat2x3@M$0A@@glm@@QAEAAU01@XZ 004d9be0 f i glm.obj
 0001:000d8ca0       ??F?$tmat2x3@N$00@glm@@QAE?AU01@H@Z 004d9ca0 f i glm.obj
 0001:000d8cf0       ??F?$tmat2x3@N$00@glm@@QAEAAU01@XZ 004d9cf0 f i glm.obj
 0001:000d8db0       ??F?$tmat2x3@N$01@glm@@QAE?AU01@H@Z 004d9db0 f i glm.obj
 0001:000d8e00       ??F?$tmat2x3@N$01@glm@@QAEAAU01@XZ 004d9e00 f i glm.obj
 0001:000d8ec0       ??F?$tmat2x3@N$0A@@glm@@QAE?AU01@H@Z 004d9ec0 f i glm.obj
 0001:000d8f10       ??F?$tmat2x3@N$0A@@glm@@QAEAAU01@XZ 004d9f10 f i glm.obj
 0001:000d8fd0       ??F?$tmat2x4@M$00@glm@@QAE?AU01@H@Z 004d9fd0 f i glm.obj
 0001:000d9040       ??F?$tmat2x4@M$00@glm@@QAEAAU01@XZ 004da040 f i glm.obj
 0001:000d9070       ??F?$tmat2x4@M$01@glm@@QAE?AU01@H@Z 004da070 f i glm.obj
 0001:000d90e0       ??F?$tmat2x4@M$01@glm@@QAEAAU01@XZ 004da0e0 f i glm.obj
 0001:000d9110       ??F?$tmat2x4@M$0A@@glm@@QAE?AU01@H@Z 004da110 f i glm.obj
 0001:000d9180       ??F?$tmat2x4@M$0A@@glm@@QAEAAU01@XZ 004da180 f i glm.obj
 0001:000d91b0       ??F?$tmat2x4@N$00@glm@@QAE?AU01@H@Z 004da1b0 f i glm.obj
 0001:000d9220       ??F?$tmat2x4@N$00@glm@@QAEAAU01@XZ 004da220 f i glm.obj
 0001:000d9250       ??F?$tmat2x4@N$01@glm@@QAE?AU01@H@Z 004da250 f i glm.obj
 0001:000d92c0       ??F?$tmat2x4@N$01@glm@@QAEAAU01@XZ 004da2c0 f i glm.obj
 0001:000d92f0       ??F?$tmat2x4@N$0A@@glm@@QAE?AU01@H@Z 004da2f0 f i glm.obj
 0001:000d9360       ??F?$tmat2x4@N$0A@@glm@@QAEAAU01@XZ 004da360 f i glm.obj
 0001:000d9390       ??F?$tmat3x2@M$00@glm@@QAE?AU01@H@Z 004da390 f i glm.obj
 0001:000d9410       ??F?$tmat3x2@M$00@glm@@QAEAAU01@XZ 004da410 f i glm.obj
 0001:000d94e0       ??F?$tmat3x2@M$01@glm@@QAE?AU01@H@Z 004da4e0 f i glm.obj
 0001:000d9560       ??F?$tmat3x2@M$01@glm@@QAEAAU01@XZ 004da560 f i glm.obj
 0001:000d9630       ??F?$tmat3x2@M$0A@@glm@@QAE?AU01@H@Z 004da630 f i glm.obj
 0001:000d96b0       ??F?$tmat3x2@M$0A@@glm@@QAEAAU01@XZ 004da6b0 f i glm.obj
 0001:000d9780       ??F?$tmat3x2@N$00@glm@@QAE?AU01@H@Z 004da780 f i glm.obj
 0001:000d97d0       ??F?$tmat3x2@N$00@glm@@QAEAAU01@XZ 004da7d0 f i glm.obj
 0001:000d98a0       ??F?$tmat3x2@N$01@glm@@QAE?AU01@H@Z 004da8a0 f i glm.obj
 0001:000d98f0       ??F?$tmat3x2@N$01@glm@@QAEAAU01@XZ 004da8f0 f i glm.obj
 0001:000d99c0       ??F?$tmat3x2@N$0A@@glm@@QAE?AU01@H@Z 004da9c0 f i glm.obj
 0001:000d9a10       ??F?$tmat3x2@N$0A@@glm@@QAEAAU01@XZ 004daa10 f i glm.obj
 0001:000d9ae0       ??F?$tmat3x3@M$00@glm@@QAE?AU01@H@Z 004daae0 f i glm.obj
 0001:000d9b30       ??F?$tmat3x3@M$00@glm@@QAEAAU01@XZ 004dab30 f i glm.obj
 0001:000d9c40       ??F?$tmat3x3@M$01@glm@@QAE?AU01@H@Z 004dac40 f i glm.obj
 0001:000d9c90       ??F?$tmat3x3@M$01@glm@@QAEAAU01@XZ 004dac90 f i glm.obj
 0001:000d9da0       ??F?$tmat3x3@M$0A@@glm@@QAE?AU01@H@Z 004dada0 f i glm.obj
 0001:000d9df0       ??F?$tmat3x3@M$0A@@glm@@QAEAAU01@XZ 004dadf0 f i glm.obj
 0001:000d9f00       ??F?$tmat3x3@N$00@glm@@QAE?AU01@H@Z 004daf00 f i glm.obj
 0001:000d9f50       ??F?$tmat3x3@N$00@glm@@QAEAAU01@XZ 004daf50 f i glm.obj
 0001:000da060       ??F?$tmat3x3@N$01@glm@@QAE?AU01@H@Z 004db060 f i glm.obj
 0001:000da0b0       ??F?$tmat3x3@N$01@glm@@QAEAAU01@XZ 004db0b0 f i glm.obj
 0001:000da1c0       ??F?$tmat3x3@N$0A@@glm@@QAE?AU01@H@Z 004db1c0 f i glm.obj
 0001:000da210       ??F?$tmat3x3@N$0A@@glm@@QAEAAU01@XZ 004db210 f i glm.obj
 0001:000da320       ??F?$tmat3x4@M$00@glm@@QAE?AU01@H@Z 004db320 f i glm.obj
 0001:000da370       ??F?$tmat3x4@M$00@glm@@QAEAAU01@XZ 004db370 f i glm.obj
 0001:000da3b0       ??F?$tmat3x4@M$01@glm@@QAE?AU01@H@Z 004db3b0 f i glm.obj
 0001:000da400       ??F?$tmat3x4@M$01@glm@@QAEAAU01@XZ 004db400 f i glm.obj
 0001:000da440       ??F?$tmat3x4@M$0A@@glm@@QAE?AU01@H@Z 004db440 f i glm.obj
 0001:000da490       ??F?$tmat3x4@M$0A@@glm@@QAEAAU01@XZ 004db490 f i glm.obj
 0001:000da4d0       ??F?$tmat3x4@N$00@glm@@QAE?AU01@H@Z 004db4d0 f i glm.obj
 0001:000da520       ??F?$tmat3x4@N$00@glm@@QAEAAU01@XZ 004db520 f i glm.obj
 0001:000da560       ??F?$tmat3x4@N$01@glm@@QAE?AU01@H@Z 004db560 f i glm.obj
 0001:000da5b0       ??F?$tmat3x4@N$01@glm@@QAEAAU01@XZ 004db5b0 f i glm.obj
 0001:000da5f0       ??F?$tmat3x4@N$0A@@glm@@QAE?AU01@H@Z 004db5f0 f i glm.obj
 0001:000da640       ??F?$tmat3x4@N$0A@@glm@@QAEAAU01@XZ 004db640 f i glm.obj
 0001:000da680       ??F?$tmat4x2@M$00@glm@@QAE?AU01@H@Z 004db680 f i glm.obj
 0001:000da6d0       ??F?$tmat4x2@M$00@glm@@QAEAAU01@XZ 004db6d0 f i glm.obj
 0001:000da7d0       ??F?$tmat4x2@M$01@glm@@QAE?AU01@H@Z 004db7d0 f i glm.obj
 0001:000da820       ??F?$tmat4x2@M$01@glm@@QAEAAU01@XZ 004db820 f i glm.obj
 0001:000da920       ??F?$tmat4x2@M$0A@@glm@@QAE?AU01@H@Z 004db920 f i glm.obj
 0001:000da970       ??F?$tmat4x2@M$0A@@glm@@QAEAAU01@XZ 004db970 f i glm.obj
 0001:000daa70       ??F?$tmat4x2@N$00@glm@@QAE?AU01@H@Z 004dba70 f i glm.obj
 0001:000daac0       ??F?$tmat4x2@N$00@glm@@QAEAAU01@XZ 004dbac0 f i glm.obj
 0001:000dabc0       ??F?$tmat4x2@N$01@glm@@QAE?AU01@H@Z 004dbbc0 f i glm.obj
 0001:000dac10       ??F?$tmat4x2@N$01@glm@@QAEAAU01@XZ 004dbc10 f i glm.obj
 0001:000dad10       ??F?$tmat4x2@N$0A@@glm@@QAE?AU01@H@Z 004dbd10 f i glm.obj
 0001:000dad60       ??F?$tmat4x2@N$0A@@glm@@QAEAAU01@XZ 004dbd60 f i glm.obj
 0001:000dae60       ??F?$tmat4x3@M$00@glm@@QAE?AU01@H@Z 004dbe60 f i glm.obj
 0001:000daeb0       ??F?$tmat4x3@M$00@glm@@QAEAAU01@XZ 004dbeb0 f i glm.obj
 0001:000db010       ??F?$tmat4x3@M$01@glm@@QAE?AU01@H@Z 004dc010 f i glm.obj
 0001:000db060       ??F?$tmat4x3@M$01@glm@@QAEAAU01@XZ 004dc060 f i glm.obj
 0001:000db1c0       ??F?$tmat4x3@M$0A@@glm@@QAE?AU01@H@Z 004dc1c0 f i glm.obj
 0001:000db210       ??F?$tmat4x3@M$0A@@glm@@QAEAAU01@XZ 004dc210 f i glm.obj
 0001:000db370       ??F?$tmat4x3@N$00@glm@@QAE?AU01@H@Z 004dc370 f i glm.obj
 0001:000db3c0       ??F?$tmat4x3@N$00@glm@@QAEAAU01@XZ 004dc3c0 f i glm.obj
 0001:000db520       ??F?$tmat4x3@N$01@glm@@QAE?AU01@H@Z 004dc520 f i glm.obj
 0001:000db570       ??F?$tmat4x3@N$01@glm@@QAEAAU01@XZ 004dc570 f i glm.obj
 0001:000db6d0       ??F?$tmat4x3@N$0A@@glm@@QAE?AU01@H@Z 004dc6d0 f i glm.obj
 0001:000db720       ??F?$tmat4x3@N$0A@@glm@@QAEAAU01@XZ 004dc720 f i glm.obj
 0001:000db880       ??F?$tmat4x4@M$00@glm@@QAE?AU01@H@Z 004dc880 f i glm.obj
 0001:000db8d0       ??F?$tmat4x4@M$00@glm@@QAEAAU01@XZ 004dc8d0 f i glm.obj
 0001:000db920       ??F?$tmat4x4@M$01@glm@@QAE?AU01@H@Z 004dc920 f i glm.obj
 0001:000db970       ??F?$tmat4x4@M$01@glm@@QAEAAU01@XZ 004dc970 f i glm.obj
 0001:000db9c0       ??F?$tmat4x4@M$0A@@glm@@QAE?AU01@H@Z 004dc9c0 f i glm.obj
 0001:000dba10       ??F?$tmat4x4@M$0A@@glm@@QAEAAU01@XZ 004dca10 f i glm.obj
 0001:000dba60       ??F?$tmat4x4@N$00@glm@@QAE?AU01@H@Z 004dca60 f i glm.obj
 0001:000dbac0       ??F?$tmat4x4@N$00@glm@@QAEAAU01@XZ 004dcac0 f i glm.obj
 0001:000dbb10       ??F?$tmat4x4@N$01@glm@@QAE?AU01@H@Z 004dcb10 f i glm.obj
 0001:000dbb70       ??F?$tmat4x4@N$01@glm@@QAEAAU01@XZ 004dcb70 f i glm.obj
 0001:000dbbc0       ??F?$tmat4x4@N$0A@@glm@@QAE?AU01@H@Z 004dcbc0 f i glm.obj
 0001:000dbc20       ??F?$tmat4x4@N$0A@@glm@@QAEAAU01@XZ 004dcc20 f i glm.obj
 0001:000dbc70       ??F?$tvec1@C$00@glm@@QAE?AU01@H@Z 004dcc70 f i glm.obj
 0001:000dbca0       ??F?$tvec1@C$00@glm@@QAEAAU01@XZ 004dcca0 f i glm.obj
 0001:000dbcc0       ??F?$tvec1@C$01@glm@@QAE?AU01@H@Z 004dccc0 f i glm.obj
 0001:000dbcf0       ??F?$tvec1@C$01@glm@@QAEAAU01@XZ 004dccf0 f i glm.obj
 0001:000dbd10       ??F?$tvec1@C$0A@@glm@@QAE?AU01@H@Z 004dcd10 f i glm.obj
 0001:000dbd40       ??F?$tvec1@C$0A@@glm@@QAEAAU01@XZ 004dcd40 f i glm.obj
 0001:000dbd60       ??F?$tvec1@E$00@glm@@QAE?AU01@H@Z 004dcd60 f i glm.obj
 0001:000dbd90       ??F?$tvec1@E$00@glm@@QAEAAU01@XZ 004dcd90 f i glm.obj
 0001:000dbdb0       ??F?$tvec1@E$01@glm@@QAE?AU01@H@Z 004dcdb0 f i glm.obj
 0001:000dbde0       ??F?$tvec1@E$01@glm@@QAEAAU01@XZ 004dcde0 f i glm.obj
 0001:000dbe00       ??F?$tvec1@E$0A@@glm@@QAE?AU01@H@Z 004dce00 f i glm.obj
 0001:000dbe30       ??F?$tvec1@E$0A@@glm@@QAEAAU01@XZ 004dce30 f i glm.obj
 0001:000dbe50       ??F?$tvec1@F$00@glm@@QAE?AU01@H@Z 004dce50 f i glm.obj
 0001:000dbe90       ??F?$tvec1@F$00@glm@@QAEAAU01@XZ 004dce90 f i glm.obj
 0001:000dbeb0       ??F?$tvec1@F$01@glm@@QAE?AU01@H@Z 004dceb0 f i glm.obj
 0001:000dbef0       ??F?$tvec1@F$01@glm@@QAEAAU01@XZ 004dcef0 f i glm.obj
 0001:000dbf10       ??F?$tvec1@F$0A@@glm@@QAE?AU01@H@Z 004dcf10 f i glm.obj
 0001:000dbf50       ??F?$tvec1@F$0A@@glm@@QAEAAU01@XZ 004dcf50 f i glm.obj
 0001:000dbf70       ??F?$tvec1@G$00@glm@@QAE?AU01@H@Z 004dcf70 f i glm.obj
 0001:000dbfb0       ??F?$tvec1@G$00@glm@@QAEAAU01@XZ 004dcfb0 f i glm.obj
 0001:000dbfd0       ??F?$tvec1@G$01@glm@@QAE?AU01@H@Z 004dcfd0 f i glm.obj
 0001:000dc010       ??F?$tvec1@G$01@glm@@QAEAAU01@XZ 004dd010 f i glm.obj
 0001:000dc030       ??F?$tvec1@G$0A@@glm@@QAE?AU01@H@Z 004dd030 f i glm.obj
 0001:000dc070       ??F?$tvec1@G$0A@@glm@@QAEAAU01@XZ 004dd070 f i glm.obj
 0001:000dc090       ??F?$tvec1@H$00@glm@@QAE?AU01@H@Z 004dd090 f i glm.obj
 0001:000dc0c0       ??F?$tvec1@H$00@glm@@QAEAAU01@XZ 004dd0c0 f i glm.obj
 0001:000dc0e0       ??F?$tvec1@H$01@glm@@QAE?AU01@H@Z 004dd0e0 f i glm.obj
 0001:000dc110       ??F?$tvec1@H$01@glm@@QAEAAU01@XZ 004dd110 f i glm.obj
 0001:000dc130       ??F?$tvec1@H$0A@@glm@@QAE?AU01@H@Z 004dd130 f i glm.obj
 0001:000dc160       ??F?$tvec1@H$0A@@glm@@QAEAAU01@XZ 004dd160 f i glm.obj
 0001:000dc180       ??F?$tvec1@I$00@glm@@QAE?AU01@H@Z 004dd180 f i glm.obj
 0001:000dc1b0       ??F?$tvec1@I$00@glm@@QAEAAU01@XZ 004dd1b0 f i glm.obj
 0001:000dc1d0       ??F?$tvec1@I$01@glm@@QAE?AU01@H@Z 004dd1d0 f i glm.obj
 0001:000dc200       ??F?$tvec1@I$01@glm@@QAEAAU01@XZ 004dd200 f i glm.obj
 0001:000dc220       ??F?$tvec1@I$0A@@glm@@QAE?AU01@H@Z 004dd220 f i glm.obj
 0001:000dc250       ??F?$tvec1@I$0A@@glm@@QAEAAU01@XZ 004dd250 f i glm.obj
 0001:000dc270       ??F?$tvec1@M$00@glm@@QAE?AU01@H@Z 004dd270 f i glm.obj
 0001:000dc2b0       ??F?$tvec1@M$00@glm@@QAEAAU01@XZ 004dd2b0 f i glm.obj
 0001:000dc2e0       ??F?$tvec1@M$01@glm@@QAE?AU01@H@Z 004dd2e0 f i glm.obj
 0001:000dc320       ??F?$tvec1@M$01@glm@@QAEAAU01@XZ 004dd320 f i glm.obj
 0001:000dc350       ??F?$tvec1@M$0A@@glm@@QAE?AU01@H@Z 004dd350 f i glm.obj
 0001:000dc390       ??F?$tvec1@M$0A@@glm@@QAEAAU01@XZ 004dd390 f i glm.obj
 0001:000dc3c0       ??F?$tvec1@N$00@glm@@QAE?AU01@H@Z 004dd3c0 f i glm.obj
 0001:000dc410       ??F?$tvec1@N$00@glm@@QAEAAU01@XZ 004dd410 f i glm.obj
 0001:000dc440       ??F?$tvec1@N$01@glm@@QAE?AU01@H@Z 004dd440 f i glm.obj
 0001:000dc490       ??F?$tvec1@N$01@glm@@QAEAAU01@XZ 004dd490 f i glm.obj
 0001:000dc4c0       ??F?$tvec1@N$0A@@glm@@QAE?AU01@H@Z 004dd4c0 f i glm.obj
 0001:000dc510       ??F?$tvec1@N$0A@@glm@@QAEAAU01@XZ 004dd510 f i glm.obj
 0001:000dc540       ??F?$tvec1@_J$00@glm@@QAE?AU01@H@Z 004dd540 f i glm.obj
 0001:000dc590       ??F?$tvec1@_J$00@glm@@QAEAAU01@XZ 004dd590 f i glm.obj
 0001:000dc5c0       ??F?$tvec1@_J$01@glm@@QAE?AU01@H@Z 004dd5c0 f i glm.obj
 0001:000dc610       ??F?$tvec1@_J$01@glm@@QAEAAU01@XZ 004dd610 f i glm.obj
 0001:000dc640       ??F?$tvec1@_J$0A@@glm@@QAE?AU01@H@Z 004dd640 f i glm.obj
 0001:000dc690       ??F?$tvec1@_J$0A@@glm@@QAEAAU01@XZ 004dd690 f i glm.obj
 0001:000dc6c0       ??F?$tvec1@_K$00@glm@@QAE?AU01@H@Z 004dd6c0 f i glm.obj
 0001:000dc710       ??F?$tvec1@_K$00@glm@@QAEAAU01@XZ 004dd710 f i glm.obj
 0001:000dc740       ??F?$tvec1@_K$01@glm@@QAE?AU01@H@Z 004dd740 f i glm.obj
 0001:000dc790       ??F?$tvec1@_K$01@glm@@QAEAAU01@XZ 004dd790 f i glm.obj
 0001:000dc7c0       ??F?$tvec1@_K$0A@@glm@@QAE?AU01@H@Z 004dd7c0 f i glm.obj
 0001:000dc810       ??F?$tvec1@_K$0A@@glm@@QAEAAU01@XZ 004dd810 f i glm.obj
 0001:000dc840       ??F?$tvec2@C$00@glm@@QAE?AU01@H@Z 004dd840 f i glm.obj
 0001:000dc880       ??F?$tvec2@C$00@glm@@QAEAAU01@XZ 004dd880 f i glm.obj
 0001:000dc8b0       ??F?$tvec2@C$01@glm@@QAE?AU01@H@Z 004dd8b0 f i glm.obj
 0001:000dc8f0       ??F?$tvec2@C$01@glm@@QAEAAU01@XZ 004dd8f0 f i glm.obj
 0001:000dc920       ??F?$tvec2@C$0A@@glm@@QAE?AU01@H@Z 004dd920 f i glm.obj
 0001:000dc960       ??F?$tvec2@C$0A@@glm@@QAEAAU01@XZ 004dd960 f i glm.obj
 0001:000dc990       ??F?$tvec2@E$00@glm@@QAE?AU01@H@Z 004dd990 f i glm.obj
 0001:000dc9d0       ??F?$tvec2@E$00@glm@@QAEAAU01@XZ 004dd9d0 f i glm.obj
 0001:000dca00       ??F?$tvec2@E$01@glm@@QAE?AU01@H@Z 004dda00 f i glm.obj
 0001:000dca40       ??F?$tvec2@E$01@glm@@QAEAAU01@XZ 004dda40 f i glm.obj
 0001:000dca70       ??F?$tvec2@E$0A@@glm@@QAE?AU01@H@Z 004dda70 f i glm.obj
 0001:000dcab0       ??F?$tvec2@E$0A@@glm@@QAEAAU01@XZ 004ddab0 f i glm.obj
 0001:000dcae0       ??F?$tvec2@F$00@glm@@QAE?AU01@H@Z 004ddae0 f i glm.obj
 0001:000dcb30       ??F?$tvec2@F$00@glm@@QAEAAU01@XZ 004ddb30 f i glm.obj
 0001:000dcb60       ??F?$tvec2@F$01@glm@@QAE?AU01@H@Z 004ddb60 f i glm.obj
 0001:000dcbb0       ??F?$tvec2@F$01@glm@@QAEAAU01@XZ 004ddbb0 f i glm.obj
 0001:000dcbe0       ??F?$tvec2@F$0A@@glm@@QAE?AU01@H@Z 004ddbe0 f i glm.obj
 0001:000dcc30       ??F?$tvec2@F$0A@@glm@@QAEAAU01@XZ 004ddc30 f i glm.obj
 0001:000dcc60       ??F?$tvec2@G$00@glm@@QAE?AU01@H@Z 004ddc60 f i glm.obj
 0001:000dccb0       ??F?$tvec2@G$00@glm@@QAEAAU01@XZ 004ddcb0 f i glm.obj
 0001:000dcce0       ??F?$tvec2@G$01@glm@@QAE?AU01@H@Z 004ddce0 f i glm.obj
 0001:000dcd30       ??F?$tvec2@G$01@glm@@QAEAAU01@XZ 004ddd30 f i glm.obj
 0001:000dcd60       ??F?$tvec2@G$0A@@glm@@QAE?AU01@H@Z 004ddd60 f i glm.obj
 0001:000dcdb0       ??F?$tvec2@G$0A@@glm@@QAEAAU01@XZ 004dddb0 f i glm.obj
 0001:000dcde0       ??F?$tvec2@H$00@glm@@QAE?AU01@H@Z 004ddde0 f i glm.obj
 0001:000dce30       ??F?$tvec2@H$00@glm@@QAEAAU01@XZ 004dde30 f i glm.obj
 0001:000dce60       ??F?$tvec2@H$01@glm@@QAE?AU01@H@Z 004dde60 f i glm.obj
 0001:000dceb0       ??F?$tvec2@H$01@glm@@QAEAAU01@XZ 004ddeb0 f i glm.obj
 0001:000dcee0       ??F?$tvec2@H$0A@@glm@@QAE?AU01@H@Z 004ddee0 f i glm.obj
 0001:000dcf30       ??F?$tvec2@H$0A@@glm@@QAEAAU01@XZ 004ddf30 f i glm.obj
 0001:000dcf60       ??F?$tvec2@I$00@glm@@QAE?AU01@H@Z 004ddf60 f i glm.obj
 0001:000dcfb0       ??F?$tvec2@I$00@glm@@QAEAAU01@XZ 004ddfb0 f i glm.obj
 0001:000dcfe0       ??F?$tvec2@I$01@glm@@QAE?AU01@H@Z 004ddfe0 f i glm.obj
 0001:000dd030       ??F?$tvec2@I$01@glm@@QAEAAU01@XZ 004de030 f i glm.obj
 0001:000dd060       ??F?$tvec2@I$0A@@glm@@QAE?AU01@H@Z 004de060 f i glm.obj
 0001:000dd0b0       ??F?$tvec2@I$0A@@glm@@QAEAAU01@XZ 004de0b0 f i glm.obj
 0001:000dd0e0       ??F?$tvec2@M$00@glm@@QAE?AU01@H@Z 004de0e0 f i glm.obj
 0001:000dd140       ??F?$tvec2@M$00@glm@@QAEAAU01@XZ 004de140 f i glm.obj
 0001:000dd180       ??F?$tvec2@M$01@glm@@QAE?AU01@H@Z 004de180 f i glm.obj
 0001:000dd1e0       ??F?$tvec2@M$01@glm@@QAEAAU01@XZ 004de1e0 f i glm.obj
 0001:000dd220       ??F?$tvec2@M$0A@@glm@@QAE?AU01@H@Z 004de220 f i glm.obj
 0001:000dd280       ??F?$tvec2@M$0A@@glm@@QAEAAU01@XZ 004de280 f i glm.obj
 0001:000dd2c0       ??F?$tvec2@N$00@glm@@QAE?AU01@H@Z 004de2c0 f i glm.obj
 0001:000dd340       ??F?$tvec2@N$00@glm@@QAEAAU01@XZ 004de340 f i glm.obj
 0001:000dd380       ??F?$tvec2@N$01@glm@@QAE?AU01@H@Z 004de380 f i glm.obj
 0001:000dd400       ??F?$tvec2@N$01@glm@@QAEAAU01@XZ 004de400 f i glm.obj
 0001:000dd440       ??F?$tvec2@N$0A@@glm@@QAE?AU01@H@Z 004de440 f i glm.obj
 0001:000dd4c0       ??F?$tvec2@N$0A@@glm@@QAEAAU01@XZ 004de4c0 f i glm.obj
 0001:000dd500       ??F?$tvec2@_J$00@glm@@QAE?AU01@H@Z 004de500 f i glm.obj
 0001:000dd580       ??F?$tvec2@_J$00@glm@@QAEAAU01@XZ 004de580 f i glm.obj
 0001:000dd5c0       ??F?$tvec2@_J$01@glm@@QAE?AU01@H@Z 004de5c0 f i glm.obj
 0001:000dd640       ??F?$tvec2@_J$01@glm@@QAEAAU01@XZ 004de640 f i glm.obj
 0001:000dd680       ??F?$tvec2@_J$0A@@glm@@QAE?AU01@H@Z 004de680 f i glm.obj
 0001:000dd700       ??F?$tvec2@_J$0A@@glm@@QAEAAU01@XZ 004de700 f i glm.obj
 0001:000dd740       ??F?$tvec2@_K$00@glm@@QAE?AU01@H@Z 004de740 f i glm.obj
 0001:000dd7c0       ??F?$tvec2@_K$00@glm@@QAEAAU01@XZ 004de7c0 f i glm.obj
 0001:000dd800       ??F?$tvec2@_K$01@glm@@QAE?AU01@H@Z 004de800 f i glm.obj
 0001:000dd880       ??F?$tvec2@_K$01@glm@@QAEAAU01@XZ 004de880 f i glm.obj
 0001:000dd8c0       ??F?$tvec2@_K$0A@@glm@@QAE?AU01@H@Z 004de8c0 f i glm.obj
 0001:000dd940       ??F?$tvec2@_K$0A@@glm@@QAEAAU01@XZ 004de940 f i glm.obj
 0001:000dd980       ??F?$tvec3@C$00@glm@@QAE?AU01@H@Z 004de980 f i glm.obj
 0001:000dd9e0       ??F?$tvec3@C$00@glm@@QAEAAU01@XZ 004de9e0 f i glm.obj
 0001:000dda20       ??F?$tvec3@C$01@glm@@QAE?AU01@H@Z 004dea20 f i glm.obj
 0001:000dda80       ??F?$tvec3@C$01@glm@@QAEAAU01@XZ 004dea80 f i glm.obj
 0001:000ddac0       ??F?$tvec3@C$0A@@glm@@QAE?AU01@H@Z 004deac0 f i glm.obj
 0001:000ddb20       ??F?$tvec3@C$0A@@glm@@QAEAAU01@XZ 004deb20 f i glm.obj
 0001:000ddb60       ??F?$tvec3@E$00@glm@@QAE?AU01@H@Z 004deb60 f i glm.obj
 0001:000ddbc0       ??F?$tvec3@E$00@glm@@QAEAAU01@XZ 004debc0 f i glm.obj
 0001:000ddc00       ??F?$tvec3@E$01@glm@@QAE?AU01@H@Z 004dec00 f i glm.obj
 0001:000ddc60       ??F?$tvec3@E$01@glm@@QAEAAU01@XZ 004dec60 f i glm.obj
 0001:000ddca0       ??F?$tvec3@E$0A@@glm@@QAE?AU01@H@Z 004deca0 f i glm.obj
 0001:000ddd00       ??F?$tvec3@E$0A@@glm@@QAEAAU01@XZ 004ded00 f i glm.obj
 0001:000ddd40       ??F?$tvec3@F$00@glm@@QAE?AU01@H@Z 004ded40 f i glm.obj
 0001:000dddb0       ??F?$tvec3@F$00@glm@@QAEAAU01@XZ 004dedb0 f i glm.obj
 0001:000dde00       ??F?$tvec3@F$01@glm@@QAE?AU01@H@Z 004dee00 f i glm.obj
 0001:000dde70       ??F?$tvec3@F$01@glm@@QAEAAU01@XZ 004dee70 f i glm.obj
 0001:000ddec0       ??F?$tvec3@F$0A@@glm@@QAE?AU01@H@Z 004deec0 f i glm.obj
 0001:000ddf30       ??F?$tvec3@F$0A@@glm@@QAEAAU01@XZ 004def30 f i glm.obj
 0001:000ddf80       ??F?$tvec3@G$00@glm@@QAE?AU01@H@Z 004def80 f i glm.obj
 0001:000ddff0       ??F?$tvec3@G$00@glm@@QAEAAU01@XZ 004deff0 f i glm.obj
 0001:000de040       ??F?$tvec3@G$01@glm@@QAE?AU01@H@Z 004df040 f i glm.obj
 0001:000de0b0       ??F?$tvec3@G$01@glm@@QAEAAU01@XZ 004df0b0 f i glm.obj
 0001:000de100       ??F?$tvec3@G$0A@@glm@@QAE?AU01@H@Z 004df100 f i glm.obj
 0001:000de170       ??F?$tvec3@G$0A@@glm@@QAEAAU01@XZ 004df170 f i glm.obj
 0001:000de1c0       ??F?$tvec3@H$00@glm@@QAE?AU01@H@Z 004df1c0 f i glm.obj
 0001:000de230       ??F?$tvec3@H$00@glm@@QAEAAU01@XZ 004df230 f i glm.obj
 0001:000de270       ??F?$tvec3@H$01@glm@@QAE?AU01@H@Z 004df270 f i glm.obj
 0001:000de2e0       ??F?$tvec3@H$01@glm@@QAEAAU01@XZ 004df2e0 f i glm.obj
 0001:000de320       ??F?$tvec3@H$0A@@glm@@QAE?AU01@H@Z 004df320 f i glm.obj
 0001:000de390       ??F?$tvec3@H$0A@@glm@@QAEAAU01@XZ 004df390 f i glm.obj
 0001:000de3d0       ??F?$tvec3@I$00@glm@@QAE?AU01@H@Z 004df3d0 f i glm.obj
 0001:000de440       ??F?$tvec3@I$00@glm@@QAEAAU01@XZ 004df440 f i glm.obj
 0001:000de480       ??F?$tvec3@I$01@glm@@QAE?AU01@H@Z 004df480 f i glm.obj
 0001:000de4f0       ??F?$tvec3@I$01@glm@@QAEAAU01@XZ 004df4f0 f i glm.obj
 0001:000de530       ??F?$tvec3@I$0A@@glm@@QAE?AU01@H@Z 004df530 f i glm.obj
 0001:000de5a0       ??F?$tvec3@I$0A@@glm@@QAEAAU01@XZ 004df5a0 f i glm.obj
 0001:000de5e0       ??F?$tvec3@M$00@glm@@QAE?AU01@H@Z 004df5e0 f i glm.obj
 0001:000de660       ??F?$tvec3@M$00@glm@@QAEAAU01@XZ 004df660 f i glm.obj
 0001:000de6c0       ??F?$tvec3@M$01@glm@@QAE?AU01@H@Z 004df6c0 f i glm.obj
 0001:000de740       ??F?$tvec3@M$01@glm@@QAEAAU01@XZ 004df740 f i glm.obj
 0001:000de7a0       ??F?$tvec3@M$0A@@glm@@QAE?AU01@H@Z 004df7a0 f i glm.obj
 0001:000de820       ??F?$tvec3@M$0A@@glm@@QAEAAU01@XZ 004df820 f i glm.obj
 0001:000de880       ??F?$tvec3@N$00@glm@@QAE?AU01@H@Z 004df880 f i glm.obj
 0001:000de930       ??F?$tvec3@N$00@glm@@QAEAAU01@XZ 004df930 f i glm.obj
 0001:000de990       ??F?$tvec3@N$01@glm@@QAE?AU01@H@Z 004df990 f i glm.obj
 0001:000dea40       ??F?$tvec3@N$01@glm@@QAEAAU01@XZ 004dfa40 f i glm.obj
 0001:000deaa0       ??F?$tvec3@N$0A@@glm@@QAE?AU01@H@Z 004dfaa0 f i glm.obj
 0001:000deb50       ??F?$tvec3@N$0A@@glm@@QAEAAU01@XZ 004dfb50 f i glm.obj
 0001:000debb0       ??F?$tvec3@_J$00@glm@@QAE?AU01@H@Z 004dfbb0 f i glm.obj
 0001:000dec60       ??F?$tvec3@_J$00@glm@@QAEAAU01@XZ 004dfc60 f i glm.obj
 0001:000decc0       ??F?$tvec3@_J$01@glm@@QAE?AU01@H@Z 004dfcc0 f i glm.obj
 0001:000ded70       ??F?$tvec3@_J$01@glm@@QAEAAU01@XZ 004dfd70 f i glm.obj
 0001:000dedd0       ??F?$tvec3@_J$0A@@glm@@QAE?AU01@H@Z 004dfdd0 f i glm.obj
 0001:000dee80       ??F?$tvec3@_J$0A@@glm@@QAEAAU01@XZ 004dfe80 f i glm.obj
 0001:000deee0       ??F?$tvec3@_K$00@glm@@QAE?AU01@H@Z 004dfee0 f i glm.obj
 0001:000def90       ??F?$tvec3@_K$00@glm@@QAEAAU01@XZ 004dff90 f i glm.obj
 0001:000deff0       ??F?$tvec3@_K$01@glm@@QAE?AU01@H@Z 004dfff0 f i glm.obj
 0001:000df0a0       ??F?$tvec3@_K$01@glm@@QAEAAU01@XZ 004e00a0 f i glm.obj
 0001:000df100       ??F?$tvec3@_K$0A@@glm@@QAE?AU01@H@Z 004e0100 f i glm.obj
 0001:000df1b0       ??F?$tvec3@_K$0A@@glm@@QAEAAU01@XZ 004e01b0 f i glm.obj
 0001:000df210       ??F?$tvec4@C$00@glm@@QAE?AU01@H@Z 004e0210 f i glm.obj
 0001:000df240       ??F?$tvec4@C$00@glm@@QAEAAU01@XZ 004e0240 f i glm.obj
 0001:000df290       ??F?$tvec4@C$01@glm@@QAE?AU01@H@Z 004e0290 f i glm.obj
 0001:000df2c0       ??F?$tvec4@C$01@glm@@QAEAAU01@XZ 004e02c0 f i glm.obj
 0001:000df310       ??F?$tvec4@C$0A@@glm@@QAE?AU01@H@Z 004e0310 f i glm.obj
 0001:000df340       ??F?$tvec4@C$0A@@glm@@QAEAAU01@XZ 004e0340 f i glm.obj
 0001:000df390       ??F?$tvec4@E$00@glm@@QAE?AU01@H@Z 004e0390 f i glm.obj
 0001:000df3c0       ??F?$tvec4@E$00@glm@@QAEAAU01@XZ 004e03c0 f i glm.obj
 0001:000df410       ??F?$tvec4@E$01@glm@@QAE?AU01@H@Z 004e0410 f i glm.obj
 0001:000df440       ??F?$tvec4@E$01@glm@@QAEAAU01@XZ 004e0440 f i glm.obj
 0001:000df490       ??F?$tvec4@E$0A@@glm@@QAE?AU01@H@Z 004e0490 f i glm.obj
 0001:000df4c0       ??F?$tvec4@E$0A@@glm@@QAEAAU01@XZ 004e04c0 f i glm.obj
 0001:000df510       ??F?$tvec4@F$00@glm@@QAE?AU01@H@Z 004e0510 f i glm.obj
 0001:000df550       ??F?$tvec4@F$00@glm@@QAEAAU01@XZ 004e0550 f i glm.obj
 0001:000df5b0       ??F?$tvec4@F$01@glm@@QAE?AU01@H@Z 004e05b0 f i glm.obj
 0001:000df5f0       ??F?$tvec4@F$01@glm@@QAEAAU01@XZ 004e05f0 f i glm.obj
 0001:000df650       ??F?$tvec4@F$0A@@glm@@QAE?AU01@H@Z 004e0650 f i glm.obj
 0001:000df690       ??F?$tvec4@F$0A@@glm@@QAEAAU01@XZ 004e0690 f i glm.obj
 0001:000df6f0       ??F?$tvec4@G$00@glm@@QAE?AU01@H@Z 004e06f0 f i glm.obj
 0001:000df730       ??F?$tvec4@G$00@glm@@QAEAAU01@XZ 004e0730 f i glm.obj
 0001:000df790       ??F?$tvec4@G$01@glm@@QAE?AU01@H@Z 004e0790 f i glm.obj
 0001:000df7d0       ??F?$tvec4@G$01@glm@@QAEAAU01@XZ 004e07d0 f i glm.obj
 0001:000df830       ??F?$tvec4@G$0A@@glm@@QAE?AU01@H@Z 004e0830 f i glm.obj
 0001:000df870       ??F?$tvec4@G$0A@@glm@@QAEAAU01@XZ 004e0870 f i glm.obj
 0001:000df8d0       ??F?$tvec4@H$00@glm@@QAE?AU01@H@Z 004e08d0 f i glm.obj
 0001:000df920       ??F?$tvec4@H$00@glm@@QAEAAU01@XZ 004e0920 f i glm.obj
 0001:000df970       ??F?$tvec4@H$01@glm@@QAE?AU01@H@Z 004e0970 f i glm.obj
 0001:000df9c0       ??F?$tvec4@H$01@glm@@QAEAAU01@XZ 004e09c0 f i glm.obj
 0001:000dfa10       ??F?$tvec4@H$0A@@glm@@QAE?AU01@H@Z 004e0a10 f i glm.obj
 0001:000dfa60       ??F?$tvec4@H$0A@@glm@@QAEAAU01@XZ 004e0a60 f i glm.obj
 0001:000dfab0       ??F?$tvec4@I$00@glm@@QAE?AU01@H@Z 004e0ab0 f i glm.obj
 0001:000dfb00       ??F?$tvec4@I$00@glm@@QAEAAU01@XZ 004e0b00 f i glm.obj
 0001:000dfb50       ??F?$tvec4@I$01@glm@@QAE?AU01@H@Z 004e0b50 f i glm.obj
 0001:000dfba0       ??F?$tvec4@I$01@glm@@QAEAAU01@XZ 004e0ba0 f i glm.obj
 0001:000dfbf0       ??F?$tvec4@I$0A@@glm@@QAE?AU01@H@Z 004e0bf0 f i glm.obj
 0001:000dfc40       ??F?$tvec4@I$0A@@glm@@QAEAAU01@XZ 004e0c40 f i glm.obj
 0001:000dfc90       ??F?$tvec4@M$00@glm@@QAE?AU01@H@Z 004e0c90 f i glm.obj
 0001:000dfce0       ??F?$tvec4@M$00@glm@@QAEAAU01@XZ 004e0ce0 f i glm.obj
 0001:000dfd50       ??F?$tvec4@M$01@glm@@QAE?AU01@H@Z 004e0d50 f i glm.obj
 0001:000dfda0       ??F?$tvec4@M$01@glm@@QAEAAU01@XZ 004e0da0 f i glm.obj
 0001:000dfe10       ??F?$tvec4@M$0A@@glm@@QAE?AU01@H@Z 004e0e10 f i glm.obj
 0001:000dfe60       ??F?$tvec4@M$0A@@glm@@QAEAAU01@XZ 004e0e60 f i glm.obj
 0001:000dfed0       ??F?$tvec4@N$00@glm@@QAE?AU01@H@Z 004e0ed0 f i glm.obj
 0001:000dff10       ??F?$tvec4@N$00@glm@@QAEAAU01@XZ 004e0f10 f i glm.obj
 0001:000dff80       ??F?$tvec4@N$01@glm@@QAE?AU01@H@Z 004e0f80 f i glm.obj
 0001:000dffc0       ??F?$tvec4@N$01@glm@@QAEAAU01@XZ 004e0fc0 f i glm.obj
 0001:000e0030       ??F?$tvec4@N$0A@@glm@@QAE?AU01@H@Z 004e1030 f i glm.obj
 0001:000e0070       ??F?$tvec4@N$0A@@glm@@QAEAAU01@XZ 004e1070 f i glm.obj
 0001:000e00e0       ??F?$tvec4@_J$00@glm@@QAE?AU01@H@Z 004e10e0 f i glm.obj
 0001:000e0120       ??F?$tvec4@_J$00@glm@@QAEAAU01@XZ 004e1120 f i glm.obj
 0001:000e0190       ??F?$tvec4@_J$01@glm@@QAE?AU01@H@Z 004e1190 f i glm.obj
 0001:000e01d0       ??F?$tvec4@_J$01@glm@@QAEAAU01@XZ 004e11d0 f i glm.obj
 0001:000e0240       ??F?$tvec4@_J$0A@@glm@@QAE?AU01@H@Z 004e1240 f i glm.obj
 0001:000e0280       ??F?$tvec4@_J$0A@@glm@@QAEAAU01@XZ 004e1280 f i glm.obj
 0001:000e02f0       ??F?$tvec4@_K$00@glm@@QAE?AU01@H@Z 004e12f0 f i glm.obj
 0001:000e0330       ??F?$tvec4@_K$00@glm@@QAEAAU01@XZ 004e1330 f i glm.obj
 0001:000e03a0       ??F?$tvec4@_K$01@glm@@QAE?AU01@H@Z 004e13a0 f i glm.obj
 0001:000e03e0       ??F?$tvec4@_K$01@glm@@QAEAAU01@XZ 004e13e0 f i glm.obj
 0001:000e0450       ??F?$tvec4@_K$0A@@glm@@QAE?AU01@H@Z 004e1450 f i glm.obj
 0001:000e0490       ??F?$tvec4@_K$0A@@glm@@QAEAAU01@XZ 004e1490 f i glm.obj
 0001:000e0500       ?call@?$compute_cross@M$00$0A@@detail@glm@@SA?AU?$tvec3@M$00@3@ABU43@0@Z 004e1500 f i glm.obj
 0001:000e05b0       ?call@?$compute_cross@M$01$0A@@detail@glm@@SA?AU?$tvec3@M$01@3@ABU43@0@Z 004e15b0 f i glm.obj
 0001:000e0660       ?call@?$compute_cross@N$00$0A@@detail@glm@@SA?AU?$tvec3@N$00@3@ABU43@0@Z 004e1660 f i glm.obj
 0001:000e0710       ?call@?$compute_cross@N$01$0A@@detail@glm@@SA?AU?$tvec3@N$01@3@ABU43@0@Z 004e1710 f i glm.obj
 0001:000e07c0       ?call@?$compute_cross@N$0A@$0A@@detail@glm@@SA?AU?$tvec3@N$0A@@3@ABU43@0@Z 004e17c0 f i glm.obj
 0001:000e0870       ?call@?$compute_dot@Utquat@glm@@M$00$0A@@detail@glm@@SAMABU?$tquat@M$00@3@0@Z 004e1870 f i glm.obj
 0001:000e0920       ?call@?$compute_dot@Utquat@glm@@M$01$0A@@detail@glm@@SAMABU?$tquat@M$01@3@0@Z 004e1920 f i glm.obj
 0001:000e09d0       ?call@?$compute_dot@Utquat@glm@@M$0A@$0A@@detail@glm@@SAMABU?$tquat@M$0A@@3@0@Z 004e19d0 f i glm.obj
 0001:000e0a80       ?call@?$compute_dot@Utquat@glm@@N$00$0A@@detail@glm@@SANABU?$tquat@N$00@3@0@Z 004e1a80 f i glm.obj
 0001:000e0b30       ?call@?$compute_dot@Utquat@glm@@N$01$0A@@detail@glm@@SANABU?$tquat@N$01@3@0@Z 004e1b30 f i glm.obj
 0001:000e0be0       ?call@?$compute_dot@Utquat@glm@@N$0A@$0A@@detail@glm@@SANABU?$tquat@N$0A@@3@0@Z 004e1be0 f i glm.obj
 0001:000e0c90       ?call@?$functor1@MM$00Utvec3@glm@@@detail@glm@@SA?AU?$tvec3@M$00@3@P6AMM@ZABU43@@Z 004e1c90 f i glm.obj
 0001:000e0d10       ?call@?$functor1@MM$01Utvec3@glm@@@detail@glm@@SA?AU?$tvec3@M$01@3@P6AMM@ZABU43@@Z 004e1d10 f i glm.obj
 0001:000e0d90       ?call@?$functor1@MM$0A@Utvec3@glm@@@detail@glm@@SA?AU?$tvec3@M$0A@@3@P6AMM@ZABU43@@Z 004e1d90 f i glm.obj
 0001:000e0e10       ?call@?$functor1@NN$00Utvec3@glm@@@detail@glm@@SA?AU?$tvec3@N$00@3@P6ANN@ZABU43@@Z 004e1e10 f i glm.obj
 0001:000e0e90       ?call@?$functor1@NN$01Utvec3@glm@@@detail@glm@@SA?AU?$tvec3@N$01@3@P6ANN@ZABU43@@Z 004e1e90 f i glm.obj
 0001:000e0f10       ?call@?$functor1@NN$0A@Utvec3@glm@@@detail@glm@@SA?AU?$tvec3@N$0A@@3@P6ANN@ZABU43@@Z 004e1f10 f i glm.obj
 0001:000e0f90       ?cos@@YAMM@Z               004e1f90 f i glm.obj
 0001:000e0fb0       ?length@?$tdualquat@M$00@glm@@SAHXZ 004e1fb0 f i glm.obj
 0001:000e0fc0       ?length@?$tdualquat@M$01@glm@@SAHXZ 004e1fc0 f i glm.obj
 0001:000e0fd0       ?length@?$tdualquat@M$0A@@glm@@SAHXZ 004e1fd0 f i glm.obj
 0001:000e0fe0       ?length@?$tdualquat@N$00@glm@@SAHXZ 004e1fe0 f i glm.obj
 0001:000e0ff0       ?length@?$tdualquat@N$01@glm@@SAHXZ 004e1ff0 f i glm.obj
 0001:000e1000       ?length@?$tdualquat@N$0A@@glm@@SAHXZ 004e2000 f i glm.obj
 0001:000e1010       ?length@?$tmat2x2@M$00@glm@@SAHXZ 004e2010 f i glm.obj
 0001:000e1020       ?length@?$tmat2x2@M$01@glm@@SAHXZ 004e2020 f i glm.obj
 0001:000e1030       ?length@?$tmat2x2@M$0A@@glm@@SAHXZ 004e2030 f i glm.obj
 0001:000e1040       ?length@?$tmat2x2@N$00@glm@@SAHXZ 004e2040 f i glm.obj
 0001:000e1050       ?length@?$tmat2x2@N$01@glm@@SAHXZ 004e2050 f i glm.obj
 0001:000e1060       ?length@?$tmat2x2@N$0A@@glm@@SAHXZ 004e2060 f i glm.obj
 0001:000e1070       ?length@?$tmat2x3@M$00@glm@@SAHXZ 004e2070 f i glm.obj
 0001:000e1080       ?length@?$tmat2x3@M$01@glm@@SAHXZ 004e2080 f i glm.obj
 0001:000e1090       ?length@?$tmat2x3@M$0A@@glm@@SAHXZ 004e2090 f i glm.obj
 0001:000e10a0       ?length@?$tmat2x3@N$00@glm@@SAHXZ 004e20a0 f i glm.obj
 0001:000e10b0       ?length@?$tmat2x3@N$01@glm@@SAHXZ 004e20b0 f i glm.obj
 0001:000e10c0       ?length@?$tmat2x3@N$0A@@glm@@SAHXZ 004e20c0 f i glm.obj
 0001:000e10d0       ?length@?$tmat2x4@M$00@glm@@SAHXZ 004e20d0 f i glm.obj
 0001:000e10e0       ?length@?$tmat2x4@M$01@glm@@SAHXZ 004e20e0 f i glm.obj
 0001:000e10f0       ?length@?$tmat2x4@M$0A@@glm@@SAHXZ 004e20f0 f i glm.obj
 0001:000e1100       ?length@?$tmat2x4@N$00@glm@@SAHXZ 004e2100 f i glm.obj
 0001:000e1110       ?length@?$tmat2x4@N$01@glm@@SAHXZ 004e2110 f i glm.obj
 0001:000e1120       ?length@?$tmat2x4@N$0A@@glm@@SAHXZ 004e2120 f i glm.obj
 0001:000e1130       ?length@?$tmat3x2@M$00@glm@@SAHXZ 004e2130 f i glm.obj
 0001:000e1140       ?length@?$tmat3x2@M$01@glm@@SAHXZ 004e2140 f i glm.obj
 0001:000e1150       ?length@?$tmat3x2@M$0A@@glm@@SAHXZ 004e2150 f i glm.obj
 0001:000e1160       ?length@?$tmat3x2@N$00@glm@@SAHXZ 004e2160 f i glm.obj
 0001:000e1170       ?length@?$tmat3x2@N$01@glm@@SAHXZ 004e2170 f i glm.obj
 0001:000e1180       ?length@?$tmat3x2@N$0A@@glm@@SAHXZ 004e2180 f i glm.obj
 0001:000e1190       ?length@?$tmat3x3@M$00@glm@@SAHXZ 004e2190 f i glm.obj
 0001:000e11a0       ?length@?$tmat3x3@M$01@glm@@SAHXZ 004e21a0 f i glm.obj
 0001:000e11b0       ?length@?$tmat3x3@M$0A@@glm@@SAHXZ 004e21b0 f i glm.obj
 0001:000e11c0       ?length@?$tmat3x3@N$00@glm@@SAHXZ 004e21c0 f i glm.obj
 0001:000e11d0       ?length@?$tmat3x3@N$01@glm@@SAHXZ 004e21d0 f i glm.obj
 0001:000e11e0       ?length@?$tmat3x3@N$0A@@glm@@SAHXZ 004e21e0 f i glm.obj
 0001:000e11f0       ?length@?$tmat3x4@M$00@glm@@SAHXZ 004e21f0 f i glm.obj
 0001:000e1200       ?length@?$tmat3x4@M$01@glm@@SAHXZ 004e2200 f i glm.obj
 0001:000e1210       ?length@?$tmat3x4@M$0A@@glm@@SAHXZ 004e2210 f i glm.obj
 0001:000e1220       ?length@?$tmat3x4@N$00@glm@@SAHXZ 004e2220 f i glm.obj
 0001:000e1230       ?length@?$tmat3x4@N$01@glm@@SAHXZ 004e2230 f i glm.obj
 0001:000e1240       ?length@?$tmat3x4@N$0A@@glm@@SAHXZ 004e2240 f i glm.obj
 0001:000e1250       ?length@?$tmat4x2@M$00@glm@@SAHXZ 004e2250 f i glm.obj
 0001:000e1260       ?length@?$tmat4x2@M$01@glm@@SAHXZ 004e2260 f i glm.obj
 0001:000e1270       ?length@?$tmat4x2@M$0A@@glm@@SAHXZ 004e2270 f i glm.obj
 0001:000e1280       ?length@?$tmat4x2@N$00@glm@@SAHXZ 004e2280 f i glm.obj
 0001:000e1290       ?length@?$tmat4x2@N$01@glm@@SAHXZ 004e2290 f i glm.obj
 0001:000e12a0       ?length@?$tmat4x2@N$0A@@glm@@SAHXZ 004e22a0 f i glm.obj
 0001:000e12b0       ?length@?$tmat4x3@M$00@glm@@SAHXZ 004e22b0 f i glm.obj
 0001:000e12c0       ?length@?$tmat4x3@M$01@glm@@SAHXZ 004e22c0 f i glm.obj
 0001:000e12d0       ?length@?$tmat4x3@M$0A@@glm@@SAHXZ 004e22d0 f i glm.obj
 0001:000e12e0       ?length@?$tmat4x3@N$00@glm@@SAHXZ 004e22e0 f i glm.obj
 0001:000e12f0       ?length@?$tmat4x3@N$01@glm@@SAHXZ 004e22f0 f i glm.obj
 0001:000e1300       ?length@?$tmat4x3@N$0A@@glm@@SAHXZ 004e2300 f i glm.obj
 0001:000e1310       ?length@?$tmat4x4@M$00@glm@@SAHXZ 004e2310 f i glm.obj
 0001:000e1320       ?length@?$tmat4x4@M$01@glm@@SAHXZ 004e2320 f i glm.obj
 0001:000e1330       ?length@?$tmat4x4@M$0A@@glm@@SAHXZ 004e2330 f i glm.obj
 0001:000e1340       ?length@?$tmat4x4@N$00@glm@@SAHXZ 004e2340 f i glm.obj
 0001:000e1350       ?length@?$tmat4x4@N$01@glm@@SAHXZ 004e2350 f i glm.obj
 0001:000e1360       ?length@?$tmat4x4@N$0A@@glm@@SAHXZ 004e2360 f i glm.obj
 0001:000e1370       ?length@?$tquat@M$00@glm@@SAHXZ 004e2370 f i glm.obj
 0001:000e1380       ?length@?$tquat@M$01@glm@@SAHXZ 004e2380 f i glm.obj
 0001:000e1390       ?length@?$tquat@M$0A@@glm@@SAHXZ 004e2390 f i glm.obj
 0001:000e13a0       ?length@?$tquat@N$00@glm@@SAHXZ 004e23a0 f i glm.obj
 0001:000e13b0       ?length@?$tquat@N$01@glm@@SAHXZ 004e23b0 f i glm.obj
 0001:000e13c0       ?length@?$tquat@N$0A@@glm@@SAHXZ 004e23c0 f i glm.obj
 0001:000e13d0       ?length@?$tvec1@C$00@glm@@SAHXZ 004e23d0 f i glm.obj
 0001:000e13e0       ?length@?$tvec1@C$01@glm@@SAHXZ 004e23e0 f i glm.obj
 0001:000e13f0       ?length@?$tvec1@C$0A@@glm@@SAHXZ 004e23f0 f i glm.obj
 0001:000e1400       ?length@?$tvec1@E$00@glm@@SAHXZ 004e2400 f i glm.obj
 0001:000e1410       ?length@?$tvec1@E$01@glm@@SAHXZ 004e2410 f i glm.obj
 0001:000e1420       ?length@?$tvec1@E$0A@@glm@@SAHXZ 004e2420 f i glm.obj
 0001:000e1430       ?length@?$tvec1@F$00@glm@@SAHXZ 004e2430 f i glm.obj
 0001:000e1440       ?length@?$tvec1@F$01@glm@@SAHXZ 004e2440 f i glm.obj
 0001:000e1450       ?length@?$tvec1@F$0A@@glm@@SAHXZ 004e2450 f i glm.obj
 0001:000e1460       ?length@?$tvec1@G$00@glm@@SAHXZ 004e2460 f i glm.obj
 0001:000e1470       ?length@?$tvec1@G$01@glm@@SAHXZ 004e2470 f i glm.obj
 0001:000e1480       ?length@?$tvec1@G$0A@@glm@@SAHXZ 004e2480 f i glm.obj
 0001:000e1490       ?length@?$tvec1@H$00@glm@@SAHXZ 004e2490 f i glm.obj
 0001:000e14a0       ?length@?$tvec1@H$01@glm@@SAHXZ 004e24a0 f i glm.obj
 0001:000e14b0       ?length@?$tvec1@H$0A@@glm@@SAHXZ 004e24b0 f i glm.obj
 0001:000e14c0       ?length@?$tvec1@I$00@glm@@SAHXZ 004e24c0 f i glm.obj
 0001:000e14d0       ?length@?$tvec1@I$01@glm@@SAHXZ 004e24d0 f i glm.obj
 0001:000e14e0       ?length@?$tvec1@I$0A@@glm@@SAHXZ 004e24e0 f i glm.obj
 0001:000e14f0       ?length@?$tvec1@M$00@glm@@SAHXZ 004e24f0 f i glm.obj
 0001:000e1500       ?length@?$tvec1@M$01@glm@@SAHXZ 004e2500 f i glm.obj
 0001:000e1510       ?length@?$tvec1@M$0A@@glm@@SAHXZ 004e2510 f i glm.obj
 0001:000e1520       ?length@?$tvec1@N$00@glm@@SAHXZ 004e2520 f i glm.obj
 0001:000e1530       ?length@?$tvec1@N$01@glm@@SAHXZ 004e2530 f i glm.obj
 0001:000e1540       ?length@?$tvec1@N$0A@@glm@@SAHXZ 004e2540 f i glm.obj
 0001:000e1550       ?length@?$tvec1@_J$00@glm@@SAHXZ 004e2550 f i glm.obj
 0001:000e1560       ?length@?$tvec1@_J$01@glm@@SAHXZ 004e2560 f i glm.obj
 0001:000e1570       ?length@?$tvec1@_J$0A@@glm@@SAHXZ 004e2570 f i glm.obj
 0001:000e1580       ?length@?$tvec1@_K$00@glm@@SAHXZ 004e2580 f i glm.obj
 0001:000e1590       ?length@?$tvec1@_K$01@glm@@SAHXZ 004e2590 f i glm.obj
 0001:000e15a0       ?length@?$tvec1@_K$0A@@glm@@SAHXZ 004e25a0 f i glm.obj
 0001:000e15b0       ?length@?$tvec2@C$00@glm@@SAHXZ 004e25b0 f i glm.obj
 0001:000e15c0       ?length@?$tvec2@C$01@glm@@SAHXZ 004e25c0 f i glm.obj
 0001:000e15d0       ?length@?$tvec2@C$0A@@glm@@SAHXZ 004e25d0 f i glm.obj
 0001:000e15e0       ?length@?$tvec2@E$00@glm@@SAHXZ 004e25e0 f i glm.obj
 0001:000e15f0       ?length@?$tvec2@E$01@glm@@SAHXZ 004e25f0 f i glm.obj
 0001:000e1600       ?length@?$tvec2@E$0A@@glm@@SAHXZ 004e2600 f i glm.obj
 0001:000e1610       ?length@?$tvec2@F$00@glm@@SAHXZ 004e2610 f i glm.obj
 0001:000e1620       ?length@?$tvec2@F$01@glm@@SAHXZ 004e2620 f i glm.obj
 0001:000e1630       ?length@?$tvec2@F$0A@@glm@@SAHXZ 004e2630 f i glm.obj
 0001:000e1640       ?length@?$tvec2@G$00@glm@@SAHXZ 004e2640 f i glm.obj
 0001:000e1650       ?length@?$tvec2@G$01@glm@@SAHXZ 004e2650 f i glm.obj
 0001:000e1660       ?length@?$tvec2@G$0A@@glm@@SAHXZ 004e2660 f i glm.obj
 0001:000e1670       ?length@?$tvec2@H$00@glm@@SAHXZ 004e2670 f i glm.obj
 0001:000e1680       ?length@?$tvec2@H$01@glm@@SAHXZ 004e2680 f i glm.obj
 0001:000e1690       ?length@?$tvec2@H$0A@@glm@@SAHXZ 004e2690 f i glm.obj
 0001:000e16a0       ?length@?$tvec2@I$00@glm@@SAHXZ 004e26a0 f i glm.obj
 0001:000e16b0       ?length@?$tvec2@I$01@glm@@SAHXZ 004e26b0 f i glm.obj
 0001:000e16c0       ?length@?$tvec2@I$0A@@glm@@SAHXZ 004e26c0 f i glm.obj
 0001:000e16d0       ?length@?$tvec2@M$00@glm@@SAHXZ 004e26d0 f i glm.obj
 0001:000e16e0       ?length@?$tvec2@M$01@glm@@SAHXZ 004e26e0 f i glm.obj
 0001:000e16f0       ?length@?$tvec2@M$0A@@glm@@SAHXZ 004e26f0 f i glm.obj
 0001:000e1700       ?length@?$tvec2@N$00@glm@@SAHXZ 004e2700 f i glm.obj
 0001:000e1710       ?length@?$tvec2@N$01@glm@@SAHXZ 004e2710 f i glm.obj
 0001:000e1720       ?length@?$tvec2@N$0A@@glm@@SAHXZ 004e2720 f i glm.obj
 0001:000e1730       ?length@?$tvec2@_J$00@glm@@SAHXZ 004e2730 f i glm.obj
 0001:000e1740       ?length@?$tvec2@_J$01@glm@@SAHXZ 004e2740 f i glm.obj
 0001:000e1750       ?length@?$tvec2@_J$0A@@glm@@SAHXZ 004e2750 f i glm.obj
 0001:000e1760       ?length@?$tvec2@_K$00@glm@@SAHXZ 004e2760 f i glm.obj
 0001:000e1770       ?length@?$tvec2@_K$01@glm@@SAHXZ 004e2770 f i glm.obj
 0001:000e1780       ?length@?$tvec2@_K$0A@@glm@@SAHXZ 004e2780 f i glm.obj
 0001:000e1790       ?length@?$tvec3@C$00@glm@@SAHXZ 004e2790 f i glm.obj
 0001:000e17a0       ?length@?$tvec3@C$01@glm@@SAHXZ 004e27a0 f i glm.obj
 0001:000e17b0       ?length@?$tvec3@C$0A@@glm@@SAHXZ 004e27b0 f i glm.obj
 0001:000e17c0       ?length@?$tvec3@E$00@glm@@SAHXZ 004e27c0 f i glm.obj
 0001:000e17d0       ?length@?$tvec3@E$01@glm@@SAHXZ 004e27d0 f i glm.obj
 0001:000e17e0       ?length@?$tvec3@E$0A@@glm@@SAHXZ 004e27e0 f i glm.obj
 0001:000e17f0       ?length@?$tvec3@F$00@glm@@SAHXZ 004e27f0 f i glm.obj
 0001:000e1800       ?length@?$tvec3@F$01@glm@@SAHXZ 004e2800 f i glm.obj
 0001:000e1810       ?length@?$tvec3@F$0A@@glm@@SAHXZ 004e2810 f i glm.obj
 0001:000e1820       ?length@?$tvec3@G$00@glm@@SAHXZ 004e2820 f i glm.obj
 0001:000e1830       ?length@?$tvec3@G$01@glm@@SAHXZ 004e2830 f i glm.obj
 0001:000e1840       ?length@?$tvec3@G$0A@@glm@@SAHXZ 004e2840 f i glm.obj
 0001:000e1850       ?length@?$tvec3@H$00@glm@@SAHXZ 004e2850 f i glm.obj
 0001:000e1860       ?length@?$tvec3@H$01@glm@@SAHXZ 004e2860 f i glm.obj
 0001:000e1870       ?length@?$tvec3@H$0A@@glm@@SAHXZ 004e2870 f i glm.obj
 0001:000e1880       ?length@?$tvec3@I$00@glm@@SAHXZ 004e2880 f i glm.obj
 0001:000e1890       ?length@?$tvec3@I$01@glm@@SAHXZ 004e2890 f i glm.obj
 0001:000e18a0       ?length@?$tvec3@I$0A@@glm@@SAHXZ 004e28a0 f i glm.obj
 0001:000e18b0       ?length@?$tvec3@M$00@glm@@SAHXZ 004e28b0 f i glm.obj
 0001:000e18c0       ?length@?$tvec3@M$01@glm@@SAHXZ 004e28c0 f i glm.obj
 0001:000e18d0       ?length@?$tvec3@M$0A@@glm@@SAHXZ 004e28d0 f i glm.obj
 0001:000e18e0       ?length@?$tvec3@N$00@glm@@SAHXZ 004e28e0 f i glm.obj
 0001:000e18f0       ?length@?$tvec3@N$01@glm@@SAHXZ 004e28f0 f i glm.obj
 0001:000e1900       ?length@?$tvec3@N$0A@@glm@@SAHXZ 004e2900 f i glm.obj
 0001:000e1910       ?length@?$tvec3@_J$00@glm@@SAHXZ 004e2910 f i glm.obj
 0001:000e1920       ?length@?$tvec3@_J$01@glm@@SAHXZ 004e2920 f i glm.obj
 0001:000e1930       ?length@?$tvec3@_J$0A@@glm@@SAHXZ 004e2930 f i glm.obj
 0001:000e1940       ?length@?$tvec3@_K$00@glm@@SAHXZ 004e2940 f i glm.obj
 0001:000e1950       ?length@?$tvec3@_K$01@glm@@SAHXZ 004e2950 f i glm.obj
 0001:000e1960       ?length@?$tvec3@_K$0A@@glm@@SAHXZ 004e2960 f i glm.obj
 0001:000e1970       ?length@?$tvec4@C$00@glm@@SAHXZ 004e2970 f i glm.obj
 0001:000e1980       ?length@?$tvec4@C$01@glm@@SAHXZ 004e2980 f i glm.obj
 0001:000e1990       ?length@?$tvec4@C$0A@@glm@@SAHXZ 004e2990 f i glm.obj
 0001:000e19a0       ?length@?$tvec4@E$00@glm@@SAHXZ 004e29a0 f i glm.obj
 0001:000e19b0       ?length@?$tvec4@E$01@glm@@SAHXZ 004e29b0 f i glm.obj
 0001:000e19c0       ?length@?$tvec4@E$0A@@glm@@SAHXZ 004e29c0 f i glm.obj
 0001:000e19d0       ?length@?$tvec4@F$00@glm@@SAHXZ 004e29d0 f i glm.obj
 0001:000e19e0       ?length@?$tvec4@F$01@glm@@SAHXZ 004e29e0 f i glm.obj
 0001:000e19f0       ?length@?$tvec4@F$0A@@glm@@SAHXZ 004e29f0 f i glm.obj
 0001:000e1a00       ?length@?$tvec4@G$00@glm@@SAHXZ 004e2a00 f i glm.obj
 0001:000e1a10       ?length@?$tvec4@G$01@glm@@SAHXZ 004e2a10 f i glm.obj
 0001:000e1a20       ?length@?$tvec4@G$0A@@glm@@SAHXZ 004e2a20 f i glm.obj
 0001:000e1a30       ?length@?$tvec4@H$00@glm@@SAHXZ 004e2a30 f i glm.obj
 0001:000e1a40       ?length@?$tvec4@H$01@glm@@SAHXZ 004e2a40 f i glm.obj
 0001:000e1a50       ?length@?$tvec4@H$0A@@glm@@SAHXZ 004e2a50 f i glm.obj
 0001:000e1a60       ?length@?$tvec4@I$00@glm@@SAHXZ 004e2a60 f i glm.obj
 0001:000e1a70       ?length@?$tvec4@I$01@glm@@SAHXZ 004e2a70 f i glm.obj
 0001:000e1a80       ?length@?$tvec4@I$0A@@glm@@SAHXZ 004e2a80 f i glm.obj
 0001:000e1a90       ?length@?$tvec4@M$00@glm@@SAHXZ 004e2a90 f i glm.obj
 0001:000e1aa0       ?length@?$tvec4@M$01@glm@@SAHXZ 004e2aa0 f i glm.obj
 0001:000e1ab0       ?length@?$tvec4@M$0A@@glm@@SAHXZ 004e2ab0 f i glm.obj
 0001:000e1ac0       ?length@?$tvec4@N$00@glm@@SAHXZ 004e2ac0 f i glm.obj
 0001:000e1ad0       ?length@?$tvec4@N$01@glm@@SAHXZ 004e2ad0 f i glm.obj
 0001:000e1ae0       ?length@?$tvec4@N$0A@@glm@@SAHXZ 004e2ae0 f i glm.obj
 0001:000e1af0       ?length@?$tvec4@_J$00@glm@@SAHXZ 004e2af0 f i glm.obj
 0001:000e1b00       ?length@?$tvec4@_J$01@glm@@SAHXZ 004e2b00 f i glm.obj
 0001:000e1b10       ?length@?$tvec4@_J$0A@@glm@@SAHXZ 004e2b10 f i glm.obj
 0001:000e1b20       ?length@?$tvec4@_K$00@glm@@SAHXZ 004e2b20 f i glm.obj
 0001:000e1b30       ?length@?$tvec4@_K$01@glm@@SAHXZ 004e2b30 f i glm.obj
 0001:000e1b40       ?length@?$tvec4@_K$0A@@glm@@SAHXZ 004e2b40 f i glm.obj
 0001:000e1b50       ?sin@@YAMM@Z               004e2b50 f i glm.obj
 0001:000e1ba0       ?CreateContext@ImGui@@YAPAUImGuiContext@@PAUImFontAtlas@@@Z 004e2ba0 f   imgui.obj
 0001:000e1c50       ?DestroyContext@ImGui@@YAXPAUImGuiContext@@@Z 004e2c50 f   imgui.obj
 0001:000e1c90       ?GetCurrentContext@ImGui@@YAPAUImGuiContext@@XZ 004e2c90 f   imgui.obj
 0001:000e1ca0       ?SetCurrentContext@ImGui@@YAXPAUImGuiContext@@@Z 004e2ca0 f   imgui.obj
 0001:000e1cb0       ?DebugCheckVersionAndDataLayout@ImGui@@YA_NPBDIIIII@Z 004e2cb0 f   imgui.obj
 0001:000e1ec0       ?GetIO@ImGui@@YAAAUImGuiIO@@XZ 004e2ec0 f   imgui.obj
 0001:000e1f00       ?GetStyle@ImGui@@YAAAUImGuiStyle@@XZ 004e2f00 f   imgui.obj
 0001:000e1f40       ?NewFrame@ImGui@@YAXXZ     004e2f40 f   imgui.obj
 0001:000e2b90       ?EndFrame@ImGui@@YAXXZ     004e3b90 f   imgui.obj
 0001:000e3100       ?Render@ImGui@@YAXXZ       004e4100 f   imgui.obj
 0001:000e3b50       ?GetDrawData@ImGui@@YAPAUImDrawData@@XZ 004e4b50 f   imgui.obj
 0001:000e3b90       ?ShowMetricsWindow@ImGui@@YAXPA_N@Z 004e4b90 f   imgui.obj
 0001:000e4390       ?GetVersion@ImGui@@YAPBDXZ 004e5390 f   imgui.obj
 0001:000e43a0       ?Begin@ImGui@@YA_NPBDPA_NH@Z 004e53a0 f   imgui.obj
 0001:000e7fa0       ?End@ImGui@@YAXXZ          004e8fa0 f   imgui.obj
 0001:000e80c0       ?BeginChild@ImGui@@YA_NPBDABUImVec2@@_NH@Z 004e90c0 f   imgui.obj
 0001:000e8120       ?BeginChild@ImGui@@YA_NIABUImVec2@@_NH@Z 004e9120 f   imgui.obj
 0001:000e8160       ?EndChild@ImGui@@YAXXZ     004e9160 f   imgui.obj
 0001:000e8430       ?IsWindowAppearing@ImGui@@YA_NXZ 004e9430 f   imgui.obj
 0001:000e8460       ?IsWindowCollapsed@ImGui@@YA_NXZ 004e9460 f   imgui.obj
 0001:000e8490       ?IsWindowFocused@ImGui@@YA_NH@Z 004e9490 f   imgui.obj
 0001:000e8600       ?IsWindowHovered@ImGui@@YA_NH@Z 004e9600 f   imgui.obj
 0001:000e8770       ?GetWindowDrawList@ImGui@@YAPAUImDrawList@@XZ 004e9770 f   imgui.obj
 0001:000e87b0       ?GetWindowPos@ImGui@@YA?AUImVec2@@XZ 004e97b0 f   imgui.obj
 0001:000e87f0       ?GetWindowSize@ImGui@@YA?AUImVec2@@XZ 004e97f0 f   imgui.obj
 0001:000e8830       ?GetWindowWidth@ImGui@@YAMXZ 004e9830 f   imgui.obj
 0001:000e8850       ?GetWindowHeight@ImGui@@YAMXZ 004e9850 f   imgui.obj
 0001:000e8870       ?GetContentRegionMax@ImGui@@YA?AUImVec2@@XZ 004e9870 f   imgui.obj
 0001:000e8930       ?GetContentRegionAvail@ImGui@@YA?AUImVec2@@XZ 004e9930 f   imgui.obj
 0001:000e89f0       ?GetContentRegionAvailWidth@ImGui@@YAMXZ 004e99f0 f   imgui.obj
 0001:000e8a10       ?GetWindowContentRegionMin@ImGui@@YA?AUImVec2@@XZ 004e9a10 f   imgui.obj
 0001:000e8a90       ?GetWindowContentRegionMax@ImGui@@YA?AUImVec2@@XZ 004e9a90 f   imgui.obj
 0001:000e8b10       ?GetWindowContentRegionWidth@ImGui@@YAMXZ 004e9b10 f   imgui.obj
 0001:000e8b50       ?SetNextWindowPos@ImGui@@YAXABUImVec2@@H0@Z 004e9b50 f   imgui.obj
 0001:000e8c00       ?SetNextWindowSize@ImGui@@YAXABUImVec2@@H@Z 004e9c00 f   imgui.obj
 0001:000e8ca0       ?SetNextWindowSizeConstraints@ImGui@@YAXABUImVec2@@0P6AXPAUImGuiSizeCallbackData@@@ZPAX@Z 004e9ca0 f   imgui.obj
 0001:000e8d20       ?SetNextWindowContentSize@ImGui@@YAXABUImVec2@@@Z 004e9d20 f   imgui.obj
 0001:000e8d60       ?SetNextWindowCollapsed@ImGui@@YAX_NH@Z 004e9d60 f   imgui.obj
 0001:000e8df0       ?SetNextWindowFocus@ImGui@@YAXXZ 004e9df0 f   imgui.obj
 0001:000e8e10       ?SetNextWindowBgAlpha@ImGui@@YAXM@Z 004e9e10 f   imgui.obj
 0001:000e8e40       ?SetWindowPos@ImGui@@YAXABUImVec2@@H@Z 004e9e40 f   imgui.obj
 0001:000e8e80       ?SetWindowSize@ImGui@@YAXABUImVec2@@H@Z 004e9e80 f   imgui.obj
 0001:000e8eb0       ?SetWindowCollapsed@ImGui@@YAX_NH@Z 004e9eb0 f   imgui.obj
 0001:000e8ee0       ?SetWindowFocus@ImGui@@YAXXZ 004e9ee0 f   imgui.obj
 0001:000e8f00       ?SetWindowFontScale@ImGui@@YAXM@Z 004e9f00 f   imgui.obj
 0001:000e8f90       ?SetWindowPos@ImGui@@YAXPBDABUImVec2@@H@Z 004e9f90 f   imgui.obj
 0001:000e8fd0       ?SetWindowSize@ImGui@@YAXPBDABUImVec2@@H@Z 004e9fd0 f   imgui.obj
 0001:000e9010       ?SetWindowCollapsed@ImGui@@YAXPBD_NH@Z 004ea010 f   imgui.obj
 0001:000e9050       ?SetWindowFocus@ImGui@@YAXPBD@Z 004ea050 f   imgui.obj
 0001:000e9090       ?GetScrollX@ImGui@@YAMXZ   004ea090 f   imgui.obj
 0001:000e90b0       ?GetScrollY@ImGui@@YAMXZ   004ea0b0 f   imgui.obj
 0001:000e90d0       ?GetScrollMaxX@ImGui@@YAMXZ 004ea0d0 f   imgui.obj
 0001:000e90f0       ?GetScrollMaxY@ImGui@@YAMXZ 004ea0f0 f   imgui.obj
 0001:000e9110       ?SetScrollX@ImGui@@YAXM@Z  004ea110 f   imgui.obj
 0001:000e9160       ?SetScrollY@ImGui@@YAXM@Z  004ea160 f   imgui.obj
 0001:000e91d0       ?SetScrollHere@ImGui@@YAXM@Z 004ea1d0 f   imgui.obj
 0001:000e9280       ?SetScrollFromPosY@ImGui@@YAXMM@Z 004ea280 f   imgui.obj
 0001:000e9310       ?PushFont@ImGui@@YAXPAUImFont@@@Z 004ea310 f   imgui.obj
 0001:000e9370       ?PopFont@ImGui@@YAXXZ      004ea370 f   imgui.obj
 0001:000e9420       ?PushStyleColor@ImGui@@YAXHI@Z 004ea420 f   imgui.obj
 0001:000e94e0       ?PushStyleColor@ImGui@@YAXHABUImVec4@@@Z 004ea4e0 f   imgui.obj
 0001:000e9590       ?PopStyleColor@ImGui@@YAXH@Z 004ea590 f   imgui.obj
 0001:000e9640       ?PushStyleVar@ImGui@@YAXHM@Z 004ea640 f   imgui.obj
 0001:000e96f0       ?PushStyleVar@ImGui@@YAXHABUImVec2@@@Z 004ea6f0 f   imgui.obj
 0001:000e97c0       ?PopStyleVar@ImGui@@YAXH@Z 004ea7c0 f   imgui.obj
 0001:000e98e0       ?GetStyleColorVec4@ImGui@@YAABUImVec4@@H@Z 004ea8e0 f   imgui.obj
 0001:000e9910       ?GetFont@ImGui@@YAPAUImFont@@XZ 004ea910 f   imgui.obj
 0001:000e9920       ?GetFontSize@ImGui@@YAMXZ  004ea920 f   imgui.obj
 0001:000e9930       ?GetFontTexUvWhitePixel@ImGui@@YA?AUImVec2@@XZ 004ea930 f   imgui.obj
 0001:000e9960       ?GetColorU32@ImGui@@YAIHM@Z 004ea960 f   imgui.obj
 0001:000e99c0       ?GetColorU32@ImGui@@YAIABUImVec4@@@Z 004ea9c0 f   imgui.obj
 0001:000e9a10       ?GetColorU32@ImGui@@YAII@Z 004eaa10 f   imgui.obj
 0001:000e9a90       ?PushItemWidth@ImGui@@YAXM@Z 004eaa90 f   imgui.obj
 0001:000e9b20       ?PopItemWidth@ImGui@@YAXXZ 004eab20 f   imgui.obj
 0001:000e9bf0       ?CalcItemWidth@ImGui@@YAMXZ 004eabf0 f   imgui.obj
 0001:000e9c90       ?PushTextWrapPos@ImGui@@YAXM@Z 004eac90 f   imgui.obj
 0001:000e9ce0       ?PopTextWrapPos@ImGui@@YAXXZ 004eace0 f   imgui.obj
 0001:000e9da0       ?PushAllowKeyboardFocus@ImGui@@YAX_N@Z 004eada0 f   imgui.obj
 0001:000e9dc0       ?PopAllowKeyboardFocus@ImGui@@YAXXZ 004eadc0 f   imgui.obj
 0001:000e9dd0       ?PushButtonRepeat@ImGui@@YAX_N@Z 004eadd0 f   imgui.obj
 0001:000e9df0       ?PopButtonRepeat@ImGui@@YAXXZ 004eadf0 f   imgui.obj
 0001:000e9e00       ?Separator@ImGui@@YAXXZ    004eae00 f   imgui.obj
 0001:000ea0a0       ?SameLine@ImGui@@YAXMM@Z   004eb0a0 f   imgui.obj
 0001:000ea1c0       ?NewLine@ImGui@@YAXXZ      004eb1c0 f   imgui.obj
 0001:000ea2a0       ?Spacing@ImGui@@YAXXZ      004eb2a0 f   imgui.obj
 0001:000ea300       ?Dummy@ImGui@@YAXABUImVec2@@@Z 004eb300 f   imgui.obj
 0001:000ea3d0       ?Indent@ImGui@@YAXM@Z      004eb3d0 f   imgui.obj
 0001:000ea480       ?Unindent@ImGui@@YAXM@Z    004eb480 f   imgui.obj
 0001:000ea530       ?BeginGroup@ImGui@@YAXXZ   004eb530 f   imgui.obj
 0001:000ea6c0       ?EndGroup@ImGui@@YAXXZ     004eb6c0 f   imgui.obj
 0001:000eaa20       ?GetCursorPos@ImGui@@YA?AUImVec2@@XZ 004eba20 f   imgui.obj
 0001:000eaae0       ?GetCursorPosX@ImGui@@YAMXZ 004ebae0 f   imgui.obj
 0001:000eab30       ?GetCursorPosY@ImGui@@YAMXZ 004ebb30 f   imgui.obj
 0001:000eab80       ?SetCursorPos@ImGui@@YAXABUImVec2@@@Z 004ebb80 f   imgui.obj
 0001:000eace0       ?SetCursorPosX@ImGui@@YAXM@Z 004ebce0 f   imgui.obj
 0001:000ead80       ?SetCursorPosY@ImGui@@YAXM@Z 004ebd80 f   imgui.obj
 0001:000eae20       ?GetCursorStartPos@ImGui@@YA?AUImVec2@@XZ 004ebe20 f   imgui.obj
 0001:000eaea0       ?GetCursorScreenPos@ImGui@@YA?AUImVec2@@XZ 004ebea0 f   imgui.obj
 0001:000eaee0       ?SetCursorScreenPos@ImGui@@YAXABUImVec2@@@Z 004ebee0 f   imgui.obj
 0001:000eafc0       ?AlignTextToFramePadding@ImGui@@YAXXZ 004ebfc0 f   imgui.obj
 0001:000eb0c0       ?GetTextLineHeight@ImGui@@YAMXZ 004ec0c0 f   imgui.obj
 0001:000eb0e0       ?GetTextLineHeightWithSpacing@ImGui@@YAMXZ 004ec0e0 f   imgui.obj
 0001:000eb110       ?GetFrameHeight@ImGui@@YAMXZ 004ec110 f   imgui.obj
 0001:000eb150       ?GetFrameHeightWithSpacing@ImGui@@YAMXZ 004ec150 f   imgui.obj
 0001:000eb1a0       ?PushID@ImGui@@YAXPBD@Z    004ec1a0 f   imgui.obj
 0001:000eb1f0       ?PushID@ImGui@@YAXPBD0@Z   004ec1f0 f   imgui.obj
 0001:000eb240       ?PushID@ImGui@@YAXPBX@Z    004ec240 f   imgui.obj
 0001:000eb280       ?PushID@ImGui@@YAXH@Z      004ec280 f   imgui.obj
 0001:000eb2d0       ?PopID@ImGui@@YAXXZ        004ec2d0 f   imgui.obj
 0001:000eb330       ?GetID@ImGui@@YAIPBD@Z     004ec330 f   imgui.obj
 0001:000eb350       ?GetID@ImGui@@YAIPBD0@Z    004ec350 f   imgui.obj
 0001:000eb370       ?GetID@ImGui@@YAIPBX@Z     004ec370 f   imgui.obj
 0001:000eb390       ?TextUnformatted@ImGui@@YAXPBD0@Z 004ec390 f   imgui.obj
 0001:000eb9b0       ?Text@ImGui@@YAXPBDZZ      004ec9b0 f   imgui.obj
 0001:000eb9e0       ?TextV@ImGui@@YAXPBDPAD@Z  004ec9e0 f   imgui.obj
 0001:000eba70       ?TextColored@ImGui@@YAXABUImVec4@@PBDZZ 004eca70 f   imgui.obj
 0001:000ebaa0       ?TextColoredV@ImGui@@YAXABUImVec4@@PBDPAD@Z 004ecaa0 f   imgui.obj
 0001:000ebad0       ?TextDisabled@ImGui@@YAXPBDZZ 004ecad0 f   imgui.obj
 0001:000ebb00       ?TextDisabledV@ImGui@@YAXPBDPAD@Z 004ecb00 f   imgui.obj
 0001:000ebb40       ?TextWrapped@ImGui@@YAXPBDZZ 004ecb40 f   imgui.obj
 0001:000ebb70       ?TextWrappedV@ImGui@@YAXPBDPAD@Z 004ecb70 f   imgui.obj
 0001:000ebbe0       ?LabelText@ImGui@@YAXPBD0ZZ 004ecbe0 f   imgui.obj
 0001:000ebc10       ?LabelTextV@ImGui@@YAXPBD0PAD@Z 004ecc10 f   imgui.obj
 0001:000ebf50       ?BulletText@ImGui@@YAXPBDZZ 004ecf50 f   imgui.obj
 0001:000ebf80       ?BulletTextV@ImGui@@YAXPBDPAD@Z 004ecf80 f   imgui.obj
 0001:000ec350       ?Button@ImGui@@YA_NPBDABUImVec2@@@Z 004ed350 f   imgui.obj
 0001:000ec370       ?SmallButton@ImGui@@YA_NPBD@Z 004ed370 f   imgui.obj
 0001:000ec3e0       ?InvisibleButton@ImGui@@YA_NPBDABUImVec2@@@Z 004ed3e0 f   imgui.obj
 0001:000ec580       ?ArrowButton@ImGui@@YA_NPBDH@Z 004ed580 f   imgui.obj
 0001:000ec5c0       ?Image@ImGui@@YAXPAXABUImVec2@@11ABUImVec4@@2@Z 004ed5c0 f   imgui.obj
 0001:000ec830       ?ImageButton@ImGui@@YA_NPAXABUImVec2@@11HABUImVec4@@2@Z 004ed830 f   imgui.obj
 0001:000eccf0       ?Checkbox@ImGui@@YA_NPBDPA_N@Z 004edcf0 f   imgui.obj
 0001:000ed4b0       ?CheckboxFlags@ImGui@@YA_NPBDPAII@Z 004ee4b0 f   imgui.obj
 0001:000ed530       ?RadioButton@ImGui@@YA_NPBD_N@Z 004ee530 f   imgui.obj
 0001:000edc90       ?RadioButton@ImGui@@YA_NPBDPAHH@Z 004eec90 f   imgui.obj
 0001:000edce0       ?PlotLines@ImGui@@YAXPBDPBMHH0MMUImVec2@@H@Z 004eece0 f   imgui.obj
 0001:000edd40       ?PlotLines@ImGui@@YAXPBDP6AMPAXH@Z1HH0MMUImVec2@@@Z 004eed40 f   imgui.obj
 0001:000edd90       ?PlotHistogram@ImGui@@YAXPBDPBMHH0MMUImVec2@@H@Z 004eed90 f   imgui.obj
 0001:000eddf0       ?PlotHistogram@ImGui@@YAXPBDP6AMPAXH@Z1HH0MMUImVec2@@@Z 004eedf0 f   imgui.obj
 0001:000ede40       ?ProgressBar@ImGui@@YAXMABUImVec2@@PBD@Z 004eee40 f   imgui.obj
 0001:000ee260       ?Bullet@ImGui@@YAXXZ       004ef260 f   imgui.obj
 0001:000ee4d0       ?BeginCombo@ImGui@@YA_NPBD0H@Z 004ef4d0 f   imgui.obj
 0001:000eef70       ?EndCombo@ImGui@@YAXXZ     004eff70 f   imgui.obj
 0001:000eef80       ?Combo@ImGui@@YA_NPBDPAHQBQBDHH@Z 004eff80 f   imgui.obj
 0001:000eefb0       ?Combo@ImGui@@YA_NPBDPAH0H@Z 004effb0 f   imgui.obj
 0001:000ef040       ?Combo@ImGui@@YA_NPBDPAHP6A_NPAXHPAPBD@Z2HH@Z 004f0040 f   imgui.obj
 0001:000ef1c0       ?DragFloat@ImGui@@YA_NPBDPAMMMM0M@Z 004f01c0 f   imgui.obj
 0001:000ef200       ?DragFloat2@ImGui@@YA_NPBDQAMMMM0M@Z 004f0200 f   imgui.obj
 0001:000ef240       ?DragFloat3@ImGui@@YA_NPBDQAMMMM0M@Z 004f0240 f   imgui.obj
 0001:000ef280       ?DragFloat4@ImGui@@YA_NPBDQAMMMM0M@Z 004f0280 f   imgui.obj
 0001:000ef2c0       ?DragFloatRange2@ImGui@@YA_NPBDPAM1MMM00M@Z 004f02c0 f   imgui.obj
 0001:000ef530       ?DragInt@ImGui@@YA_NPBDPAHMHH0@Z 004f0530 f   imgui.obj
 0001:000ef570       ?DragInt2@ImGui@@YA_NPBDQAHMHH0@Z 004f0570 f   imgui.obj
 0001:000ef5b0       ?DragInt3@ImGui@@YA_NPBDQAHMHH0@Z 004f05b0 f   imgui.obj
 0001:000ef5f0       ?DragInt4@ImGui@@YA_NPBDQAHMHH0@Z 004f05f0 f   imgui.obj
 0001:000ef630       ?DragIntRange2@ImGui@@YA_NPBDPAH1MHH00@Z 004f0630 f   imgui.obj
 0001:000ef820       ?DragScalar@ImGui@@YA_NPBDHPAXMPBX20M@Z 004f0820 f   imgui.obj
 0001:000effd0       ?DragScalarN@ImGui@@YA_NPBDHPAXHMPBX20M@Z 004f0fd0 f   imgui.obj
 0001:000f0120       ?InputText@ImGui@@YA_NPBDPADIHP6AHPAUImGuiTextEditCallbackData@@@ZPAX@Z 004f1120 f   imgui.obj
 0001:000f0180       ?InputTextMultiline@ImGui@@YA_NPBDPADIABUImVec2@@HP6AHPAUImGuiTextEditCallbackData@@@ZPAX@Z 004f1180 f   imgui.obj
 0001:000f01b0       ?InputFloat@ImGui@@YA_NPBDPAMMM0H@Z 004f11b0 f   imgui.obj
 0001:000f0230       ?InputFloat2@ImGui@@YA_NPBDQAM0H@Z 004f1230 f   imgui.obj
 0001:000f0260       ?InputFloat3@ImGui@@YA_NPBDQAM0H@Z 004f1260 f   imgui.obj
 0001:000f0290       ?InputFloat4@ImGui@@YA_NPBDQAM0H@Z 004f1290 f   imgui.obj
 0001:000f02c0       ?InputInt@ImGui@@YA_NPBDPAHHHH@Z 004f12c0 f   imgui.obj
 0001:000f0340       ?InputInt2@ImGui@@YA_NPBDQAHH@Z 004f1340 f   imgui.obj
 0001:000f0370       ?InputInt3@ImGui@@YA_NPBDQAHH@Z 004f1370 f   imgui.obj
 0001:000f03a0       ?InputInt4@ImGui@@YA_NPBDQAHH@Z 004f13a0 f   imgui.obj
 0001:000f03d0       ?InputDouble@ImGui@@YA_NPBDPANNN0H@Z 004f13d0 f   imgui.obj
 0001:000f0450       ?InputScalar@ImGui@@YA_NPBDHPAXPBX20H@Z 004f1450 f   imgui.obj
 0001:000f07c0       ?InputScalarN@ImGui@@YA_NPBDHPAXHPBX20H@Z 004f17c0 f   imgui.obj
 0001:000f0900       ?SliderFloat@ImGui@@YA_NPBDPAMMM0M@Z 004f1900 f   imgui.obj
 0001:000f0930       ?SliderFloat2@ImGui@@YA_NPBDQAMMM0M@Z 004f1930 f   imgui.obj
 0001:000f0960       ?SliderFloat3@ImGui@@YA_NPBDQAMMM0M@Z 004f1960 f   imgui.obj
 0001:000f0990       ?SliderFloat4@ImGui@@YA_NPBDQAMMM0M@Z 004f1990 f   imgui.obj
 0001:000f09c0       ?SliderAngle@ImGui@@YA_NPBDPAMMM@Z 004f19c0 f   imgui.obj
 0001:000f0a50       ?SliderInt@ImGui@@YA_NPBDPAHHH0@Z 004f1a50 f   imgui.obj
 0001:000f0a90       ?SliderInt2@ImGui@@YA_NPBDQAHHH0@Z 004f1a90 f   imgui.obj
 0001:000f0ad0       ?SliderInt3@ImGui@@YA_NPBDQAHHH0@Z 004f1ad0 f   imgui.obj
 0001:000f0b10       ?SliderInt4@ImGui@@YA_NPBDQAHHH0@Z 004f1b10 f   imgui.obj
 0001:000f0b50       ?SliderScalar@ImGui@@YA_NPBDHPAXPBX20M@Z 004f1b50 f   imgui.obj
 0001:000f1100       ?SliderScalarN@ImGui@@YA_NPBDHPAXHPBX20M@Z 004f2100 f   imgui.obj
 0001:000f1240       ?VSliderFloat@ImGui@@YA_NPBDABUImVec2@@PAMMM0M@Z 004f2240 f   imgui.obj
 0001:000f1280       ?VSliderInt@ImGui@@YA_NPBDABUImVec2@@PAHHH0@Z 004f2280 f   imgui.obj
 0001:000f12c0       ?VSliderScalar@ImGui@@YA_NPBDABUImVec2@@HPAXPBX30M@Z 004f22c0 f   imgui.obj
 0001:000f1790       ?ColorEdit3@ImGui@@YA_NPBDQAMH@Z 004f2790 f   imgui.obj
 0001:000f17b0       ?ColorEdit4@ImGui@@YA_NPBDQAMH@Z 004f27b0 f   imgui.obj
 0001:000f2c30       ?ColorPicker3@ImGui@@YA_NPBDQAMH@Z 004f3c30 f   imgui.obj
 0001:000f2d10       ?ColorPicker4@ImGui@@YA_NPBDQAMHPBM@Z 004f3d10 f   imgui.obj
 0001:000f57d0       ?ColorButton@ImGui@@YA_NPBDABUImVec4@@HUImVec2@@@Z 004f67d0 f   imgui.obj
 0001:000f5e80       ?SetColorEditOptions@ImGui@@YAXH@Z 004f6e80 f   imgui.obj
 0001:000f5fc0       ?TreeNode@ImGui@@YA_NPBD@Z 004f6fc0 f   imgui.obj
 0001:000f6020       ?TreeNode@ImGui@@YA_NPBD0ZZ 004f7020 f   imgui.obj
 0001:000f6060       ?TreeNode@ImGui@@YA_NPBXPBDZZ 004f7060 f   imgui.obj
 0001:000f60a0       ?TreeNodeV@ImGui@@YA_NPBD0PAD@Z 004f70a0 f   imgui.obj
 0001:000f60c0       ?TreeNodeV@ImGui@@YA_NPBXPBDPAD@Z 004f70c0 f   imgui.obj
 0001:000f60e0       ?TreeNodeEx@ImGui@@YA_NPBDH@Z 004f70e0 f   imgui.obj
 0001:000f6140       ?TreeNodeEx@ImGui@@YA_NPBDH0ZZ 004f7140 f   imgui.obj
 0001:000f6180       ?TreeNodeEx@ImGui@@YA_NPBXHPBDZZ 004f7180 f   imgui.obj
 0001:000f61c0       ?TreeNodeExV@ImGui@@YA_NPBDH0PAD@Z 004f71c0 f   imgui.obj
 0001:000f6260       ?TreeNodeExV@ImGui@@YA_NPBXHPBDPAD@Z 004f7260 f   imgui.obj
 0001:000f6300       ?TreePush@ImGui@@YAXPBD@Z  004f7300 f   imgui.obj
 0001:000f6380       ?TreePush@ImGui@@YAXPBX@Z  004f7380 f   imgui.obj
 0001:000f6400       ?TreePop@ImGui@@YAXXZ      004f7400 f   imgui.obj
 0001:000f6510       ?TreeAdvanceToLabelPos@ImGui@@YAXXZ 004f7510 f   imgui.obj
 0001:000f6560       ?GetTreeNodeToLabelSpacing@ImGui@@YAMXZ 004f7560 f   imgui.obj
 0001:000f65a0       ?SetNextTreeNodeOpen@ImGui@@YAX_NH@Z 004f75a0 f   imgui.obj
 0001:000f6600       ?CollapsingHeader@ImGui@@YA_NPBDH@Z 004f7600 f   imgui.obj
 0001:000f6660       ?CollapsingHeader@ImGui@@YA_NPBDPA_NH@Z 004f7660 f   imgui.obj
 0001:000f6800       ?Selectable@ImGui@@YA_NPBD_NHABUImVec2@@@Z 004f7800 f   imgui.obj
 0001:000f6f30       ?Selectable@ImGui@@YA_NPBDPA_NHABUImVec2@@@Z 004f7f30 f   imgui.obj
 0001:000f6f90       ?ListBox@ImGui@@YA_NPBDPAHQBQBDHH@Z 004f7f90 f   imgui.obj
 0001:000f6fc0       ?ListBox@ImGui@@YA_NPBDPAHP6A_NPAXHPAPBD@Z2HH@Z 004f7fc0 f   imgui.obj
 0001:000f7140       ?ListBoxHeader@ImGui@@YA_NPBDABUImVec2@@@Z 004f8140 f   imgui.obj
 0001:000f73f0       ?ListBoxHeader@ImGui@@YA_NPBDHH@Z 004f83f0 f   imgui.obj
 0001:000f74b0       ?ListBoxFooter@ImGui@@YAXXZ 004f84b0 f   imgui.obj
 0001:000f7570       ?Value@ImGui@@YAXPBD_N@Z   004f8570 f   imgui.obj
 0001:000f75b0       ?Value@ImGui@@YAXPBDH@Z    004f85b0 f   imgui.obj
 0001:000f75d0       ?Value@ImGui@@YAXPBDI@Z    004f85d0 f   imgui.obj
 0001:000f75f0       ?Value@ImGui@@YAXPBDM0@Z   004f85f0 f   imgui.obj
 0001:000f7670       ?BeginTooltip@ImGui@@YAXXZ 004f8670 f   imgui.obj
 0001:000f7790       ?EndTooltip@ImGui@@YAXXZ   004f8790 f   imgui.obj
 0001:000f77e0       ?SetTooltip@ImGui@@YAXPBDZZ 004f87e0 f   imgui.obj
 0001:000f7810       ?SetTooltipV@ImGui@@YAXPBDPAD@Z 004f8810 f   imgui.obj
 0001:000f7860       ?BeginMainMenuBar@ImGui@@YA_NXZ 004f8860 f   imgui.obj
 0001:000f7a30       ?EndMainMenuBar@ImGui@@YAXXZ 004f8a30 f   imgui.obj
 0001:000f7a80       ?BeginMenuBar@ImGui@@YA_NXZ 004f8a80 f   imgui.obj
 0001:000f7cb0       ?EndMenuBar@ImGui@@YAXXZ   004f8cb0 f   imgui.obj
 0001:000f7f10       ?BeginMenu@ImGui@@YA_NPBD_N@Z 004f8f10 f   imgui.obj
 0001:000f8c20       ?EndMenu@ImGui@@YAXXZ      004f9c20 f   imgui.obj
 0001:000f8cb0       ?MenuItem@ImGui@@YA_NPBD0_N1@Z 004f9cb0 f   imgui.obj
 0001:000f9180       ?MenuItem@ImGui@@YA_NPBD0PA_N_N@Z 004fa180 f   imgui.obj
 0001:000f91f0       ?OpenPopup@ImGui@@YAXPBD@Z 004fa1f0 f   imgui.obj
 0001:000f9220       ?BeginPopup@ImGui@@YA_NPBDH@Z 004fa220 f   imgui.obj
 0001:000f9290       ?BeginPopupContextItem@ImGui@@YA_NPBDH@Z 004fa290 f   imgui.obj
 0001:000f9340       ?BeginPopupContextWindow@ImGui@@YA_NPBDH_N@Z 004fa340 f   imgui.obj
 0001:000f93d0       ?BeginPopupContextVoid@ImGui@@YA_NPBDH@Z 004fa3d0 f   imgui.obj
 0001:000f9440       ?BeginPopupModal@ImGui@@YA_NPBDPA_NH@Z 004fa440 f   imgui.obj
 0001:000f9580       ?EndPopup@ImGui@@YAXXZ     004fa580 f   imgui.obj
 0001:000f9600       ?OpenPopupOnItemClick@ImGui@@YA_NPBDH@Z 004fa600 f   imgui.obj
 0001:000f96a0       ?IsPopupOpen@ImGui@@YA_NPBD@Z 004fa6a0 f   imgui.obj
 0001:000f9740       ?CloseCurrentPopup@ImGui@@YAXXZ 004fa740 f   imgui.obj
 0001:000f98a0       ?Columns@ImGui@@YAXHPBD_N@Z 004fa8a0 f   imgui.obj
 0001:000f9970       ?NextColumn@ImGui@@YAXXZ   004fa970 f   imgui.obj
 0001:000f9b60       ?GetColumnIndex@ImGui@@YAHXZ 004fab60 f   imgui.obj
 0001:000f9bb0       ?GetColumnWidth@ImGui@@YAMH@Z 004fabb0 f   imgui.obj
 0001:000f9ca0       ?SetColumnWidth@ImGui@@YAXHM@Z 004faca0 f   imgui.obj
 0001:000f9d30       ?GetColumnOffset@ImGui@@YAMH@Z 004fad30 f   imgui.obj
 0001:000f9e20       ?SetColumnOffset@ImGui@@YAXHM@Z 004fae20 f   imgui.obj
 0001:000fa010       ?GetColumnsCount@ImGui@@YAHXZ 004fb010 f   imgui.obj
 0001:000fa060       ?LogToTTY@ImGui@@YAXH@Z    004fb060 f   imgui.obj
 0001:000fa100       ?LogToFile@ImGui@@YAXHPBD@Z 004fb100 f   imgui.obj
 0001:000fa1f0       ?LogToClipboard@ImGui@@YAXH@Z 004fb1f0 f   imgui.obj
 0001:000fa280       ?LogFinish@ImGui@@YAXXZ    004fb280 f   imgui.obj
 0001:000fa350       ?LogButtons@ImGui@@YAXXZ   004fb350 f   imgui.obj
 0001:000fa4e0       ?LogText@ImGui@@YAXPBDZZ   004fb4e0 f   imgui.obj
 0001:000fa570       ?BeginDragDropSource@ImGui@@YA_NH@Z 004fb570 f   imgui.obj
 0001:000fa890       ?SetDragDropPayload@ImGui@@YA_NPBDPBXIH@Z 004fb890 f   imgui.obj
 0001:000faab0       ?EndDragDropSource@ImGui@@YAXXZ 004fbab0 f   imgui.obj
 0001:000fab50       ?BeginDragDropTarget@ImGui@@YA_NXZ 004fbb50 f   imgui.obj
 0001:000fac90       ?AcceptDragDropPayload@ImGui@@YAPBUImGuiPayload@@PBDH@Z 004fbc90 f   imgui.obj
 0001:000fb050       ?EndDragDropTarget@ImGui@@YAXXZ 004fc050 f   imgui.obj
 0001:000fb0c0       ?PushClipRect@ImGui@@YAXABUImVec2@@0_N@Z 004fc0c0 f   imgui.obj
 0001:000fb150       ?PopClipRect@ImGui@@YAXXZ  004fc150 f   imgui.obj
 0001:000fb1d0       ?SetItemDefaultFocus@ImGui@@YAXXZ 004fc1d0 f   imgui.obj
 0001:000fb390       ?SetKeyboardFocusHere@ImGui@@YAXH@Z 004fc390 f   imgui.obj
 0001:000fb400       ?IsItemHovered@ImGui@@YA_NH@Z 004fc400 f   imgui.obj
 0001:000fb540       ?IsItemActive@ImGui@@YA_NXZ 004fc540 f   imgui.obj
 0001:000fb5a0       ?IsItemFocused@ImGui@@YA_NXZ 004fc5a0 f   imgui.obj
 0001:000fb600       ?IsItemClicked@ImGui@@YA_NH@Z 004fc600 f   imgui.obj
 0001:000fb650       ?IsItemVisible@ImGui@@YA_NXZ 004fc650 f   imgui.obj
 0001:000fb690       ?IsItemDeactivated@ImGui@@YA_NXZ 004fc690 f   imgui.obj
 0001:000fb700       ?IsItemDeactivatedAfterChange@ImGui@@YA_NXZ 004fc700 f   imgui.obj
 0001:000fb760       ?IsAnyItemHovered@ImGui@@YA_NXZ 004fc760 f   imgui.obj
 0001:000fb7a0       ?IsAnyItemActive@ImGui@@YA_NXZ 004fc7a0 f   imgui.obj
 0001:000fb7e0       ?IsAnyItemFocused@ImGui@@YA_NXZ 004fc7e0 f   imgui.obj
 0001:000fb820       ?GetItemRectMin@ImGui@@YA?AUImVec2@@XZ 004fc820 f   imgui.obj
 0001:000fb860       ?GetItemRectMax@ImGui@@YA?AUImVec2@@XZ 004fc860 f   imgui.obj
 0001:000fb8a0       ?GetItemRectSize@ImGui@@YA?AUImVec2@@XZ 004fc8a0 f   imgui.obj
 0001:000fb8e0       ?SetItemAllowOverlap@ImGui@@YAXXZ 004fc8e0 f   imgui.obj
 0001:000fb940       ?IsRectVisible@ImGui@@YA_NABUImVec2@@@Z 004fc940 f   imgui.obj
 0001:000fb9e0       ?IsRectVisible@ImGui@@YA_NABUImVec2@@0@Z 004fc9e0 f   imgui.obj
 0001:000fba30       ?GetTime@ImGui@@YANXZ      004fca30 f   imgui.obj
 0001:000fba40       ?GetFrameCount@ImGui@@YAHXZ 004fca40 f   imgui.obj
 0001:000fba50       ?GetOverlayDrawList@ImGui@@YAPAUImDrawList@@XZ 004fca50 f   imgui.obj
 0001:000fba60       ?GetDrawListSharedData@ImGui@@YAPAUImDrawListSharedData@@XZ 004fca60 f   imgui.obj
 0001:000fba70       ?GetStyleColorName@ImGui@@YAPBDH@Z 004fca70 f   imgui.obj
 0001:000fbcf0       ?SetStateStorage@ImGui@@YAXPAUImGuiStorage@@@Z 004fccf0 f   imgui.obj
 0001:000fbd40       ?GetStateStorage@ImGui@@YAPAUImGuiStorage@@XZ 004fcd40 f   imgui.obj
 0001:000fbd70       ?CalcTextSize@ImGui@@YA?AUImVec2@@PBD0_NM@Z 004fcd70 f   imgui.obj
 0001:000fbe90       ?CalcListClipping@ImGui@@YAXHMPAH0@Z 004fce90 f   imgui.obj
 0001:000fc040       ?BeginChildFrame@ImGui@@YA_NIABUImVec2@@H@Z 004fd040 f   imgui.obj
 0001:000fc100       ?EndChildFrame@ImGui@@YAXXZ 004fd100 f   imgui.obj
 0001:000fc110       ?ColorConvertU32ToFloat4@ImGui@@YA?AUImVec4@@I@Z 004fd110 f   imgui.obj
 0001:000fc210       ?ColorConvertFloat4ToU32@ImGui@@YAIABUImVec4@@@Z 004fd210 f   imgui.obj
 0001:000fc3f0       ?ColorConvertRGBtoHSV@ImGui@@YAXMMMAAM00@Z 004fd3f0 f   imgui.obj
 0001:000fc510       ?ColorConvertHSVtoRGB@ImGui@@YAXMMMAAM00@Z 004fd510 f   imgui.obj
 0001:000fc720       ?GetKeyIndex@ImGui@@YAHH@Z 004fd720 f   imgui.obj
 0001:000fc760       ?IsKeyDown@ImGui@@YA_NH@Z  004fd760 f   imgui.obj
 0001:000fc7b0       ?IsKeyPressed@ImGui@@YA_NH_N@Z 004fd7b0 f   imgui.obj
 0001:000fc890       ?IsKeyReleased@ImGui@@YA_NH@Z 004fd890 f   imgui.obj
 0001:000fc910       ?GetKeyPressedAmount@ImGui@@YAHHMM@Z 004fd910 f   imgui.obj
 0001:000fc9b0       ?IsMouseDown@ImGui@@YA_NH@Z 004fd9b0 f   imgui.obj
 0001:000fc9f0       ?IsAnyMouseDown@ImGui@@YA_NXZ 004fd9f0 f   imgui.obj
 0001:000fca40       ?IsMouseClicked@ImGui@@YA_NH_N@Z 004fda40 f   imgui.obj
 0001:000fcbc0       ?IsMouseDoubleClicked@ImGui@@YA_NH@Z 004fdbc0 f   imgui.obj
 0001:000fcc00       ?IsMouseReleased@ImGui@@YA_NH@Z 004fdc00 f   imgui.obj
 0001:000fcc40       ?IsMouseDragging@ImGui@@YA_NHM@Z 004fdc40 f   imgui.obj
 0001:000fcce0       ?IsMouseHoveringRect@ImGui@@YA_NABUImVec2@@0_N@Z 004fdce0 f   imgui.obj
 0001:000fcde0       ?IsMousePosValid@ImGui@@YA_NPBUImVec2@@@Z 004fdde0 f   imgui.obj
 0001:000fce40       ?GetMousePos@ImGui@@YA?AUImVec2@@XZ 004fde40 f   imgui.obj
 0001:000fce70       ?GetMousePosOnOpeningCurrentPopup@ImGui@@YA?AUImVec2@@XZ 004fde70 f   imgui.obj
 0001:000fcf10       ?GetMouseDragDelta@ImGui@@YA?AUImVec2@@HM@Z 004fdf10 f   imgui.obj
 0001:000fd010       ?ResetMouseDragDelta@ImGui@@YAXH@Z 004fe010 f   imgui.obj
 0001:000fd070       ?GetMouseCursor@ImGui@@YAHXZ 004fe070 f   imgui.obj
 0001:000fd080       ?SetMouseCursor@ImGui@@YAXH@Z 004fe080 f   imgui.obj
 0001:000fd0a0       ?CaptureKeyboardFromApp@ImGui@@YAX_N@Z 004fe0a0 f   imgui.obj
 0001:000fd0d0       ?CaptureMouseFromApp@ImGui@@YAX_N@Z 004fe0d0 f   imgui.obj
 0001:000fd100       ?GetClipboardText@ImGui@@YAPBDXZ 004fe100 f   imgui.obj
 0001:000fd150       ?SetClipboardText@ImGui@@YAXPBD@Z 004fe150 f   imgui.obj
 0001:000fd190       ?LoadIniSettingsFromDisk@ImGui@@YAXPBD@Z 004fe190 f   imgui.obj
 0001:000fd1e0       ?LoadIniSettingsFromMemory@ImGui@@YAXPBDI@Z 004fe1e0 f   imgui.obj
 0001:000fd490       ?SaveIniSettingsToDisk@ImGui@@YAXPBD@Z 004fe490 f   imgui.obj
 0001:000fd510       ?SaveIniSettingsToMemory@ImGui@@YAPBDPAI@Z 004fe510 f   imgui.obj
 0001:000fd600       ?SetAllocatorFunctions@ImGui@@YAXP6APAXIPAX@ZP6AX00@Z0@Z 004fe600 f   imgui.obj
 0001:000fd620       ?MemAlloc@ImGui@@YAPAXI@Z  004fe620 f   imgui.obj
 0001:000fd650       ?MemFree@ImGui@@YAXPAX@Z   004fe650 f   imgui.obj
 0001:000fd680       ??0ImGuiStyle@@QAE@XZ      004fe680 f   imgui.obj
 0001:000fdae0       ?ScaleAllSizes@ImGuiStyle@@QAEXM@Z 004feae0 f   imgui.obj
 0001:000fe140       ?AddInputCharacter@ImGuiIO@@QAEXG@Z 004ff140 f   imgui.obj
 0001:000fe190       ?AddInputCharactersUTF8@ImGuiIO@@QAEXPBD@Z 004ff190 f   imgui.obj
 0001:000fe210       ??0ImGuiIO@@QAE@XZ         004ff210 f   imgui.obj
 0001:000fe6e0       ?InputFloat@ImGui@@YA_NPBDPAMMMHH@Z 004ff6e0 f   imgui.obj
 0001:000fe770       ?InputFloat2@ImGui@@YA_NPBDQAMHH@Z 004ff770 f   imgui.obj
 0001:000fe7f0       ?InputFloat3@ImGui@@YA_NPBDQAMHH@Z 004ff7f0 f   imgui.obj
 0001:000fe870       ?InputFloat4@ImGui@@YA_NPBDQAMHH@Z 004ff870 f   imgui.obj
 0001:000fe8f0       ?Begin@ImGui@@YA_NPBDPA_NABUImVec2@@MH@Z 004ff8f0 f   imgui.obj
 0001:000fe970       ??0ImGuiTextFilter@@QAE@PBD@Z 004ff970 f   imgui.obj
 0001:000fea30       ?Draw@ImGuiTextFilter@@QAE_NPBDM@Z 004ffa30 f   imgui.obj
 0001:000feab0       ?PassFilter@ImGuiTextFilter@@QBE_NPBD0@Z 004ffab0 f   imgui.obj
 0001:000fec20       ?Build@ImGuiTextFilter@@QAEXXZ 004ffc20 f   imgui.obj
 0001:000fee40       ?split@TextRange@ImGuiTextFilter@@QBEXDPAV?$ImVector@UTextRange@ImGuiTextFilter@@@@@Z 004ffe40 f   imgui.obj
 0001:000feed0       ?appendf@ImGuiTextBuffer@@QAAXPBDZZ 004ffed0 f   imgui.obj
 0001:000fef00       ?appendfv@ImGuiTextBuffer@@QAEXPBDPAD@Z 004fff00 f   imgui.obj
 0001:000feff0       ?GetInt@ImGuiStorage@@QBEHIH@Z 004ffff0 f   imgui.obj
 0001:000ff040       ?SetInt@ImGuiStorage@@QAEXIH@Z 00500040 f   imgui.obj
 0001:000ff0b0       ?GetBool@ImGuiStorage@@QBE_NI_N@Z 005000b0 f   imgui.obj
 0001:000ff100       ?SetBool@ImGuiStorage@@QAEXI_N@Z 00500100 f   imgui.obj
 0001:000ff140       ?GetFloat@ImGuiStorage@@QBEMIM@Z 00500140 f   imgui.obj
 0001:000ff190       ?SetFloat@ImGuiStorage@@QAEXIM@Z 00500190 f   imgui.obj
 0001:000ff210       ?GetVoidPtr@ImGuiStorage@@QBEPAXI@Z 00500210 f   imgui.obj
 0001:000ff260       ?SetVoidPtr@ImGuiStorage@@QAEXIPAX@Z 00500260 f   imgui.obj
 0001:000ff2d0       ?GetIntRef@ImGuiStorage@@QAEPAHIH@Z 005002d0 f   imgui.obj
 0001:000ff340       ?GetBoolRef@ImGuiStorage@@QAEPA_NI_N@Z 00500340 f   imgui.obj
 0001:000ff380       ?GetFloatRef@ImGuiStorage@@QAEPAMIM@Z 00500380 f   imgui.obj
 0001:000ff3f0       ?GetVoidPtrRef@ImGuiStorage@@QAEPAPAXIPAX@Z 005003f0 f   imgui.obj
 0001:000ff460       ?SetAllInt@ImGuiStorage@@QAEXH@Z 00500460 f   imgui.obj
 0001:000ff4d0       ?BuildSortByKey@ImGuiStorage@@QAEXXZ 005004d0 f   imgui.obj
 0001:000ff500       ?DeleteChars@ImGuiTextEditCallbackData@@QAEXHH@Z 00500500 f   imgui.obj
 0001:000ff5f0       ?InsertChars@ImGuiTextEditCallbackData@@QAEXHPBD0@Z 005005f0 f   imgui.obj
 0001:000ff710       ?Step@ImGuiListClipper@@QAE_NXZ 00500710 f   imgui.obj
 0001:000ff8a0       ?Begin@ImGuiListClipper@@QAEXHM@Z 005008a0 f   imgui.obj
 0001:000ff970       ?End@ImGuiListClipper@@QAEXXZ 00500970 f   imgui.obj
 0001:000ff9e0       ?ImTextStrToUtf8@@YAHPADHPBG1@Z 005009e0 f   imgui.obj
 0001:000ffa80       ?ImTextCharFromUtf8@@YAHPAIPBD1@Z 00500a80 f   imgui.obj
 0001:000ffe70       ?ImTextStrFromUtf8@@YAHPAGHPBD1PAPBD@Z 00500e70 f   imgui.obj
 0001:000fff10       ?ImTextCountCharsFromUtf8@@YAHPBD0@Z 00500f10 f   imgui.obj
 0001:000fff80       ?ImTextCountUtf8BytesFromStr@@YAHPBG0@Z 00500f80 f   imgui.obj
 0001:00100050       ?ImHash@@YAIPBXHI@Z        00501050 f   imgui.obj
 0001:001001b0       ?ImFileLoadToMemory@@YAPAXPBD0PAIH@Z 005011b0 f   imgui.obj
 0001:00100310       ?ImFileOpen@@YAPAU_iobuf@@PBD0@Z 00501310 f   imgui.obj
 0001:001004a0       ?ImLineClosestPoint@@YA?AUImVec2@@ABU1@00@Z 005014a0 f   imgui.obj
 0001:00100650       ?ImTriangleContainsPoint@@YA_NABUImVec2@@000@Z 00501650 f   imgui.obj
 0001:001007c0       ?ImTriangleClosestPoint@@YA?AUImVec2@@ABU1@000@Z 005017c0 f   imgui.obj
 0001:001009b0       ?ImTriangleBarycentricCoords@@YAXABUImVec2@@000AAM11@Z 005019b0 f   imgui.obj
 0001:00100af0       ?ImStricmp@@YAHPBD0@Z      00501af0 f   imgui.obj
 0001:00100b50       ?ImStrnicmp@@YAHPBD0I@Z    00501b50 f   imgui.obj
 0001:00100bc0       ?ImStrncpy@@YAXPADPBDI@Z   00501bc0 f   imgui.obj
 0001:00100bf0       ?ImStrdup@@YAPADPBD@Z      00501bf0 f   imgui.obj
 0001:00100c50       ?ImStrchrRange@@YAPBDPBD0D@Z 00501c50 f   imgui.obj
 0001:00100c80       ?ImStrlenW@@YAHPBG@Z       00501c80 f   imgui.obj
 0001:00100cc0       ?ImStrbolW@@YAPBGPBG0@Z    00501cc0 f   imgui.obj
 0001:00100cf0       ?ImStristr@@YAPBDPBD000@Z  00501cf0 f   imgui.obj
 0001:00100e00       ?ImStrTrimBlanks@@YAXPAD@Z 00501e00 f   imgui.obj
 0001:00100ed0       ?ImFormatString@@YAHPADIPBDZZ 00501ed0 f   imgui.obj
 0001:00100f70       ?ImFormatStringV@@YAHPADIPBD0@Z 00501f70 f   imgui.obj
 0001:00100ff0       ?ImParseFormatFindStart@@YAPBDPBD@Z 00501ff0 f   imgui.obj
 0001:00101060       ?ImParseFormatFindEnd@@YAPBDPBD@Z 00502060 f   imgui.obj
 0001:00101120       ?ImParseFormatTrimDecorations@@YAPBDPBDPADH@Z 00502120 f   imgui.obj
 0001:001011c0       ?ImParseFormatPrecision@@YAHPBDH@Z 005021c0 f   imgui.obj
 0001:00101410       ??0ImGuiMenuColumns@@QAE@XZ 00502410 f   imgui.obj
 0001:00101470       ?Update@ImGuiMenuColumns@@QAEXHM_N@Z 00502470 f   imgui.obj
 0001:00101580       ?DeclColumns@ImGuiMenuColumns@@QAEMMMM@Z 00502580 f   imgui.obj
 0001:00101730       ?CalcExtraSpace@ImGuiMenuColumns@@QAEMM@Z 00502730 f   imgui.obj
 0001:00101780       ?OnKeyPressed@ImGuiTextEditState@@QAEXH@Z 00502780 f   imgui.obj
 0001:001017d0       ?FlattenIntoSingleLayer@ImDrawDataBuilder@@QAEXXZ 005027d0 f   imgui.obj
 0001:00101920       ??0ImGuiWindow@@QAE@PAUImGuiContext@@PBD@Z 00502920 f   imgui.obj
 0001:001023a0       ??1ImGuiWindow@@QAE@XZ     005033a0 f   imgui.obj
 0001:00102570       ?GetID@ImGuiWindow@@QAEIPBD0@Z 00503570 f   imgui.obj
 0001:001025d0       ?GetID@ImGuiWindow@@QAEIPBX@Z 005035d0 f   imgui.obj
 0001:00102620       ?GetIDNoKeepAlive@ImGuiWindow@@QAEIPBD0@Z 00503620 f   imgui.obj
 0001:00102670       ?GetIDNoKeepAlive@ImGuiWindow@@QAEIPBX@Z 00503670 f   imgui.obj
 0001:001026b0       ?GetIDFromRectangle@ImGuiWindow@@QAEIABUImRect@@@Z 005036b0 f   imgui.obj
 0001:00102770       ?FindWindowByName@ImGui@@YAPAUImGuiWindow@@PBD@Z 00503770 f   imgui.obj
 0001:001027b0       ?FocusWindow@ImGui@@YAXPAUImGuiWindow@@@Z 005037b0 f   imgui.obj
 0001:001028d0       ?BringWindowToFront@ImGui@@YAXPAUImGuiWindow@@@Z 005038d0 f   imgui.obj
 0001:001029b0       ?BringWindowToBack@ImGui@@YAXPAUImGuiWindow@@@Z 005039b0 f   imgui.obj
 0001:00102b40       ?UpdateWindowParentAndRootLinks@ImGui@@YAXPAUImGuiWindow@@H0@Z 00503b40 f   imgui.obj
 0001:00102c00       ?IsWindowChildOf@ImGui@@YA_NPAUImGuiWindow@@0@Z 00503c00 f   imgui.obj
 0001:00102c40       ?IsWindowNavFocusable@ImGui@@YA_NPAUImGuiWindow@@@Z 00503c40 f   imgui.obj
 0001:00102ca0       ?SetCurrentFont@ImGui@@YAXPAUImFont@@@Z 00503ca0 f   imgui.obj
 0001:00102df0       ?Initialize@ImGui@@YAXPAUImGuiContext@@@Z 00503df0 f   imgui.obj
 0001:00102eb0       ?Shutdown@ImGui@@YAXPAUImGuiContext@@@Z 00503eb0 f   imgui.obj
 0001:00103460       ?UpdateHoveredWindowAndCaptureFlags@ImGui@@YAXXZ 00504460 f   imgui.obj
 0001:001037c0       ?StartMouseMovingWindow@ImGui@@YAXPAUImGuiWindow@@@Z 005047c0 f   imgui.obj
 0001:00103890       ?UpdateMouseMovingWindow@ImGui@@YAXXZ 00504890 f   imgui.obj
 0001:00103a60       ?MarkIniSettingsDirty@ImGui@@YAXXZ 00504a60 f   imgui.obj
 0001:00103a90       ?MarkIniSettingsDirty@ImGui@@YAXPAUImGuiWindow@@@Z 00504a90 f   imgui.obj
 0001:00103ad0       ?FindSettingsHandler@ImGui@@YAPAUImGuiSettingsHandler@@PBD@Z 00504ad0 f   imgui.obj
 0001:00103ba0       ?FindWindowSettings@ImGui@@YAPAUImGuiWindowSettings@@I@Z 00504ba0 f   imgui.obj
 0001:00103c60       ?SetActiveID@ImGui@@YAXIPAUImGuiWindow@@@Z 00504c60 f   imgui.obj
 0001:00103d80       ?SetFocusID@ImGui@@YAXIPAUImGuiWindow@@@Z 00504d80 f   imgui.obj
 0001:00103f20       ?ClearActiveID@ImGui@@YAXXZ 00504f20 f   imgui.obj
 0001:00103f40       ?GetHoveredID@ImGui@@YAIXZ 00504f40 f   imgui.obj
 0001:00103f80       ?SetHoveredID@ImGui@@YAXI@Z 00504f80 f   imgui.obj
 0001:00103fd0       ?KeepAliveID@ImGui@@YAXI@Z 00504fd0 f   imgui.obj
 0001:00104010       ?MarkItemValueChanged@ImGui@@YAXI@Z 00505010 f   imgui.obj
 0001:00104070       ?ItemSize@ImGui@@YAXABUImVec2@@M@Z 00505070 f   imgui.obj
 0001:00104310       ?ItemSize@ImGui@@YAXABUImRect@@M@Z 00505310 f   imgui.obj
 0001:00104340       ?ItemAdd@ImGui@@YA_NABUImRect@@IPBU2@@Z 00505340 f   imgui.obj
 0001:001044a0       ?ItemHoverable@ImGui@@YA_NABUImRect@@I@Z 005054a0 f   imgui.obj
 0001:001045a0       ?IsClippedEx@ImGui@@YA_NABUImRect@@I_N@Z 005055a0 f   imgui.obj
 0001:00104610       ?FocusableItemRegister@ImGui@@YA_NPAUImGuiWindow@@I_N@Z 00505610 f   imgui.obj
 0001:00104770       ?FocusableItemUnregister@ImGui@@YAXPAUImGuiWindow@@@Z 00505770 f   imgui.obj
 0001:001047a0       ?CalcItemSize@ImGui@@YA?AUImVec2@@U2@MM@Z 005057a0 f   imgui.obj
 0001:00104950       ?CalcWrapWidthForPos@ImGui@@YAMABUImVec2@@M@Z 00505950 f   imgui.obj
 0001:00104a20       ?PushMultiItemsWidths@ImGui@@YAXHM@Z 00505a20 f   imgui.obj
 0001:00104b90       ?PushItemFlag@ImGui@@YAXH_N@Z 00505b90 f   imgui.obj
 0001:00104c10       ?PopItemFlag@ImGui@@YAXXZ  00505c10 f   imgui.obj
 0001:00104cc0       ?OpenPopupEx@ImGui@@YAXI@Z 00505cc0 f   imgui.obj
 0001:00104ed0       ?ClosePopup@ImGui@@YAXI@Z  00505ed0 f   imgui.obj
 0001:00104f10       ?ClosePopupToLevel@ImGui@@YAXH@Z 00505f10 f   imgui.obj
 0001:00105020       ?ClosePopupsOverWindow@ImGui@@YAXPAUImGuiWindow@@@Z 00506020 f   imgui.obj
 0001:00105220       ?IsPopupOpen@ImGui@@YA_NI@Z 00506220 f   imgui.obj
 0001:001052b0       ?BeginPopupEx@ImGui@@YA_NIH@Z 005062b0 f   imgui.obj
 0001:00105370       ?BeginTooltipEx@ImGui@@YAXH_N@Z 00506370 f   imgui.obj
 0001:00105440       ?GetFrontMostPopupModal@ImGui@@YAPAUImGuiWindow@@XZ 00506440 f   imgui.obj
 0001:001054b0       ?NavInitWindow@ImGui@@YAXPAUImGuiWindow@@_N@Z 005064b0 f   imgui.obj
 0001:00105610       ?NavMoveRequestCancel@ImGui@@YAXXZ 00506610 f   imgui.obj
 0001:00105630       ?NavMoveRequestForward@ImGui@@YAXHHABUImRect@@H@Z 00506630 f   imgui.obj
 0001:001056d0       ?NavMoveRequestTryWrapping@ImGui@@YAXPAUImGuiWindow@@H@Z 005066d0 f   imgui.obj
 0001:00105a40       ?GetNavInputAmount@ImGui@@YAMHW4ImGuiInputReadMode@@@Z 00506a40 f   imgui.obj
 0001:00105c50       ?GetNavInputAmount2d@ImGui@@YA?AUImVec2@@HW4ImGuiInputReadMode@@MM@Z 00506c50 f   imgui.obj
 0001:00105f40       ?CalcTypematicPressedRepeatAmount@ImGui@@YAHMMMM@Z 00506f40 f   imgui.obj
 0001:00105fc0       ?ActivateItem@ImGui@@YAXI@Z 00506fc0 f   imgui.obj
 0001:00105fe0       ?BeginDragDropTargetCustom@ImGui@@YA_NABUImRect@@I@Z 00506fe0 f   imgui.obj
 0001:00106100       ?ClearDragDrop@ImGui@@YAXXZ 00507100 f   imgui.obj
 0001:001061d0       ?IsDragDropPayloadBeingAccepted@ImGui@@YA_NXZ 005071d0 f   imgui.obj
 0001:00106210       ?BeginColumns@ImGui@@YAXPBDHH@Z 00507210 f   imgui.obj
 0001:001066c0       ?EndColumns@ImGui@@YAXXZ   005076c0 f   imgui.obj
 0001:00106c00       ?PushColumnClipRect@ImGui@@YAXH@Z 00507c00 f   imgui.obj
 0001:00106cc0       ?RenderText@ImGui@@YAXUImVec2@@PBD1_N@Z 00507cc0 f   imgui.obj
 0001:00106dc0       ?RenderTextWrapped@ImGui@@YAXUImVec2@@PBD1M@Z 00507dc0 f   imgui.obj
 0001:00106ea0       ?RenderTextClipped@ImGui@@YAXABUImVec2@@0PBD1PBU2@0PBUImRect@@@Z 00507ea0 f   imgui.obj
 0001:001071f0       ?RenderFrame@ImGui@@YAXUImVec2@@0I_NM@Z 005081f0 f   imgui.obj
 0001:00107390       ?RenderFrameBorder@ImGui@@YAXUImVec2@@0M@Z 00508390 f   imgui.obj
 0001:00107500       ?RenderColorRectWithAlphaCheckerboard@ImGui@@YAXUImVec2@@0IM0MH@Z 00508500 f   imgui.obj
 0001:00107870       ?RenderArrow@ImGui@@YAXUImVec2@@HM@Z 00508870 f   imgui.obj
 0001:00107d60       ?RenderArrowPointingAt@ImGui@@YAXPAUImDrawList@@UImVec2@@1HI@Z 00508d60 f   imgui.obj
 0001:00107fa0       ?RenderBullet@ImGui@@YAXUImVec2@@@Z 00508fa0 f   imgui.obj
 0001:00108010       ?RenderCheckMark@ImGui@@YAXUImVec2@@IM@Z 00509010 f   imgui.obj
 0001:00108210       ?RenderNavHighlight@ImGui@@YAXABUImRect@@IH@Z 00509210 f   imgui.obj
 0001:001084b0       ?FindRenderedTextEnd@ImGui@@YAPBDPBD0@Z 005094b0 f   imgui.obj
 0001:00108520       ?ButtonEx@ImGui@@YA_NPBDABUImVec2@@H@Z 00509520 f   imgui.obj
 0001:00108860       ?CloseButton@ImGui@@YA_NIABUImVec2@@M@Z 00509860 f   imgui.obj
 0001:00108c90       ?CollapseButton@ImGui@@YA_NIABUImVec2@@@Z 00509c90 f   imgui.obj
 0001:00108fd0       ?ArrowButtonEx@ImGui@@YA_NPBDHUImVec2@@H@Z 00509fd0 f   imgui.obj
 0001:001092a0       ?Scrollbar@ImGui@@YAXH@Z   0050a2a0 f   imgui.obj
 0001:0010a1d0       ?VerticalSeparator@ImGui@@YAXXZ 0050b1d0 f   imgui.obj
 0001:0010a3b0       ?ButtonBehavior@ImGui@@YA_NABUImRect@@IPA_N1H@Z 0050b3b0 f   imgui.obj
 0001:0010aa00       ?DragBehavior@ImGui@@YA_NIHPAXMPBX1PBDM@Z 0050ba00 f   imgui.obj
 0001:0010adc0       ?SliderBehavior@ImGui@@YA_NABUImRect@@IHPAXPBX2PBDMH@Z 0050bdc0 f   imgui.obj
 0001:0010b1a0       ?SplitterBehavior@ImGui@@YA_NABUImRect@@IW4ImGuiAxis@@PAM2MMMM@Z 0050c1a0 f   imgui.obj
 0001:0010b550       ?TreeNodeBehavior@ImGui@@YA_NIHPBD0@Z 0050c550 f   imgui.obj
 0001:0010c270       ?TreeNodeBehaviorIsOpen@ImGui@@YA_NIH@Z 0050d270 f   imgui.obj
 0001:0010c3c0       ?TreePushRawID@ImGui@@YAXI@Z 0050d3c0 f   imgui.obj
 0001:0010c430       ?InputTextEx@ImGui@@YA_NPBDPADHABUImVec2@@HP6AHPAUImGuiTextEditCallbackData@@@ZPAX@Z 0050d430 f   imgui.obj
 0001:0010f9b0       ?InputScalarAsWidgetReplacement@ImGui@@YA_NABUImRect@@IPBDHPAX1@Z 005109b0 f   imgui.obj
 0001:0010fb40       ?ColorTooltip@ImGui@@YAXPBDPBMH@Z 00510b40 f   imgui.obj
 0001:0010ffd0       ?ColorEditOptionsPopup@ImGui@@YAXPBMH@Z 00510fd0 f   imgui.obj
 0001:00110670       ?PlotEx@ImGui@@YAXW4ImGuiPlotType@@PBDP6AMPAXH@Z2HH1MMUImVec2@@@Z 00511670 f   imgui.obj
 0001:00127980       ??$IM_DELETE@D@@YAXPAD@Z   00528980 f i imgui.obj
 0001:001279a0       ??$IM_DELETE@UImFontAtlas@@@@YAXPAUImFontAtlas@@@Z 005289a0 f i imgui.obj
 0001:001279e0       ??$IM_DELETE@UImGuiContext@@@@YAXPAUImGuiContext@@@Z 005289e0 f i imgui.obj
 0001:00127a20       ??$IM_DELETE@UImGuiWindow@@@@YAXPAUImGuiWindow@@@Z 00528a20 f i imgui.obj
 0001:00127a60       ??0?$ImVector@PAUImDrawList@@@@QAE@XZ 00528a60 f i imgui.obj
 0001:00127a90       ??0ImColor@@QAE@HHHH@Z     00528a90 f i imgui.obj
 0001:00127b30       ??0ImDrawData@@QAE@XZ      00528b30 f i imgui.obj
 0001:00127b90       ??0ImDrawList@@QAE@PBUImDrawListSharedData@@@Z 00528b90 f i imgui.obj
 0001:00127d20       ??0ImGuiColumnData@@QAE@XZ 00528d20 f i imgui.obj
 0001:00127db0       ??0ImGuiContext@@QAE@PAUImFontAtlas@@@Z 00528db0 f i imgui.obj
 0001:00128a50       ??0ImGuiItemHoveredDataBackup@@QAE@XZ 00529a50 f i imgui.obj
 0001:00128b20       ??0ImGuiNavMoveResult@@QAE@XZ 00529b20 f i imgui.obj
 0001:00128b90       ??0ImGuiNextWindowData@@QAE@XZ 00529b90 f i imgui.obj
 0001:00128df0       ??0ImGuiSizeCallbackData@@QAE@XZ 00529df0 f i imgui.obj
 0001:00128e60       ??0ImGuiTextBuffer@@QAE@XZ 00529e60 f i imgui.obj
 0001:00128ee0       ??0ImGuiTextEditState@@QAE@XZ 00529ee0 f i imgui.obj
 0001:00128f80       ??0ImGuiWindowSettings@@QAE@XZ 00529f80 f i imgui.obj
 0001:00129020       ??0ImGuiWindowTempData@@QAE@XZ 0052a020 f i imgui.obj
 0001:00129490       ??0ImRect@@QAE@ABUImVec4@@@Z 0052a490 f i imgui.obj
 0001:00129520       ??1?$ImVector@D@@QAE@XZ    0052a520 f i imgui.obj
 0001:00129570       ??1?$ImVector@E@@QAE@XZ    0052a570 f i imgui.obj
 0001:001295c0       ??1?$ImVector@G@@QAE@XZ    0052a5c0 f i imgui.obj
 0001:00129610       ??1?$ImVector@I@@QAE@XZ    0052a610 f i imgui.obj
 0001:00129660       ??1?$ImVector@PAUImDrawList@@@@QAE@XZ 0052a660 f i imgui.obj
 0001:001296b0       ??1?$ImVector@PAUImFont@@@@QAE@XZ 0052a6b0 f i imgui.obj
 0001:00129700       ??1?$ImVector@PAUImGuiWindow@@@@QAE@XZ 0052a700 f i imgui.obj
 0001:00129750       ??1?$ImVector@PAX@@QAE@XZ  0052a750 f i imgui.obj
 0001:001297a0       ??1?$ImVector@UImDrawChannel@@@@QAE@XZ 0052a7a0 f i imgui.obj
 0001:001297f0       ??1?$ImVector@UImDrawCmd@@@@QAE@XZ 0052a7f0 f i imgui.obj
 0001:00129840       ??1?$ImVector@UImDrawVert@@@@QAE@XZ 0052a840 f i imgui.obj
 0001:00129890       ??1?$ImVector@UImGuiColMod@@@@QAE@XZ 0052a890 f i imgui.obj
 0001:001298e0       ??1?$ImVector@UImGuiColumnData@@@@QAE@XZ 0052a8e0 f i imgui.obj
 0001:00129930       ??1?$ImVector@UImGuiColumnsSet@@@@QAE@XZ 0052a930 f i imgui.obj
 0001:00129980       ??1?$ImVector@UImGuiPopupRef@@@@QAE@XZ 0052a980 f i imgui.obj
 0001:001299d0       ??1?$ImVector@UImGuiSettingsHandler@@@@QAE@XZ 0052a9d0 f i imgui.obj
 0001:00129a20       ??1?$ImVector@UImGuiStyleMod@@@@QAE@XZ 0052aa20 f i imgui.obj
 0001:00129a70       ??1?$ImVector@UImGuiWindowSettings@@@@QAE@XZ 0052aa70 f i imgui.obj
 0001:00129ac0       ??1?$ImVector@UImVec2@@@@QAE@XZ 0052aac0 f i imgui.obj
 0001:00129b10       ??1?$ImVector@UImVec4@@@@QAE@XZ 0052ab10 f i imgui.obj
 0001:00129b60       ??1?$ImVector@UTextRange@ImGuiTextFilter@@@@QAE@XZ 0052ab60 f i imgui.obj
 0001:00129bb0       ??1ImDrawData@@QAE@XZ      0052abb0 f i imgui.obj
 0001:00129c20       ??1ImDrawDataBuilder@@QAE@XZ 0052ac20 f i imgui.obj
 0001:00129c70       ??1ImDrawList@@QAE@XZ      0052ac70 f i imgui.obj
 0001:00129e00       ??1ImGuiColumnsSet@@QAE@XZ 0052ae00 f i imgui.obj
 0001:00129e70       ??1ImGuiContext@@QAE@XZ    0052ae70 f i imgui.obj
 0001:0012a250       ??1ImGuiListClipper@@QAE@XZ 0052b250 f i imgui.obj
 0001:0012a280       ??1ImGuiStorage@@QAE@XZ    0052b280 f i imgui.obj
 0001:0012a2f0       ??1ImGuiTextBuffer@@QAE@XZ 0052b2f0 f i imgui.obj
 0001:0012a360       ??1ImGuiTextEditState@@QAE@XZ 0052b360 f i imgui.obj
 0001:0012a430       ??1ImGuiWindowTempData@@QAE@XZ 0052b430 f i imgui.obj
 0001:0012a560       ??3@YAXPAXUImNewDummy@@0@Z 0052b560 f i imgui.obj
 0001:0012a570       ?Add@ImRect@@QAEXABU1@@Z   0052b570 f i imgui.obj
 0001:0012a5f0       ?Add@ImRect@@QAEXABUImVec2@@@Z 0052b5f0 f i imgui.obj
 0001:0012a670       ?Backup@ImGuiItemHoveredDataBackup@@QAEXXZ 0052b670 f i imgui.obj
 0001:0012a700       ?Clear@ImDrawData@@QAEXXZ  0052b700 f i imgui.obj
 0001:0012a770       ?Clear@ImGuiColumnsSet@@QAEXXZ 0052b770 f i imgui.obj
 0001:0012a840       ?Clear@ImGuiNavMoveResult@@QAEXXZ 0052b840 f i imgui.obj
 0001:0012a900       ?Clear@ImGuiNextWindowData@@QAEXXZ 0052b900 f i imgui.obj
 0001:0012a950       ?Clear@ImGuiPayload@@QAEXXZ 0052b950 f i imgui.obj
 0001:0012a9c0       ?Clear@ImGuiStorage@@QAEXXZ 0052b9c0 f i imgui.obj
 0001:0012aa10       ?ClearFreeMemory@ImDrawDataBuilder@@QAEXXZ 0052ba10 f i imgui.obj
 0001:0012aa80       ?ClipWith@ImRect@@QAEXABU1@@Z 0052ba80 f i imgui.obj
 0001:0012aba0       ?ClipWithFull@ImRect@@QAEXABU1@@Z 0052bba0 f i imgui.obj
 0001:0012ac10       ?Contains@ImRect@@QBE_NABU1@@Z 0052bc10 f i imgui.obj
 0001:0012ac80       ?Contains@ImRect@@QBE_NABUImVec2@@@Z 0052bc80 f i imgui.obj
 0001:0012acf0       ?CursorClamp@ImGuiTextEditState@@QAEXXZ 0052bcf0 f i imgui.obj
 0001:0012ad90       ?Expand@ImRect@@QAEXABUImVec2@@@Z 0052bd90 f i imgui.obj
 0001:0012ae00       ?Expand@ImRect@@QAEXM@Z    0052be00 f i imgui.obj
 0001:0012ae60       ?Floor@ImRect@@QAEXXZ      0052be60 f i imgui.obj
 0001:0012aec0       ?GetCenter@ImRect@@QBE?AUImVec2@@XZ 0052bec0 f i imgui.obj
 0001:0012af30       ?GetCharAdvance@ImFont@@QBEMG@Z 0052bf30 f i imgui.obj
 0001:0012afb0       ?GetDefaultFont@ImGui@@YAPAUImFont@@XZ 0052bfb0 f i imgui.obj
 0001:0012b020       ?GetSize@ImRect@@QBE?AUImVec2@@XZ 0052c020 f i imgui.obj
 0001:0012b080       ?MenuBarHeight@ImGuiWindow@@QBEMXZ 0052c080 f i imgui.obj
 0001:0012b0f0       ?MenuBarRect@ImGuiWindow@@QBE?AUImRect@@XZ 0052c0f0 f i imgui.obj
 0001:0012c270       ?Overlaps@ImRect@@QBE_NABU1@@Z 0052d270 f i imgui.obj
 0001:0012c310       ?PrimVtx@ImDrawList@@QAEXABUImVec2@@0I@Z 0052d310 f i imgui.obj
 0001:0012c3a0       ?Rect@ImGuiWindow@@QBE?AUImRect@@XZ 0052d3a0 f i imgui.obj
 0001:0012c440       ?Restore@ImGuiItemHoveredDataBackup@@QBEXXZ 0052d440 f i imgui.obj
 0001:0012c4d0       ?SelectAll@ImGuiTextEditState@@QAEXXZ 0052d4d0 f i imgui.obj
 0001:0012c510       ?TitleBarHeight@ImGuiWindow@@QBEMXZ 0052d510 f i imgui.obj
 0001:0012c570       ?TitleBarRect@ImGuiWindow@@QBE?AUImRect@@XZ 0052d570 f i imgui.obj
 0001:0012c5f0       ?Translate@ImRect@@QAEXABUImVec2@@@Z 0052d5f0 f i imgui.obj
 0001:0012c660       ?back@?$ImVector@H@@QAEAAHXZ 0052d660 f i imgui.obj
 0001:0012c6a0       ?back@?$ImVector@I@@QAEAAIXZ 0052d6a0 f i imgui.obj
 0001:0012c6e0       ?back@?$ImVector@M@@QAEAAMXZ 0052d6e0 f i imgui.obj
 0001:0012c720       ?back@?$ImVector@PAUImFont@@@@QAEAAPAUImFont@@XZ 0052d720 f i imgui.obj
 0001:0012c760       ?back@?$ImVector@PAUImGuiWindow@@@@QAEAAPAUImGuiWindow@@XZ 0052d760 f i imgui.obj
 0001:0012c7a0       ?back@?$ImVector@UImDrawCmd@@@@QAEAAUImDrawCmd@@XZ 0052d7a0 f i imgui.obj
 0001:0012c7e0       ?back@?$ImVector@UImGuiColMod@@@@QAEAAUImGuiColMod@@XZ 0052d7e0 f i imgui.obj
 0001:0012c820       ?back@?$ImVector@UImGuiColumnsSet@@@@QAEAAUImGuiColumnsSet@@XZ 0052d820 f i imgui.obj
 0001:0012c860       ?back@?$ImVector@UImGuiGroupData@@@@QAEAAUImGuiGroupData@@XZ 0052d860 f i imgui.obj
 0001:0012c8a0       ?back@?$ImVector@UImGuiPopupRef@@@@QAEAAUImGuiPopupRef@@XZ 0052d8a0 f i imgui.obj
 0001:0012c8e0       ?back@?$ImVector@UImGuiStyleMod@@@@QAEAAUImGuiStyleMod@@XZ 0052d8e0 f i imgui.obj
 0001:0012c920       ?back@?$ImVector@UImGuiWindowSettings@@@@QAEAAUImGuiWindowSettings@@XZ 0052d920 f i imgui.obj
 0001:0012c960       ?back@?$ImVector@UImVec4@@@@QAEAAUImVec4@@XZ 0052d960 f i imgui.obj
 0001:0012c9a0       ?begin@ImGuiTextBuffer@@QBEPBDXZ 0052d9a0 f i imgui.obj
 0001:0012c9f0       ?clear@ImGuiTextBuffer@@QAEXXZ 0052d9f0 f i imgui.obj
 0001:0012ca50       ?erase@?$ImVector@PAUImGuiWindow@@@@QAEPAPAUImGuiWindow@@PBQAU2@@Z 0052da50 f i imgui.obj
 0001:0012caf0       ?index_from_pointer@?$ImVector@UImGuiWindowSettings@@@@QBEHPBUImGuiWindowSettings@@@Z 0052daf0 f i imgui.obj
 0001:0012cb50       ?insert@?$ImVector@PAUImGuiWindow@@@@QAEPAPAUImGuiWindow@@PBQAU2@ABQAU2@@Z 0052db50 f i imgui.obj
 0001:0012cc70       ?insert@?$ImVector@UImGuiSettingsHandler@@@@QAEPAUImGuiSettingsHandler@@PBU2@ABU2@@Z 0052dc70 f i imgui.obj
 0001:0012cdb0       ?insert@?$ImVector@UPair@ImGuiStorage@@@@QAEPAUPair@ImGuiStorage@@PBU23@ABU23@@Z 0052ddb0 f i imgui.obj
 0001:0012cee0       ?push_back@?$ImVector@D@@QAEXABD@Z 0052dee0 f i imgui.obj
 0001:0012cf80       ?push_back@?$ImVector@H@@QAEXABH@Z 0052df80 f i imgui.obj
 0001:0012d020       ?push_back@?$ImVector@I@@QAEXABI@Z 0052e020 f i imgui.obj
 0001:0012d0c0       ?push_back@?$ImVector@M@@QAEXABM@Z 0052e0c0 f i imgui.obj
 0001:0012d160       ?push_back@?$ImVector@PAUImDrawList@@@@QAEXABQAUImDrawList@@@Z 0052e160 f i imgui.obj
 0001:0012d200       ?push_back@?$ImVector@PAUImFont@@@@QAEXABQAUImFont@@@Z 0052e200 f i imgui.obj
 0001:0012d2a0       ?push_back@?$ImVector@PAUImGuiWindow@@@@QAEXABQAUImGuiWindow@@@Z 0052e2a0 f i imgui.obj
 0001:0012d340       ?push_back@?$ImVector@UImGuiColMod@@@@QAEXABUImGuiColMod@@@Z 0052e340 f i imgui.obj
 0001:0012d3f0       ?push_back@?$ImVector@UImGuiColumnData@@@@QAEXABUImGuiColumnData@@@Z 0052e3f0 f i imgui.obj
 0001:0012d490       ?push_back@?$ImVector@UImGuiColumnsSet@@@@QAEXABUImGuiColumnsSet@@@Z 0052e490 f i imgui.obj
 0001:0012d530       ?push_back@?$ImVector@UImGuiPopupRef@@@@QAEXABUImGuiPopupRef@@@Z 0052e530 f i imgui.obj
 0001:0012d5d0       ?push_back@?$ImVector@UImGuiSettingsHandler@@@@QAEXABUImGuiSettingsHandler@@@Z 0052e5d0 f i imgui.obj
 0001:0012d690       ?push_back@?$ImVector@UImGuiStyleMod@@@@QAEXABUImGuiStyleMod@@@Z 0052e690 f i imgui.obj
 0001:0012d740       ?push_back@?$ImVector@UImGuiWindowSettings@@@@QAEXABUImGuiWindowSettings@@@Z 0052e740 f i imgui.obj
 0001:0012d7e0       ?push_back@?$ImVector@UImVec2@@@@QAEXABUImVec2@@@Z 0052e7e0 f i imgui.obj
 0001:0012d880       ?push_back@?$ImVector@UTextRange@ImGuiTextFilter@@@@QAEXABUTextRange@ImGuiTextFilter@@@Z 0052e880 f i imgui.obj
 0001:0012d920       ?reserve@?$ImVector@D@@QAEXH@Z 0052e920 f i imgui.obj
 0001:0012d990       ?reserve@?$ImVector@E@@QAEXH@Z 0052e990 f i imgui.obj
 0001:0012da00       ?reserve@?$ImVector@G@@QAEXH@Z 0052ea00 f i imgui.obj
 0001:0012da80       ?reserve@?$ImVector@H@@QAEXH@Z 0052ea80 f i imgui.obj
 0001:0012db00       ?reserve@?$ImVector@I@@QAEXH@Z 0052eb00 f i imgui.obj
 0001:0012db80       ?reserve@?$ImVector@M@@QAEXH@Z 0052eb80 f i imgui.obj
 0001:0012dc00       ?reserve@?$ImVector@PAUImDrawList@@@@QAEXH@Z 0052ec00 f i imgui.obj
 0001:0012dc80       ?reserve@?$ImVector@PAUImFont@@@@QAEXH@Z 0052ec80 f i imgui.obj
 0001:0012dd00       ?reserve@?$ImVector@PAUImGuiWindow@@@@QAEXH@Z 0052ed00 f i imgui.obj
 0001:0012dd80       ?reserve@?$ImVector@UImGuiColMod@@@@QAEXH@Z 0052ed80 f i imgui.obj
 0001:0012ddf0       ?reserve@?$ImVector@UImGuiColumnData@@@@QAEXH@Z 0052edf0 f i imgui.obj
 0001:0012de60       ?reserve@?$ImVector@UImGuiColumnsSet@@@@QAEXH@Z 0052ee60 f i imgui.obj
 0001:0012ded0       ?reserve@?$ImVector@UImGuiGroupData@@@@QAEXH@Z 0052eed0 f i imgui.obj
 0001:0012df40       ?reserve@?$ImVector@UImGuiPopupRef@@@@QAEXH@Z 0052ef40 f i imgui.obj
 0001:0012dfb0       ?reserve@?$ImVector@UImGuiSettingsHandler@@@@QAEXH@Z 0052efb0 f i imgui.obj
 0001:0012e020       ?reserve@?$ImVector@UImGuiStyleMod@@@@QAEXH@Z 0052f020 f i imgui.obj
 0001:0012e090       ?reserve@?$ImVector@UImGuiWindowSettings@@@@QAEXH@Z 0052f090 f i imgui.obj
 0001:0012e100       ?reserve@?$ImVector@UImVec2@@@@QAEXH@Z 0052f100 f i imgui.obj
 0001:0012e180       ?reserve@?$ImVector@UPair@ImGuiStorage@@@@QAEXH@Z 0052f180 f i imgui.obj
 0001:0012e200       ?reserve@?$ImVector@UTextRange@ImGuiTextFilter@@@@QAEXH@Z 0052f200 f i imgui.obj
 0001:0012e280       ?resize@?$ImVector@D@@QAEXH@Z 0052f280 f i imgui.obj
 0001:0012e2f0       ?resize@?$ImVector@E@@QAEXH@Z 0052f2f0 f i imgui.obj
 0001:0012e360       ?resize@?$ImVector@G@@QAEXH@Z 0052f360 f i imgui.obj
 0001:0012e3d0       ?resize@?$ImVector@H@@QAEXH@Z 0052f3d0 f i imgui.obj
 0001:0012e440       ?resize@?$ImVector@I@@QAEXH@Z 0052f440 f i imgui.obj
 0001:0012e4b0       ?resize@?$ImVector@M@@QAEXH@Z 0052f4b0 f i imgui.obj
 0001:0012e520       ?resize@?$ImVector@PAUImDrawList@@@@QAEXH@Z 0052f520 f i imgui.obj
 0001:0012e590       ?resize@?$ImVector@PAUImGuiWindow@@@@QAEXH@Z 0052f590 f i imgui.obj
 0001:0012e600       ?resize@?$ImVector@UImGuiColumnData@@@@QAEXH@Z 0052f600 f i imgui.obj
 0001:0012e670       ?resize@?$ImVector@UImGuiGroupData@@@@QAEXH@Z 0052f670 f i imgui.obj
 0001:0012e6e0       ?resize@?$ImVector@UImGuiPopupRef@@@@QAEXH@Z 0052f6e0 f i imgui.obj
 0001:0012e750       ?resize@?$ImVector@UImVec2@@@@QAEXH@Z 0052f750 f i imgui.obj
 0001:0012e7c0       ?resize@?$ImVector@UTextRange@ImGuiTextFilter@@@@QAEXH@Z 0052f7c0 f i imgui.obj
 0001:0012e830       ?swap@?$ImVector@PAUImGuiWindow@@@@QAEXAAV1@@Z 0052f830 f i imgui.obj
 0001:0012e8a0       ??0ImGuiFileDialog@@QAE@XZ 0052f8a0 f   ImGuiFileDialog.obj
 0001:0012e940       ??1ImGuiFileDialog@@QAE@XZ 0052f940 f   ImGuiFileDialog.obj
 0001:0012ea50       ?FileDialog@ImGuiFileDialog@@QAE_NPBD0V?$basic_string@DU?$char_traits@D@std@@V?$allocator@D@2@@std@@1@Z 0052fa50 f   ImGuiFileDialog.obj
 0001:0012fd40       ?GetFilepathName@ImGuiFileDialog@@QAE?AV?$basic_string@DU?$char_traits@D@std@@V?$allocator@D@2@@std@@XZ 00530d40 f   ImGuiFileDialog.obj
 0001:0012fed0       ?GetCurrentPath@ImGuiFileDialog@@QAE?AV?$basic_string@DU?$char_traits@D@std@@V?$allocator@D@2@@std@@XZ 00530ed0 f   ImGuiFileDialog.obj
 0001:0012ff10       ?GetCurrentFileName@ImGuiFileDialog@@QAE?AV?$basic_string@DU?$char_traits@D@std@@V?$allocator@D@2@@std@@XZ 00530f10 f   ImGuiFileDialog.obj
 0001:0012ff40       ?GetCurrentFilter@ImGuiFileDialog@@QAE?AV?$basic_string@DU?$char_traits@D@std@@V?$allocator@D@2@@std@@XZ 00530f40 f   ImGuiFileDialog.obj
 0001:0012ff80       ?ScanDir@ImGuiFileDialog@@AAEXV?$basic_string@DU?$char_traits@D@std@@V?$allocator@D@2@@std@@@Z 00530f80 f   ImGuiFileDialog.obj
 0001:00130770       ?SetCurrentDir@ImGuiFileDialog@@AAEXV?$basic_string@DU?$char_traits@D@std@@V?$allocator@D@2@@std@@@Z 00531770 f   ImGuiFileDialog.obj
 0001:00130b00       ?ComposeNewPath@ImGuiFileDialog@@AAEXV?$_Vector_iterator@V?$_Vector_val@U?$_Simple_types@V?$basic_string@DU?$char_traits@D@std@@V?$allocator@D@2@@std@@@std@@@std@@@std@@@Z 00531b00 f   ImGuiFileDialog.obj
 0001:00131940       ??$?0ABV?$allocator@D@std@@X@?$_String_alloc@U?$_String_base_types@DV?$allocator@D@std@@@std@@@std@@QAE@ABV?$allocator@D@1@@Z 00532940 f i ImGuiFileDialog.obj
 0001:001319d0       ??$?0V?$_String_iterator@V?$_String_val@U?$_Simple_types@_W@std@@@std@@@std@@X@?$basic_string@DU?$char_traits@D@std@@V?$allocator@D@2@@std@@QAE@V?$_String_iterator@V?$_String_val@U?$_Simple_types@_W@std@@@std@@@1@0ABV?$allocator@D@1@@Z 005329d0 f i ImGuiFileDialog.obj
 0001:00131b80       ??$?0V?$allocator@V?$basic_string@DU?$char_traits@D@std@@V?$allocator@D@2@@std@@@std@@X@?$_Vector_alloc@U?$_Vec_base_types@V?$basic_string@DU?$char_traits@D@std@@V?$allocator@D@2@@std@@V?$allocator@V?$basic_string@DU?$char_traits@D@std@@V?$allocator@D@2@@std@@@2@@std@@@std@@QAE@$$QAV?$allocator@V?$basic_string@DU?$char_traits@D@std@@V?$allocator@D@2@@std@@@1@@Z 00532b80 f i ImGuiFileDialog.obj
 0001:00131be0       ??$?HDU?$char_traits@D@std@@V?$allocator@D@1@@std@@YA?AV?$basic_string@DU?$char_traits@D@std@@V?$allocator@D@2@@0@ABV10@QBD@Z 00532be0 f i ImGuiFileDialog.obj
 0001:00131d20       ??$_Construct@PA_W@?$basic_string@DU?$char_traits@D@std@@V?$allocator@D@2@@std@@QAEXPA_WQA_WUinput_iterator_tag@1@@Z 00532d20 f i ImGuiFileDialog.obj
 0001:00131dc0       ??$_Debug_lt_pred@AAP6A_NUFileInfoStruct@@0@ZAAU1@AAU1@@std@@YA_NAAP6A_NUFileInfoStruct@@0@ZAAU1@2PB_WI@Z 00532dc0 f i ImGuiFileDialog.obj
 0001:00131ee0       ??$_Debug_range2@V?$_String_iterator@V?$_String_val@U?$_Simple_types@_W@std@@@std@@@std@@@std@@YAXV?$_String_iterator@V?$_String_val@U?$_Simple_types@_W@std@@@std@@@0@0PB_WIUrandom_access_iterator_tag@0@@Z 00532ee0 f i ImGuiFileDialog.obj
 0001:00131fd0       ??$_Debug_range2@V?$_Vector_iterator@V?$_Vector_val@U?$_Simple_types@UFileInfoStruct@@@std@@@std@@@std@@@std@@YAXV?$_Vector_iterator@V?$_Vector_val@U?$_Simple_types@UFileInfoStruct@@@std@@@std@@@0@0PB_WIUrandom_access_iterator_tag@0@@Z 00532fd0 f i ImGuiFileDialog.obj
 0001:001320c0       ??$_Debug_range@V?$_String_iterator@V?$_String_val@U?$_Simple_types@_W@std@@@std@@@std@@@std@@YAXV?$_String_iterator@V?$_String_val@U?$_Simple_types@_W@std@@@std@@@0@0PB_WI@Z 005330c0 f i ImGuiFileDialog.obj
 0001:001321d0       ??$_Debug_range@V?$_Vector_iterator@V?$_Vector_val@U?$_Simple_types@UFileInfoStruct@@@std@@@std@@@std@@@std@@YAXV?$_Vector_iterator@V?$_Vector_val@U?$_Simple_types@UFileInfoStruct@@@std@@@std@@@0@0PB_WI@Z 005331d0 f i ImGuiFileDialog.obj
 0001:001322e0       ??$_Emplace_back_with_unused_capacity@ABUFileInfoStruct@@@?$vector@UFileInfoStruct@@V?$allocator@UFileInfoStruct@@@std@@@std@@AAEXABUFileInfoStruct@@@Z 005332e0 f i ImGuiFileDialog.obj
 0001:001323c0       ??$_Emplace_back_with_unused_capacity@ABV?$basic_string@DU?$char_traits@D@std@@V?$allocator@D@2@@std@@@?$vector@V?$basic_string@DU?$char_traits@D@std@@V?$allocator@D@2@@std@@V?$allocator@V?$basic_string@DU?$char_traits@D@std@@V?$allocator@D@2@@std@@@2@@std@@AAEXABV?$basic_string@DU?$char_traits@D@std@@V?$allocator@D@2@@1@@Z 005333c0 f i ImGuiFileDialog.obj
 0001:001324a0       ??$_Emplace_back_with_unused_capacity@V?$basic_string@DU?$char_traits@D@std@@V?$allocator@D@2@@std@@@?$vector@V?$basic_string@DU?$char_traits@D@std@@V?$allocator@D@2@@std@@V?$allocator@V?$basic_string@DU?$char_traits@D@std@@V?$allocator@D@2@@std@@@2@@std@@AAEX$$QAV?$basic_string@DU?$char_traits@D@std@@V?$allocator@D@2@@1@@Z 005334a0 f i ImGuiFileDialog.obj
 0001:00132580       ??$_Emplace_reallocate@ABUFileInfoStruct@@@?$vector@UFileInfoStruct@@V?$allocator@UFileInfoStruct@@@std@@@std@@QAEPAUFileInfoStruct@@QAU2@ABU2@@Z 00533580 f i ImGuiFileDialog.obj
 0001:00132960       ??$_Emplace_reallocate@ABV?$basic_string@DU?$char_traits@D@std@@V?$allocator@D@2@@std@@@?$vector@V?$basic_string@DU?$char_traits@D@std@@V?$allocator@D@2@@std@@V?$allocator@V?$basic_string@DU?$char_traits@D@std@@V?$allocator@D@2@@std@@@2@@std@@QAEPAV?$basic_string@DU?$char_traits@D@std@@V?$allocator@D@2@@1@QAV21@ABV21@@Z 00533960 f i ImGuiFileDialog.obj
 0001:00132d70       ??$_Emplace_reallocate@V?$basic_string@DU?$char_traits@D@std@@V?$allocator@D@2@@std@@@?$vector@V?$basic_string@DU?$char_traits@D@std@@V?$allocator@D@2@@std@@V?$allocator@V?$basic_string@DU?$char_traits@D@std@@V?$allocator@D@2@@std@@@2@@std@@QAEPAV?$basic_string@DU?$char_traits@D@std@@V?$allocator@D@2@@1@QAV21@$$QAV21@@Z 00533d70 f i ImGuiFileDialog.obj
 0001:00133150       ??$_Guess_median_unchecked@PAUFileInfoStruct@@P6A_NU1@0@Z@std@@YAXPAUFileInfoStruct@@00P6A_NU1@1@Z@Z 00534150 f i ImGuiFileDialog.obj
 0001:00133230       ??$_Insertion_sort_unchecked@PAUFileInfoStruct@@P6A_NU1@0@Z@std@@YAPAUFileInfoStruct@@PAU1@QAU1@P6A_NU1@2@Z@Z 00534230 f i ImGuiFileDialog.obj
 0001:00133410       ??$_Make_heap_unchecked@PAUFileInfoStruct@@P6A_NU1@0@Z@std@@YAXPAUFileInfoStruct@@0P6A_NU1@1@Z@Z 00534410 f i ImGuiFileDialog.obj
 0001:001334d0       ??$_Med3_unchecked@PAUFileInfoStruct@@P6A_NU1@0@Z@std@@YAXPAUFileInfoStruct@@00P6A_NU1@1@Z@Z 005344d0 f i ImGuiFileDialog.obj
 0001:00133580       ??$_Partition_by_median_guess_unchecked@PAUFileInfoStruct@@P6A_NU1@0@Z@std@@YA?AU?$pair@PAUFileInfoStruct@@PAU1@@0@PAUFileInfoStruct@@0P6A_NU2@1@Z@Z 00534580 f i ImGuiFileDialog.obj
 0001:001339b0       ??$_Pop_heap_hole_by_index@PAUFileInfoStruct@@U1@P6A_NU1@0@Z@std@@YAXPAUFileInfoStruct@@HH$$QAU1@P6A_NU1@2@Z@Z 005349b0 f i ImGuiFileDialog.obj
 0001:00133ab0       ??$_Pop_heap_unchecked@PAUFileInfoStruct@@P6A_NU1@0@Z@std@@YAXPAUFileInfoStruct@@0P6A_NU1@1@Z@Z 00534ab0 f i ImGuiFileDialog.obj
 0001:00133b80       ??$_Push_heap_by_index@PAUFileInfoStruct@@U1@P6A_NU1@0@Z@std@@YAXPAUFileInfoStruct@@HH$$QAU1@P6A_NU1@2@Z@Z 00534b80 f i ImGuiFileDialog.obj
 0001:00134790       ??$_Sort_unchecked@PAUFileInfoStruct@@P6A_NU1@0@Z@std@@YAXPAUFileInfoStruct@@0HP6A_NU1@1@Z@Z 00535790 f i ImGuiFileDialog.obj
 0001:001348c0       ??$_Traits_find@U?$char_traits@D@std@@@std@@YAIQBDII0I@Z 005358c0 f i ImGuiFileDialog.obj
 0001:00134970       ??$_Traits_find_last_of@U?$char_traits@D@std@@@std@@YAIQBDII0IU?$integral_constant@_N$00@0@@Z 00535970 f i ImGuiFileDialog.obj
 0001:00134bc0       ??$_Uninitialized_move@PAUFileInfoStruct@@PAU1@V?$allocator@UFileInfoStruct@@@std@@@std@@YAPAUFileInfoStruct@@QAU1@0PAU1@AAV?$allocator@UFileInfoStruct@@@0@@Z 00535bc0 f i ImGuiFileDialog.obj
 0001:00134c20       ??$_Uninitialized_move@PAV?$basic_string@DU?$char_traits@D@std@@V?$allocator@D@2@@std@@PAV12@V?$allocator@V?$basic_string@DU?$char_traits@D@std@@V?$allocator@D@2@@std@@@2@@std@@YAPAV?$basic_string@DU?$char_traits@D@std@@V?$allocator@D@2@@0@QAV10@0PAV10@AAV?$allocator@V?$basic_string@DU?$char_traits@D@std@@V?$allocator@D@2@@std@@@0@@Z 00535c20 f i ImGuiFileDialog.obj
 0001:00134c80       ??$_Uninitialized_move_al_unchecked@PAUFileInfoStruct@@PAU1@V?$allocator@UFileInfoStruct@@@std@@@std@@YAPAUFileInfoStruct@@PAU1@QAU1@1AAV?$allocator@UFileInfoStruct@@@0@U_General_ptr_iterator_tag@0@U_Unused_parameter@0@@Z 00535c80 f i ImGuiFileDialog.obj
 0001:00134d10       ??$_Uninitialized_move_al_unchecked@PAV?$basic_string@DU?$char_traits@D@std@@V?$allocator@D@2@@std@@PAV12@V?$allocator@V?$basic_string@DU?$char_traits@D@std@@V?$allocator@D@2@@std@@@2@@std@@YAPAV?$basic_string@DU?$char_traits@D@std@@V?$allocator@D@2@@0@PAV10@QAV10@1AAV?$allocator@V?$basic_string@DU?$char_traits@D@std@@V?$allocator@D@2@@std@@@0@U_General_ptr_iterator_tag@0@U_Unused_parameter@0@@Z 00535d10 f i ImGuiFileDialog.obj
 0001:00134da0       ??$emplace_back@ABUFileInfoStruct@@@?$vector@UFileInfoStruct@@V?$allocator@UFileInfoStruct@@@std@@@std@@QAEXABUFileInfoStruct@@@Z 00535da0 f i ImGuiFileDialog.obj
 0001:00134e10       ??$emplace_back@ABV?$basic_string@DU?$char_traits@D@std@@V?$allocator@D@2@@std@@@?$vector@V?$basic_string@DU?$char_traits@D@std@@V?$allocator@D@2@@std@@V?$allocator@V?$basic_string@DU?$char_traits@D@std@@V?$allocator@D@2@@std@@@2@@std@@QAEXABV?$basic_string@DU?$char_traits@D@std@@V?$allocator@D@2@@1@@Z 00535e10 f i ImGuiFileDialog.obj
 0001:00134e80       ??$emplace_back@V?$basic_string@DU?$char_traits@D@std@@V?$allocator@D@2@@std@@@?$vector@V?$basic_string@DU?$char_traits@D@std@@V?$allocator@D@2@@std@@V?$allocator@V?$basic_string@DU?$char_traits@D@std@@V?$allocator@D@2@@std@@@2@@std@@QAEX$$QAV?$basic_string@DU?$char_traits@D@std@@V?$allocator@D@2@@1@@Z 00535e80 f i ImGuiFileDialog.obj
 0001:00134ef0       ??$sort@V?$_Vector_iterator@V?$_Vector_val@U?$_Simple_types@UFileInfoStruct@@@std@@@std@@@std@@P6A_NUFileInfoStruct@@0@Z@std@@YAXV?$_Vector_iterator@V?$_Vector_val@U?$_Simple_types@UFileInfoStruct@@@std@@@std@@@0@0P6A_NUFileInfoStruct@@1@Z@Z 00535ef0 f i ImGuiFileDialog.obj
 0001:00135030       ??$swap@UFileInfoStruct@@X@std@@YAXAAUFileInfoStruct@@0@Z 00536030 f i ImGuiFileDialog.obj
 0001:00135090       ??0?$_String_alloc@U?$_String_base_types@_WV?$allocator@_W@std@@@std@@@std@@QAE@XZ 00536090 f i ImGuiFileDialog.obj
 0001:00135110       ??0?$_Vector_alloc@U?$_Vec_base_types@UFileInfoStruct@@V?$allocator@UFileInfoStruct@@@std@@@std@@@std@@QAE@XZ 00536110 f i ImGuiFileDialog.obj
 0001:00135160       ??0?$_Vector_alloc@U?$_Vec_base_types@V?$basic_string@DU?$char_traits@D@std@@V?$allocator@D@2@@std@@V?$allocator@V?$basic_string@DU?$char_traits@D@std@@V?$allocator@D@2@@std@@@2@@std@@@std@@QAE@XZ 00536160 f i ImGuiFileDialog.obj
 0001:001351b0       ??0?$_Vector_const_iterator@V?$_Vector_val@U?$_Simple_types@V?$basic_string@DU?$char_traits@D@std@@V?$allocator@D@2@@std@@@std@@@std@@@std@@QAE@$$QAV01@@Z 005361b0 f i ImGuiFileDialog.obj
 0001:001351f0       ??0?$_Vector_const_iterator@V?$_Vector_val@U?$_Simple_types@V?$basic_string@DU?$char_traits@D@std@@V?$allocator@D@2@@std@@@std@@@std@@@std@@QAE@ABV01@@Z 005361f0 f i ImGuiFileDialog.obj
 0001:00135230       ??0?$basic_string@DU?$char_traits@D@std@@V?$allocator@D@2@@std@@QAE@ABV01@IIABV?$allocator@D@1@@Z 00536230 f i ImGuiFileDialog.obj
 0001:00135310       ??0?$basic_string@_WU?$char_traits@_W@std@@V?$allocator@_W@2@@std@@QAE@QB_W@Z 00536310 f i ImGuiFileDialog.obj
 0001:001353f0       ??0?$vector@V?$basic_string@DU?$char_traits@D@std@@V?$allocator@D@2@@std@@V?$allocator@V?$basic_string@DU?$char_traits@D@std@@V?$allocator@D@2@@std@@@2@@std@@QAE@$$QAV01@@Z 005363f0 f i ImGuiFileDialog.obj
 0001:00135470       ??0FileInfoStruct@@QAE@$$QAU0@@Z 00536470 f i ImGuiFileDialog.obj
 0001:001354c0       ??0FileInfoStruct@@QAE@ABU0@@Z 005364c0 f i ImGuiFileDialog.obj
 0001:00135550       ??1?$_Compressed_pair@V?$allocator@_W@std@@V?$_String_val@U?$_Simple_types@_W@std@@@2@$00@std@@QAE@XZ 00536550 f i ImGuiFileDialog.obj
 0001:00135560       ??1?$_String_alloc@U?$_String_base_types@_WV?$allocator@_W@std@@@std@@@std@@QAE@XZ 00536560 f i ImGuiFileDialog.obj
 0001:001355a0       ??1?$_String_iterator@V?$_String_val@U?$_Simple_types@_W@std@@@std@@@std@@QAE@XZ 005365a0 f i ImGuiFileDialog.obj
 0001:00135610       ??1?$_Uninitialized_backout_al@PAUFileInfoStruct@@V?$allocator@UFileInfoStruct@@@std@@@std@@QAE@XZ 00536610 f i ImGuiFileDialog.obj
 0001:00135670       ??1?$_Uninitialized_backout_al@PAV?$basic_string@DU?$char_traits@D@std@@V?$allocator@D@2@@std@@V?$allocator@V?$basic_string@DU?$char_traits@D@std@@V?$allocator@D@2@@std@@@2@@std@@QAE@XZ 00536670 f i ImGuiFileDialog.obj
 0001:00135720       ??1?$_Vector_const_iterator@V?$_Vector_val@U?$_Simple_types@V?$basic_string@DU?$char_traits@D@std@@V?$allocator@D@2@@std@@@std@@@std@@@std@@QAE@XZ 00536720 f i ImGuiFileDialog.obj
 0001:00135790       ??1?$_Vector_iterator@V?$_Vector_val@U?$_Simple_types@UFileInfoStruct@@@std@@@std@@@std@@QAE@XZ 00536790 f i ImGuiFileDialog.obj
 0001:00135800       ??1?$_Vector_iterator@V?$_Vector_val@U?$_Simple_types@V?$basic_string@DU?$char_traits@D@std@@V?$allocator@D@2@@std@@@std@@@std@@@std@@QAE@XZ 00536800 f i ImGuiFileDialog.obj
 0001:00135870       ??1?$basic_string@_WU?$char_traits@_W@std@@V?$allocator@_W@2@@std@@QAE@XZ 00536870 f i ImGuiFileDialog.obj
 0001:001358d0       ??1?$vector@V?$basic_string@DU?$char_traits@D@std@@V?$allocator@D@2@@std@@V?$allocator@V?$basic_string@DU?$char_traits@D@std@@V?$allocator@D@2@@std@@@2@@std@@QAE@XZ 005368d0 f i ImGuiFileDialog.obj
 0001:00135930       ??1FileInfoStruct@@QAE@XZ  00536930 f i ImGuiFileDialog.obj
 0001:001359f0       ??4?$vector@V?$basic_string@DU?$char_traits@D@std@@V?$allocator@D@2@@std@@V?$allocator@V?$basic_string@DU?$char_traits@D@std@@V?$allocator@D@2@@std@@@2@@std@@QAEAAV01@$$QAV01@@Z 005369f0 f i ImGuiFileDialog.obj
 0001:00135a90       ??4FileInfoStruct@@QAEAAU0@$$QAU0@@Z 00536a90 f i ImGuiFileDialog.obj
 0001:00135ae0       ??A?$vector@V?$basic_string@DU?$char_traits@D@std@@V?$allocator@D@2@@std@@V?$allocator@V?$basic_string@DU?$char_traits@D@std@@V?$allocator@D@2@@std@@@2@@std@@QAEAAV?$basic_string@DU?$char_traits@D@std@@V?$allocator@D@2@@1@I@Z 00536ae0 f i ImGuiFileDialog.obj
 0001:00135b50       ??D?$_Vector_const_iterator@V?$_Vector_val@U?$_Simple_types@UFileInfoStruct@@@std@@@std@@@std@@QBEABUFileInfoStruct@@XZ 00536b50 f i ImGuiFileDialog.obj
 0001:00135be0       ??D?$_Vector_const_iterator@V?$_Vector_val@U?$_Simple_types@V?$basic_string@DU?$char_traits@D@std@@V?$allocator@D@2@@std@@@std@@@std@@@std@@QBEABV?$basic_string@DU?$char_traits@D@std@@V?$allocator@D@2@@1@XZ 00536be0 f i ImGuiFileDialog.obj
 0001:00135c70       ??E?$_Vector_const_iterator@V?$_Vector_val@U?$_Simple_types@UFileInfoStruct@@@std@@@std@@@std@@QAEAAV01@XZ 00536c70 f i ImGuiFileDialog.obj
 0001:00135d00       ??E?$_Vector_const_iterator@V?$_Vector_val@U?$_Simple_types@V?$basic_string@DU?$char_traits@D@std@@V?$allocator@D@2@@std@@@std@@@std@@@std@@QAEAAV01@XZ 00536d00 f i ImGuiFileDialog.obj
 0001:00135d90       ??F?$_Vector_const_iterator@V?$_Vector_val@U?$_Simple_types@V?$basic_string@DU?$char_traits@D@std@@V?$allocator@D@2@@std@@@std@@@std@@@std@@QAEAAV01@XZ 00536d90 f i ImGuiFileDialog.obj
 0001:00135e20       ??F?$_Vector_iterator@V?$_Vector_val@U?$_Simple_types@V?$basic_string@DU?$char_traits@D@std@@V?$allocator@D@2@@std@@@std@@@std@@@std@@QAE?AV01@H@Z 00536e20 f i ImGuiFileDialog.obj
 0001:00135f00       ??G?$_Vector_iterator@V?$_Vector_val@U?$_Simple_types@V?$basic_string@DU?$char_traits@D@std@@V?$allocator@D@2@@std@@@std@@@std@@@std@@QBE?AV01@H@Z 00536f00 f i ImGuiFileDialog.obj
 0001:00135fe0       ??Y?$_Vector_const_iterator@V?$_Vector_val@U?$_Simple_types@V?$basic_string@DU?$char_traits@D@std@@V?$allocator@D@2@@std@@@std@@@std@@@std@@QAEAAV01@H@Z 00536fe0 f i ImGuiFileDialog.obj
 0001:00136090       ?AppendToBuffer@@YAXPADHV?$basic_string@DU?$char_traits@D@std@@V?$allocator@D@2@@std@@@Z 00537090 f i ImGuiFileDialog.obj
 0001:00136430       ?ReplaceString@@YA_NAAV?$basic_string@DU?$char_traits@D@std@@V?$allocator@D@2@@std@@ABV12@1@Z 00537430 f i ImGuiFileDialog.obj
 0001:001364b0       ?_Alloc_proxy@?$_String_alloc@U?$_String_base_types@_WV?$allocator@_W@std@@@std@@@std@@QAEXXZ 005374b0 f i ImGuiFileDialog.obj
 0001:00136570       ?_Alloc_proxy@?$_Vector_alloc@U?$_Vec_base_types@UFileInfoStruct@@V?$allocator@UFileInfoStruct@@@std@@@std@@@std@@QAEXXZ 00537570 f i ImGuiFileDialog.obj
 0001:00136630       ?_Alloc_proxy@?$_Vector_alloc@U?$_Vec_base_types@V?$basic_string@DU?$char_traits@D@std@@V?$allocator@D@2@@std@@V?$allocator@V?$basic_string@DU?$char_traits@D@std@@V?$allocator@D@2@@std@@@2@@std@@@std@@QAEXXZ 00537630 f i ImGuiFileDialog.obj
 0001:001366f0       ?_Calculate_growth@?$basic_string@_WU?$char_traits@_W@std@@V?$allocator@_W@2@@std@@QBEII@Z 005376f0 f i ImGuiFileDialog.obj
 0001:00136780       ?_Calculate_growth@?$vector@UFileInfoStruct@@V?$allocator@UFileInfoStruct@@@std@@@std@@ABEII@Z 00537780 f i ImGuiFileDialog.obj
 0001:00136820       ?_Calculate_growth@?$vector@V?$basic_string@DU?$char_traits@D@std@@V?$allocator@D@2@@std@@V?$allocator@V?$basic_string@DU?$char_traits@D@std@@V?$allocator@D@2@@std@@@2@@std@@ABEII@Z 00537820 f i ImGuiFileDialog.obj
 0001:001368c0       ?_Change_array@?$vector@UFileInfoStruct@@V?$allocator@UFileInfoStruct@@@std@@@std@@AAEXQAUFileInfoStruct@@II@Z 005378c0 f i ImGuiFileDialog.obj
 0001:00136ac0       ?_Change_array@?$vector@V?$basic_string@DU?$char_traits@D@std@@V?$allocator@D@2@@std@@V?$allocator@V?$basic_string@DU?$char_traits@D@std@@V?$allocator@D@2@@std@@@2@@std@@AAEXQAV?$basic_string@DU?$char_traits@D@std@@V?$allocator@D@2@@2@II@Z 00537ac0 f i ImGuiFileDialog.obj
 0001:00136c60       ?_Compat@?$_String_const_iterator@V?$_String_val@U?$_Simple_types@_W@std@@@std@@@std@@QBEXABV12@@Z 00537c60 f i ImGuiFileDialog.obj
 0001:00136cf0       ?_Compat@?$_Vector_const_iterator@V?$_Vector_val@U?$_Simple_types@UFileInfoStruct@@@std@@@std@@@std@@QBEXABV12@@Z 00537cf0 f i ImGuiFileDialog.obj
 0001:00136d80       ?_Compat@?$_Vector_const_iterator@V?$_Vector_val@U?$_Simple_types@V?$basic_string@DU?$char_traits@D@std@@V?$allocator@D@2@@std@@@std@@@std@@@std@@QBEXABV12@@Z 00537d80 f i ImGuiFileDialog.obj
 0001:00136e10       ?_Destroy@?$vector@UFileInfoStruct@@V?$allocator@UFileInfoStruct@@@std@@@std@@AAEXPAUFileInfoStruct@@0@Z 00537e10 f i ImGuiFileDialog.obj
 0001:00136e70       ?_Destroy@?$vector@V?$basic_string@DU?$char_traits@D@std@@V?$allocator@D@2@@std@@V?$allocator@V?$basic_string@DU?$char_traits@D@std@@V?$allocator@D@2@@std@@@2@@std@@AAEXPAV?$basic_string@DU?$char_traits@D@std@@V?$allocator@D@2@@2@0@Z 00537e70 f i ImGuiFileDialog.obj
 0001:00136f10       ?_Equal@?$basic_string@DU?$char_traits@D@std@@V?$allocator@D@2@@std@@QBE_NABV12@@Z 00537f10 f i ImGuiFileDialog.obj
 0001:00137000       ?_Free_proxy@?$_String_alloc@U?$_String_base_types@_WV?$allocator@_W@std@@@std@@@std@@QAEXXZ 00538000 f i ImGuiFileDialog.obj
 0001:001370b0       ?_Free_proxy@?$_Vector_alloc@U?$_Vec_base_types@UFileInfoStruct@@V?$allocator@UFileInfoStruct@@@std@@@std@@@std@@QAEXXZ 005380b0 f i ImGuiFileDialog.obj
 0001:00137160       ?_Free_proxy@?$_Vector_alloc@U?$_Vec_base_types@V?$basic_string@DU?$char_traits@D@std@@V?$allocator@D@2@@std@@V?$allocator@V?$basic_string@DU?$char_traits@D@std@@V?$allocator@D@2@@std@@@2@@std@@@std@@QAEXXZ 00538160 f i ImGuiFileDialog.obj
 0001:00137210       ?_Has_unused_capacity@?$vector@UFileInfoStruct@@V?$allocator@UFileInfoStruct@@@std@@@std@@ABE_NXZ 00538210 f i ImGuiFileDialog.obj
 0001:00137270       ?_Has_unused_capacity@?$vector@V?$basic_string@DU?$char_traits@D@std@@V?$allocator@D@2@@std@@V?$allocator@V?$basic_string@DU?$char_traits@D@std@@V?$allocator@D@2@@std@@@2@@std@@ABE_NXZ 00538270 f i ImGuiFileDialog.obj
 0001:001372d0       ?_Move_alloc@?$_Vector_alloc@U?$_Vec_base_types@V?$basic_string@DU?$char_traits@D@std@@V?$allocator@D@2@@std@@V?$allocator@V?$basic_string@DU?$char_traits@D@std@@V?$allocator@D@2@@std@@@2@@std@@@std@@QAEXAAV?$allocator@V?$basic_string@DU?$char_traits@D@std@@V?$allocator@D@2@@std@@@2@@Z 005382d0 f i ImGuiFileDialog.obj
 0001:00137340       ?_Move_from@?$vector@V?$basic_string@DU?$char_traits@D@std@@V?$allocator@D@2@@std@@V?$allocator@V?$basic_string@DU?$char_traits@D@std@@V?$allocator@D@2@@std@@@2@@std@@AAEX$$QAV12@U?$integral_constant@_N$00@2@@Z 00538340 f i ImGuiFileDialog.obj
 0001:00137470       ?_Orphan_range@?$vector@UFileInfoStruct@@V?$allocator@UFileInfoStruct@@@std@@@std@@ABEXPAUFileInfoStruct@@0@Z 00538470 f i ImGuiFileDialog.obj
 0001:00137530       ?_Orphan_range@?$vector@V?$basic_string@DU?$char_traits@D@std@@V?$allocator@D@2@@std@@V?$allocator@V?$basic_string@DU?$char_traits@D@std@@V?$allocator@D@2@@std@@@2@@std@@ABEXPAV?$basic_string@DU?$char_traits@D@std@@V?$allocator@D@2@@2@0@Z 00538530 f i ImGuiFileDialog.obj
 0001:001375f0       ?_Tidy@?$vector@UFileInfoStruct@@V?$allocator@UFileInfoStruct@@@std@@@std@@AAEXXZ 005385f0 f i ImGuiFileDialog.obj
 0001:001377e0       ?_Tidy@?$vector@V?$basic_string@DU?$char_traits@D@std@@V?$allocator@D@2@@std@@V?$allocator@V?$basic_string@DU?$char_traits@D@std@@V?$allocator@D@2@@std@@@2@@std@@AAEXXZ 005387e0 f i ImGuiFileDialog.obj
 0001:00137970       ?_Tidy_deallocate@?$basic_string@_WU?$char_traits@_W@std@@V?$allocator@_W@2@@std@@QAEXXZ 00538970 f i ImGuiFileDialog.obj
 0001:00137a50       ?_Xlen@?$basic_string@_WU?$char_traits@_W@std@@V?$allocator@_W@2@@std@@SAXXZ 00538a50 f i ImGuiFileDialog.obj
 0001:00137a60       ?_Xlength@?$vector@UFileInfoStruct@@V?$allocator@UFileInfoStruct@@@std@@@std@@CAXXZ 00538a60 f i ImGuiFileDialog.obj
 0001:00137a70       ?_Xlength@?$vector@V?$basic_string@DU?$char_traits@D@std@@V?$allocator@D@2@@std@@V?$allocator@V?$basic_string@DU?$char_traits@D@std@@V?$allocator@D@2@@std@@@2@@std@@CAXXZ 00538a70 f i ImGuiFileDialog.obj
 0001:00137a80       ?allocate@?$allocator@UFileInfoStruct@@@std@@QAEPAUFileInfoStruct@@I@Z 00538a80 f i ImGuiFileDialog.obj
 0001:00137af0       ?allocate@?$allocator@V?$basic_string@DU?$char_traits@D@std@@V?$allocator@D@2@@std@@@std@@QAEPAV?$basic_string@DU?$char_traits@D@std@@V?$allocator@D@2@@2@I@Z 00538af0 f i ImGuiFileDialog.obj
 0001:00137b60       ?allocate@?$allocator@_W@std@@QAEPA_WI@Z 00538b60 f i ImGuiFileDialog.obj
 0001:00137bd0       ?assign@?$basic_string@DU?$char_traits@D@std@@V?$allocator@D@2@@std@@QAEAAV12@ABV12@II@Z 00538bd0 f i ImGuiFileDialog.obj
 0001:00137c80       ?assign@?$basic_string@_WU?$char_traits@_W@std@@V?$allocator@_W@2@@std@@QAEAAV12@QB_WI@Z 00538c80 f i ImGuiFileDialog.obj
 0001:00137d40       ?begin@?$basic_string@_WU?$char_traits@_W@std@@V?$allocator@_W@2@@std@@QAE?AV?$_String_iterator@V?$_String_val@U?$_Simple_types@_W@std@@@std@@@2@XZ 00538d40 f i ImGuiFileDialog.obj
 0001:00137dc0       ?begin@?$vector@UFileInfoStruct@@V?$allocator@UFileInfoStruct@@@std@@@std@@QAE?AV?$_Vector_iterator@V?$_Vector_val@U?$_Simple_types@UFileInfoStruct@@@std@@@std@@@2@XZ 00538dc0 f i ImGuiFileDialog.obj
 0001:00137e30       ?begin@?$vector@V?$basic_string@DU?$char_traits@D@std@@V?$allocator@D@2@@std@@V?$allocator@V?$basic_string@DU?$char_traits@D@std@@V?$allocator@D@2@@std@@@2@@std@@QAE?AV?$_Vector_iterator@V?$_Vector_val@U?$_Simple_types@V?$basic_string@DU?$char_traits@D@std@@V?$allocator@D@2@@std@@@std@@@std@@@2@XZ 00538e30 f i ImGuiFileDialog.obj
 0001:00137ea0       ?capacity@?$vector@UFileInfoStruct@@V?$allocator@UFileInfoStruct@@@std@@@std@@QBEIXZ 00538ea0 f i ImGuiFileDialog.obj
 0001:00137ef0       ?capacity@?$vector@V?$basic_string@DU?$char_traits@D@std@@V?$allocator@D@2@@std@@V?$allocator@V?$basic_string@DU?$char_traits@D@std@@V?$allocator@D@2@@std@@@2@@std@@QBEIXZ 00538ef0 f i ImGuiFileDialog.obj
 0001:00137f40       ?clear@?$vector@UFileInfoStruct@@V?$allocator@UFileInfoStruct@@@std@@@std@@QAEXXZ 00538f40 f i ImGuiFileDialog.obj
 0001:00138020       ?deallocate@?$allocator@UFileInfoStruct@@@std@@QAEXQAUFileInfoStruct@@I@Z 00539020 f i ImGuiFileDialog.obj
 0001:00138070       ?deallocate@?$allocator@V?$basic_string@DU?$char_traits@D@std@@V?$allocator@D@2@@std@@@std@@QAEXQAV?$basic_string@DU?$char_traits@D@std@@V?$allocator@D@2@@2@I@Z 00539070 f i ImGuiFileDialog.obj
 0001:001380c0       ?end@?$basic_string@_WU?$char_traits@_W@std@@V?$allocator@_W@2@@std@@QAE?AV?$_String_iterator@V?$_String_val@U?$_Simple_types@_W@std@@@std@@@2@XZ 005390c0 f i ImGuiFileDialog.obj
 0001:00138150       ?end@?$vector@UFileInfoStruct@@V?$allocator@UFileInfoStruct@@@std@@@std@@QAE?AV?$_Vector_iterator@V?$_Vector_val@U?$_Simple_types@UFileInfoStruct@@@std@@@std@@@2@XZ 00539150 f i ImGuiFileDialog.obj
 0001:001381c0       ?end@?$vector@V?$basic_string@DU?$char_traits@D@std@@V?$allocator@D@2@@std@@V?$allocator@V?$basic_string@DU?$char_traits@D@std@@V?$allocator@D@2@@std@@@2@@std@@QAE?AV?$_Vector_iterator@V?$_Vector_val@U?$_Simple_types@V?$basic_string@DU?$char_traits@D@std@@V?$allocator@D@2@@std@@@std@@@std@@@2@XZ 005391c0 f i ImGuiFileDialog.obj
 0001:00138230       ?erase@?$vector@V?$basic_string@DU?$char_traits@D@std@@V?$allocator@D@2@@std@@V?$allocator@V?$basic_string@DU?$char_traits@D@std@@V?$allocator@D@2@@std@@@2@@std@@QAE?AV?$_Vector_iterator@V?$_Vector_val@U?$_Simple_types@V?$basic_string@DU?$char_traits@D@std@@V?$allocator@D@2@@std@@@std@@@std@@@2@V?$_Vector_const_iterator@V?$_Vector_val@U?$_Simple_types@V?$basic_string@DU?$char_traits@D@std@@V?$allocator@D@2@@std@@@std@@@std@@@2@@Z 00539230 f i ImGuiFileDialog.obj
 0001:00138510       ?find@?$basic_string@DU?$char_traits@D@std@@V?$allocator@D@2@@std@@QBEIABV12@I@Z 00539510 f i ImGuiFileDialog.obj
 0001:001385c0       ?find@?$basic_string@DU?$char_traits@D@std@@V?$allocator@D@2@@std@@QBEIDI@Z 005395c0 f i ImGuiFileDialog.obj
 0001:00138670       ?find_last_of@?$basic_string@DU?$char_traits@D@std@@V?$allocator@D@2@@std@@QBEIQBDI@Z 00539670 f i ImGuiFileDialog.obj
 0001:00138720       ?max_size@?$basic_string@_WU?$char_traits@_W@std@@V?$allocator@_W@2@@std@@QBEIXZ 00539720 f i ImGuiFileDialog.obj
 0001:001387b0       ?push_back@?$basic_string@DU?$char_traits@D@std@@V?$allocator@D@2@@std@@QAEXD@Z 005397b0 f i ImGuiFileDialog.obj
 0001:00138860       ?replace@?$basic_string@DU?$char_traits@D@std@@V?$allocator@D@2@@std@@QAEAAV12@IIABV12@@Z 00539860 f i ImGuiFileDialog.obj
 0001:001388d0       ?replace@?$basic_string@DU?$char_traits@D@std@@V?$allocator@D@2@@std@@QAEAAV12@IIQBDI@Z 005398d0 f i ImGuiFileDialog.obj
 0001:00138b60       ?size@?$vector@V?$basic_string@DU?$char_traits@D@std@@V?$allocator@D@2@@std@@V?$allocator@V?$basic_string@DU?$char_traits@D@std@@V?$allocator@D@2@@std@@@2@@std@@QBEIXZ 00539b60 f i ImGuiFileDialog.obj
 0001:00138bb0       ?splitStringVector@@YA?AV?$vector@V?$basic_string@DU?$char_traits@D@std@@V?$allocator@D@2@@std@@V?$allocator@V?$basic_string@DU?$char_traits@D@std@@V?$allocator@D@2@@std@@@2@@std@@ABV?$basic_string@DU?$char_traits@D@std@@V?$allocator@D@2@@2@D@Z 00539bb0 f i ImGuiFileDialog.obj
 0001:00138d80       ?substr@?$basic_string@DU?$char_traits@D@std@@V?$allocator@D@2@@std@@QBE?AV12@II@Z 00539d80 f i ImGuiFileDialog.obj
 0001:00138de0       ?ShowDemoWindow@ImGui@@YAXPA_N@Z 00539de0 f   imgui_demo.obj
 0001:001438e0       ?ShowStyleEditor@ImGui@@YAXPAUImGuiStyle@@@Z 005448e0 f   imgui_demo.obj
 0001:001452f0       ?ShowStyleSelector@ImGui@@YA_NPBD@Z 005462f0 f   imgui_demo.obj
 0001:00145360       ?ShowFontSelector@ImGui@@YAXPBD@Z 00546360 f   imgui_demo.obj
 0001:00145540       ?ShowUserGuide@ImGui@@YAXXZ 00546540 f   imgui_demo.obj
 0001:001485f0       ??0ExampleAppConsole@@QAE@XZ 005495f0 f i imgui_demo.obj
 0001:00148760       ??0ExampleAppLog@@QAE@XZ   00549760 f i imgui_demo.obj
 0001:001487f0       ??1?$ImVector@PAD@@QAE@XZ  005497f0 f i imgui_demo.obj
 0001:00148840       ??1?$ImVector@PBD@@QAE@XZ  00549840 f i imgui_demo.obj
 0001:00148890       ??1ExampleAppConsole@@QAE@XZ 00549890 f i imgui_demo.obj
 0001:001489d0       ??1ExampleAppLog@@QAE@XZ   005499d0 f i imgui_demo.obj
 0001:00148aa0       ?AddLog@ExampleAppConsole@@QAAXPBDZZ 00549aa0 f i imgui_demo.obj
 0001:00148ba0       ?AddLog@ExampleAppLog@@QAAXPBDZZ 00549ba0 f i imgui_demo.obj
 0001:00148c30       ?Clear@ExampleAppLog@@QAEXXZ 00549c30 f i imgui_demo.obj
 0001:00148c90       ?ClearLog@ExampleAppConsole@@QAEXXZ 00549c90 f i imgui_demo.obj
 0001:00148d50       ?Draw@ExampleAppConsole@@QAEXPBDPA_N@Z 00549d50 f i imgui_demo.obj
 0001:001494d0       ?Draw@ExampleAppLog@@QAEXPBDPA_N@Z 0054a4d0 f i imgui_demo.obj
 0001:00149790       ?ExecCommand@ExampleAppConsole@@QAEXPBD@Z 0054a790 f i imgui_demo.obj
 0001:00149a90       ?HSV@ImColor@@SA?AU1@MMMM@Z 0054aa90 f i imgui_demo.obj
 0001:00149e90       ?Strdup@ExampleAppConsole@@SAPADPBD@Z 0054ae90 f i imgui_demo.obj
 0001:00149f00       ?Stricmp@ExampleAppConsole@@SAHPBD0@Z 0054af00 f i imgui_demo.obj
 0001:00149f60       ?Strnicmp@ExampleAppConsole@@SAHPBD0H@Z 0054af60 f i imgui_demo.obj
 0001:00149fd0       ?TextEditCallback@ExampleAppConsole@@QAEHPAUImGuiTextEditCallbackData@@@Z 0054afd0 f i imgui_demo.obj
 0001:0014a5b0       ?TextEditCallbackStub@ExampleAppConsole@@SAHPAUImGuiTextEditCallbackData@@@Z 0054b5b0 f i imgui_demo.obj
 0001:0014a5d0       ?back@?$ImVector@D@@QBEABDXZ 0054b5d0 f i imgui_demo.obj
 0001:0014a610       ?erase@?$ImVector@PAD@@QAEPAPADPBQAD@Z 0054b610 f i imgui_demo.obj
 0001:0014a6b0       ?push_back@?$ImVector@PAD@@QAEXABQAD@Z 0054b6b0 f i imgui_demo.obj
 0001:0014a750       ?push_back@?$ImVector@PBD@@QAEXABQBD@Z 0054b750 f i imgui_demo.obj
 0001:0014a7f0       ?reserve@?$ImVector@PAD@@QAEXH@Z 0054b7f0 f i imgui_demo.obj
 0001:0014a870       ?reserve@?$ImVector@PBD@@QAEXH@Z 0054b870 f i imgui_demo.obj
 0001:0014a8f0       __snprintf                 0054b8f0 f i imgui_demo.obj
 0001:0014a960       ?BeginDockspace@ImGui@@YA_NXZ 0054b960 f   imgui_dock.obj
 0001:0014ab00       ?EndDockspace@ImGui@@YAXXZ 0054bb00 f   imgui_dock.obj
 0001:0014ab20       ?ShutdownDock@ImGui@@YAXXZ 0054bb20 f   imgui_dock.obj
 0001:0014ad10       ?SetNextDock@ImGui@@YAXPBDW4ImGuiDockSlot@@@Z 0054bd10 f   imgui_dock.obj
 0001:0014af50       ?BeginDock@ImGui@@YA_NPBDPA_NH@Z 0054bf50 f   imgui_dock.obj
 0001:0014b1f0       ?EndDock@ImGui@@YAXXZ      0054c1f0 f   imgui_dock.obj
 0001:0014b3f0       ?DockDebugWindow@ImGui@@YAXPBD@Z 0054c3f0 f   imgui_dock.obj
 0001:0014b640       ?InitDock@ImGui@@YAXXZ     0054c640 f   imgui_dock.obj
 0001:0014b6d0       ?getDockIndex@@YAHABUDockContext@@PAUDock@1@@Z 0054c6d0 f   imgui_dock.obj
 0001:0014b770       ?getDockByIndex@@YAPAUDock@DockContext@@ABU2@H@Z 0054c770 f   imgui_dock.obj
 0001:0014caa0       ??$?0AAV?$_Tree_iterator@V?$_Tree_val@U?$_Tree_simple_types@U?$pair@$$CBV?$basic_string@DU?$char_traits@D@std@@V?$allocator@D@2@@std@@UDockContext@@@std@@@std@@@std@@@std@@_N$0A@@?$pair@V?$_Tree_iterator@V?$_Tree_val@U?$_Tree_simple_types@U?$pair@$$CBV?$basic_string@DU?$char_traits@D@std@@V?$allocator@D@2@@std@@UDockContext@@@std@@@std@@@std@@@std@@_N@std@@QAE@AAV?$_Tree_iterator@V?$_Tree_val@U?$_Tree_simple_types@U?$pair@$$CBV?$basic_string@DU?$char_traits@D@std@@V?$allocator@D@2@@std@@UDockContext@@@std@@@std@@@std@@@1@$$QA_N@Z 0054daa0 f i imgui_dock.obj
 0001:0014cb00       ??$_Buynode@ABUpiecewise_construct_t@std@@V?$tuple@$$QAV?$basic_string@DU?$char_traits@D@std@@V?$allocator@D@2@@std@@@2@V?$tuple@$$V@2@@?$_Tree_comp_alloc@V?$_Tmap_traits@V?$basic_string@DU?$char_traits@D@std@@V?$allocator@D@2@@std@@UDockContext@@U?$less@V?$basic_string@DU?$char_traits@D@std@@V?$allocator@D@2@@std@@@2@V?$allocator@U?$pair@$$CBV?$basic_string@DU?$char_traits@D@std@@V?$allocator@D@2@@std@@UDockContext@@@std@@@2@$0A@@std@@@std@@QAEPAU?$_Tree_node@U?$pair@$$CBV?$basic_string@DU?$char_traits@D@std@@V?$allocator@D@2@@std@@UDockContext@@@std@@PAX@1@ABUpiecewise_construct_t@1@$$QAV?$tuple@$$QAV?$basic_string@DU?$char_traits@D@std@@V?$allocator@D@2@@std@@@1@$$QAV?$tuple@$$V@1@@Z 0054db00 f i imgui_dock.obj
 0001:0014cbe0       ??$_Freenode0@V?$allocator@U?$_Tree_node@U?$pair@$$CBV?$basic_string@DU?$char_traits@D@std@@V?$allocator@D@2@@std@@UDockContext@@@std@@PAX@std@@@std@@@?$_Tree_node@U?$pair@$$CBV?$basic_string@DU?$char_traits@D@std@@V?$allocator@D@2@@std@@UDockContext@@@std@@PAX@std@@SAXAAV?$allocator@U?$_Tree_node@U?$pair@$$CBV?$basic_string@DU?$char_traits@D@std@@V?$allocator@D@2@@std@@UDockContext@@@std@@PAX@std@@@1@PAU01@@Z 0054dbe0 f i imgui_dock.obj
 0001:0014cc70       ??$_Insert_at@AAU?$pair@$$CBV?$basic_string@DU?$char_traits@D@std@@V?$allocator@D@2@@std@@UDockContext@@@std@@PAU?$_Tree_node@U?$pair@$$CBV?$basic_string@DU?$char_traits@D@std@@V?$allocator@D@2@@std@@UDockContext@@@std@@PAX@2@@?$_Tree@V?$_Tmap_traits@V?$basic_string@DU?$char_traits@D@std@@V?$allocator@D@2@@std@@UDockContext@@U?$less@V?$basic_string@DU?$char_traits@D@std@@V?$allocator@D@2@@std@@@2@V?$allocator@U?$pair@$$CBV?$basic_string@DU?$char_traits@D@std@@V?$allocator@D@2@@std@@UDockContext@@@std@@@2@$0A@@std@@@std@@IAE?AV?$_Tree_iterator@V?$_Tree_val@U?$_Tree_simple_types@U?$pair@$$CBV?$basic_string@DU?$char_traits@D@std@@V?$allocator@D@2@@std@@UDockContext@@@std@@@std@@@std@@@1@_NPAU?$_Tree_node@U?$pair@$$CBV?$basic_string@DU?$char_traits@D@std@@V?$allocator@D@2@@std@@UDockContext@@@std@@PAX@1@AAU?$pair@$$CBV?$basic_string@DU?$char_traits@D@std@@V?$allocator@D@2@@std@@UDockContext@@@1@1@Z 0054dc70 f i imgui_dock.obj
 0001:0014cf20       ??$_Insert_hint@AAU?$pair@$$CBV?$basic_string@DU?$char_traits@D@std@@V?$allocator@D@2@@std@@UDockContext@@@std@@PAU?$_Tree_node@U?$pair@$$CBV?$basic_string@DU?$char_traits@D@std@@V?$allocator@D@2@@std@@UDockContext@@@std@@PAX@2@@?$_Tree@V?$_Tmap_traits@V?$basic_string@DU?$char_traits@D@std@@V?$allocator@D@2@@std@@UDockContext@@U?$less@V?$basic_string@DU?$char_traits@D@std@@V?$allocator@D@2@@std@@@2@V?$allocator@U?$pair@$$CBV?$basic_string@DU?$char_traits@D@std@@V?$allocator@D@2@@std@@UDockContext@@@std@@@2@$0A@@std@@@std@@IAE?AV?$_Tree_iterator@V?$_Tree_val@U?$_Tree_simple_types@U?$pair@$$CBV?$basic_string@DU?$char_traits@D@std@@V?$allocator@D@2@@std@@UDockContext@@@std@@@std@@@std@@@1@V?$_Tree_const_iterator@V?$_Tree_val@U?$_Tree_simple_types@U?$pair@$$CBV?$basic_string@DU?$char_traits@D@std@@V?$allocator@D@2@@std@@UDockContext@@@std@@@std@@@std@@@1@AAU?$pair@$$CBV?$basic_string@DU?$char_traits@D@std@@V?$allocator@D@2@@std@@UDockContext@@@1@PAU?$_Tree_node@U?$pair@$$CBV?$basic_string@DU?$char_traits@D@std@@V?$allocator@D@2@@std@@UDockContext@@@std@@PAX@1@@Z 0054df20 f i imgui_dock.obj
 0001:0014e210       ??$_Insert_nohint@AAU?$pair@$$CBV?$basic_string@DU?$char_traits@D@std@@V?$allocator@D@2@@std@@UDockContext@@@std@@PAU?$_Tree_node@U?$pair@$$CBV?$basic_string@DU?$char_traits@D@std@@V?$allocator@D@2@@std@@UDockContext@@@std@@PAX@2@@?$_Tree@V?$_Tmap_traits@V?$basic_string@DU?$char_traits@D@std@@V?$allocator@D@2@@std@@UDockContext@@U?$less@V?$basic_string@DU?$char_traits@D@std@@V?$allocator@D@2@@std@@@2@V?$allocator@U?$pair@$$CBV?$basic_string@DU?$char_traits@D@std@@V?$allocator@D@2@@std@@UDockContext@@@std@@@2@$0A@@std@@@std@@IAE?AU?$pair@V?$_Tree_iterator@V?$_Tree_val@U?$_Tree_simple_types@U?$pair@$$CBV?$basic_string@DU?$char_traits@D@std@@V?$allocator@D@2@@std@@UDockContext@@@std@@@std@@@std@@@std@@_N@1@_NAAU?$pair@$$CBV?$basic_string@DU?$char_traits@D@std@@V?$allocator@D@2@@std@@UDockContext@@@1@PAU?$_Tree_node@U?$pair@$$CBV?$basic_string@DU?$char_traits@D@std@@V?$allocator@D@2@@std@@UDockContext@@@std@@PAX@1@@Z 0054f210 f i imgui_dock.obj
 0001:0014e6b0       ??$_Lbound@V?$basic_string@DU?$char_traits@D@std@@V?$allocator@D@2@@std@@@?$_Tree@V?$_Tmap_traits@V?$basic_string@DU?$char_traits@D@std@@V?$allocator@D@2@@std@@UDockContext@@U?$less@V?$basic_string@DU?$char_traits@D@std@@V?$allocator@D@2@@std@@@2@V?$allocator@U?$pair@$$CBV?$basic_string@DU?$char_traits@D@std@@V?$allocator@D@2@@std@@UDockContext@@@std@@@2@$0A@@std@@@std@@IBEPAU?$_Tree_node@U?$pair@$$CBV?$basic_string@DU?$char_traits@D@std@@V?$allocator@D@2@@std@@UDockContext@@@std@@PAX@1@ABV?$basic_string@DU?$char_traits@D@std@@V?$allocator@D@2@@1@@Z 0054f6b0 f i imgui_dock.obj
 0001:0014e890       ??$_Try_emplace@V?$basic_string@DU?$char_traits@D@std@@V?$allocator@D@2@@std@@$$V@?$map@V?$basic_string@DU?$char_traits@D@std@@V?$allocator@D@2@@std@@UDockContext@@U?$less@V?$basic_string@DU?$char_traits@D@std@@V?$allocator@D@2@@std@@@2@V?$allocator@U?$pair@$$CBV?$basic_string@DU?$char_traits@D@std@@V?$allocator@D@2@@std@@UDockContext@@@std@@@2@@std@@QAE?AU?$pair@V?$_Tree_iterator@V?$_Tree_val@U?$_Tree_simple_types@U?$pair@$$CBV?$basic_string@DU?$char_traits@D@std@@V?$allocator@D@2@@std@@UDockContext@@@std@@@std@@@std@@@std@@_N@1@$$QAV?$basic_string@DU?$char_traits@D@std@@V?$allocator@D@2@@1@@Z 0054f890 f i imgui_dock.obj
 0001:0014ebb0       ??$construct@U?$pair@$$CBV?$basic_string@DU?$char_traits@D@std@@V?$allocator@D@2@@std@@UDockContext@@@std@@ABUpiecewise_construct_t@2@V?$tuple@$$QAV?$basic_string@DU?$char_traits@D@std@@V?$allocator@D@2@@std@@@2@V?$tuple@$$V@2@@?$_Default_allocator_traits@V?$allocator@U?$_Tree_node@U?$pair@$$CBV?$basic_string@DU?$char_traits@D@std@@V?$allocator@D@2@@std@@UDockContext@@@std@@PAX@std@@@std@@@std@@SAXAAV?$allocator@U?$_Tree_node@U?$pair@$$CBV?$basic_string@DU?$char_traits@D@std@@V?$allocator@D@2@@std@@UDockContext@@@std@@PAX@std@@@1@QAU?$pair@$$CBV?$basic_string@DU?$char_traits@D@std@@V?$allocator@D@2@@std@@UDockContext@@@1@ABUpiecewise_construct_t@1@$$QAV?$tuple@$$QAV?$basic_string@DU?$char_traits@D@std@@V?$allocator@D@2@@std@@@1@$$QAV?$tuple@$$V@1@@Z 0054fbb0 f i imgui_dock.obj
 0001:0014ec60       ??$emplace_hint@ABUpiecewise_construct_t@std@@V?$tuple@$$QAV?$basic_string@DU?$char_traits@D@std@@V?$allocator@D@2@@std@@@2@V?$tuple@$$V@2@@?$_Tree@V?$_Tmap_traits@V?$basic_string@DU?$char_traits@D@std@@V?$allocator@D@2@@std@@UDockContext@@U?$less@V?$basic_string@DU?$char_traits@D@std@@V?$allocator@D@2@@std@@@2@V?$allocator@U?$pair@$$CBV?$basic_string@DU?$char_traits@D@std@@V?$allocator@D@2@@std@@UDockContext@@@std@@@2@$0A@@std@@@std@@QAE?AV?$_Tree_iterator@V?$_Tree_val@U?$_Tree_simple_types@U?$pair@$$CBV?$basic_string@DU?$char_traits@D@std@@V?$allocator@D@2@@std@@UDockContext@@@std@@@std@@@std@@@1@V?$_Tree_const_iterator@V?$_Tree_val@U?$_Tree_simple_types@U?$pair@$$CBV?$basic_string@DU?$char_traits@D@std@@V?$allocator@D@2@@std@@UDockContext@@@std@@@std@@@std@@@1@ABUpiecewise_construct_t@1@$$QAV?$tuple@$$QAV?$basic_string@DU?$char_traits@D@std@@V?$allocator@D@2@@std@@@1@$$QAV?$tuple@$$V@1@@Z 0054fc60 f i imgui_dock.obj
 0001:0014ed60       ??$sprintf_s@$0IA@@@YAHAAY0IA@DPBDZZ 0054fd60 f i imgui_dock.obj
 0001:0014edc0       ??0?$_Tree_comp_alloc@V?$_Tmap_traits@V?$basic_string@DU?$char_traits@D@std@@V?$allocator@D@2@@std@@UDockContext@@U?$less@V?$basic_string@DU?$char_traits@D@std@@V?$allocator@D@2@@std@@@2@V?$allocator@U?$pair@$$CBV?$basic_string@DU?$char_traits@D@std@@V?$allocator@D@2@@std@@UDockContext@@@std@@@2@$0A@@std@@@std@@QAE@ABU?$less@V?$basic_string@DU?$char_traits@D@std@@V?$allocator@D@2@@std@@@1@@Z 0054fdc0 f i imgui_dock.obj
 0001:0014ee20       ??0?$_Tree_const_iterator@V?$_Tree_val@U?$_Tree_simple_types@U?$pair@$$CBV?$basic_string@DU?$char_traits@D@std@@V?$allocator@D@2@@std@@UDockContext@@@std@@@std@@@std@@@std@@QAE@$$QAV01@@Z 0054fe20 f i imgui_dock.obj
 0001:0014ee60       ??0?$_Tree_const_iterator@V?$_Tree_val@U?$_Tree_simple_types@U?$pair@$$CBV?$basic_string@DU?$char_traits@D@std@@V?$allocator@D@2@@std@@UDockContext@@@std@@@std@@@std@@@std@@QAE@ABV01@@Z 0054fe60 f i imgui_dock.obj
 0001:0014eea0       ??0?$_Tree_const_iterator@V?$_Tree_val@U?$_Tree_simple_types@U?$pair@$$CBV?$basic_string@DU?$char_traits@D@std@@V?$allocator@D@2@@std@@UDockContext@@@std@@@std@@@std@@@std@@QAE@PAU?$_Tree_node@U?$pair@$$CBV?$basic_string@DU?$char_traits@D@std@@V?$allocator@D@2@@std@@UDockContext@@@std@@PAX@1@PBV?$_Tree_val@U?$_Tree_simple_types@U?$pair@$$CBV?$basic_string@DU?$char_traits@D@std@@V?$allocator@D@2@@std@@UDockContext@@@std@@@std@@@1@@Z 0054fea0 f i imgui_dock.obj
 0001:0014eee0       ??0?$_Tree_iterator@V?$_Tree_val@U?$_Tree_simple_types@U?$pair@$$CBV?$basic_string@DU?$char_traits@D@std@@V?$allocator@D@2@@std@@UDockContext@@@std@@@std@@@std@@@std@@QAE@$$QAV01@@Z 0054fee0 f i imgui_dock.obj
 0001:0014ef20       ??0?$_Tree_iterator@V?$_Tree_val@U?$_Tree_simple_types@U?$pair@$$CBV?$basic_string@DU?$char_traits@D@std@@V?$allocator@D@2@@std@@UDockContext@@@std@@@std@@@std@@@std@@QAE@PAU?$_Tree_node@U?$pair@$$CBV?$basic_string@DU?$char_traits@D@std@@V?$allocator@D@2@@std@@UDockContext@@@std@@PAX@1@PBV?$_Tree_val@U?$_Tree_simple_types@U?$pair@$$CBV?$basic_string@DU?$char_traits@D@std@@V?$allocator@D@2@@std@@UDockContext@@@std@@@std@@@1@@Z 0054ff20 f i imgui_dock.obj
 0001:0014ef60       ??0?$_Tree_unchecked_const_iterator@V?$_Tree_val@U?$_Tree_simple_types@U?$pair@$$CBV?$basic_string@DU?$char_traits@D@std@@V?$allocator@D@2@@std@@UDockContext@@@std@@@std@@@std@@U_Iterator_base12@2@@std@@QAE@$$QAV01@@Z 0054ff60 f i imgui_dock.obj
 0001:0014efa0       ??0?$_Tree_unchecked_const_iterator@V?$_Tree_val@U?$_Tree_simple_types@U?$pair@$$CBV?$basic_string@DU?$char_traits@D@std@@V?$allocator@D@2@@std@@UDockContext@@@std@@@std@@@std@@U_Iterator_base12@2@@std@@QAE@ABV01@@Z 0054ffa0 f i imgui_dock.obj
 0001:0014efe0       ??0?$_Tree_unchecked_const_iterator@V?$_Tree_val@U?$_Tree_simple_types@U?$pair@$$CBV?$basic_string@DU?$char_traits@D@std@@V?$allocator@D@2@@std@@UDockContext@@@std@@@std@@@std@@U_Iterator_base12@2@@std@@QAE@PAU?$_Tree_node@U?$pair@$$CBV?$basic_string@DU?$char_traits@D@std@@V?$allocator@D@2@@std@@UDockContext@@@std@@PAX@1@PBV?$_Tree_val@U?$_Tree_simple_types@U?$pair@$$CBV?$basic_string@DU?$char_traits@D@std@@V?$allocator@D@2@@std@@UDockContext@@@std@@@std@@@1@@Z 0054ffe0 f i imgui_dock.obj
 0001:0014f020       ??0?$_Tree_unchecked_const_iterator@V?$_Tree_val@U?$_Tree_simple_types@U?$pair@$$CBV?$basic_string@DU?$char_traits@D@std@@V?$allocator@D@2@@std@@UDockContext@@@std@@@std@@@std@@U_Iterator_base12@2@@std@@QAE@XZ 00550020 f i imgui_dock.obj
 0001:0014f050       ??0Dock@DockContext@@QAE@XZ 00550050 f i imgui_dock.obj
 0001:0014f130       ??0DockContext@@QAE@XZ     00550130 f i imgui_dock.obj
 0001:0014f1f0       ??1?$_Tree_comp_alloc@V?$_Tmap_traits@V?$basic_string@DU?$char_traits@D@std@@V?$allocator@D@2@@std@@UDockContext@@U?$less@V?$basic_string@DU?$char_traits@D@std@@V?$allocator@D@2@@std@@@2@V?$allocator@U?$pair@$$CBV?$basic_string@DU?$char_traits@D@std@@V?$allocator@D@2@@std@@UDockContext@@@std@@@2@$0A@@std@@@std@@QAE@XZ 005501f0 f i imgui_dock.obj
 0001:0014f270       ??1?$_Tree_const_iterator@V?$_Tree_val@U?$_Tree_simple_types@U?$pair@$$CBV?$basic_string@DU?$char_traits@D@std@@V?$allocator@D@2@@std@@UDockContext@@@std@@@std@@@std@@@std@@QAE@XZ 00550270 f i imgui_dock.obj
 0001:0014f2e0       ??1?$_Tree_iterator@V?$_Tree_val@U?$_Tree_simple_types@U?$pair@$$CBV?$basic_string@DU?$char_traits@D@std@@V?$allocator@D@2@@std@@UDockContext@@@std@@@std@@@std@@@std@@QAE@XZ 005502e0 f i imgui_dock.obj
 0001:0014f350       ??1?$pair@$$CBV?$basic_string@DU?$char_traits@D@std@@V?$allocator@D@2@@std@@UDockContext@@@std@@QAE@XZ 00550350 f i imgui_dock.obj
 0001:0014f3e0       ??1?$pair@V?$_Tree_iterator@V?$_Tree_val@U?$_Tree_simple_types@U?$pair@$$CBV?$basic_string@DU?$char_traits@D@std@@V?$allocator@D@2@@std@@UDockContext@@@std@@@std@@@std@@@std@@_N@std@@QAE@XZ 005503e0 f i imgui_dock.obj
 0001:0014f450       ??4?$_Tree_unchecked_const_iterator@V?$_Tree_val@U?$_Tree_simple_types@U?$pair@$$CBV?$basic_string@DU?$char_traits@D@std@@V?$allocator@D@2@@std@@UDockContext@@@std@@@std@@@std@@U_Iterator_base12@2@@std@@QAEAAV01@ABV01@@Z 00550450 f i imgui_dock.obj
 0001:0014f480       ??8?$_Tree_const_iterator@V?$_Tree_val@U?$_Tree_simple_types@U?$pair@$$CBV?$basic_string@DU?$char_traits@D@std@@V?$allocator@D@2@@std@@UDockContext@@@std@@@std@@@std@@@std@@QBE_NABV01@@Z 00550480 f i imgui_dock.obj
 0001:0014f530       ??A?$map@V?$basic_string@DU?$char_traits@D@std@@V?$allocator@D@2@@std@@UDockContext@@U?$less@V?$basic_string@DU?$char_traits@D@std@@V?$allocator@D@2@@std@@@2@V?$allocator@U?$pair@$$CBV?$basic_string@DU?$char_traits@D@std@@V?$allocator@D@2@@std@@UDockContext@@@std@@@2@@std@@QAEAAUDockContext@@$$QAV?$basic_string@DU?$char_traits@D@std@@V?$allocator@D@2@@1@@Z 00550530 f i imgui_dock.obj
 0001:0014f5f0       ??D?$_Tree_const_iterator@V?$_Tree_val@U?$_Tree_simple_types@U?$pair@$$CBV?$basic_string@DU?$char_traits@D@std@@V?$allocator@D@2@@std@@UDockContext@@@std@@@std@@@std@@@std@@QBEABU?$pair@$$CBV?$basic_string@DU?$char_traits@D@std@@V?$allocator@D@2@@std@@UDockContext@@@1@XZ 005505f0 f i imgui_dock.obj
 0001:0014f680       ??E?$_Tree_const_iterator@V?$_Tree_val@U?$_Tree_simple_types@U?$pair@$$CBV?$basic_string@DU?$char_traits@D@std@@V?$allocator@D@2@@std@@UDockContext@@@std@@@std@@@std@@@std@@QAE?AV01@H@Z 00550680 f i imgui_dock.obj
 0001:0014f760       ??E?$_Tree_const_iterator@V?$_Tree_val@U?$_Tree_simple_types@U?$pair@$$CBV?$basic_string@DU?$char_traits@D@std@@V?$allocator@D@2@@std@@UDockContext@@@std@@@std@@@std@@@std@@QAEAAV01@XZ 00550760 f i imgui_dock.obj
 0001:0014f7f0       ??E?$_Tree_unchecked_const_iterator@V?$_Tree_val@U?$_Tree_simple_types@U?$pair@$$CBV?$basic_string@DU?$char_traits@D@std@@V?$allocator@D@2@@std@@UDockContext@@@std@@@std@@@std@@U_Iterator_base0@2@@std@@QAEAAV01@XZ 005507f0 f i imgui_dock.obj
 0001:0014f880       ??E?$_Tree_unchecked_const_iterator@V?$_Tree_val@U?$_Tree_simple_types@U?$pair@$$CBV?$basic_string@DU?$char_traits@D@std@@V?$allocator@D@2@@std@@UDockContext@@@std@@@std@@@std@@U_Iterator_base12@2@@std@@QAEAAV01@XZ 00550880 f i imgui_dock.obj
 0001:0014f920       ??F?$_Tree_const_iterator@V?$_Tree_val@U?$_Tree_simple_types@U?$pair@$$CBV?$basic_string@DU?$char_traits@D@std@@V?$allocator@D@2@@std@@UDockContext@@@std@@@std@@@std@@@std@@QAEAAV01@XZ 00550920 f i imgui_dock.obj
 0001:0014f9f0       ??F?$_Tree_unchecked_const_iterator@V?$_Tree_val@U?$_Tree_simple_types@U?$pair@$$CBV?$basic_string@DU?$char_traits@D@std@@V?$allocator@D@2@@std@@UDockContext@@@std@@@std@@@std@@U_Iterator_base12@2@@std@@QAEAAV01@XZ 005509f0 f i imgui_dock.obj
 0001:0014fb60       ?_Alloc_proxy@?$_Tree_comp_alloc@V?$_Tmap_traits@V?$basic_string@DU?$char_traits@D@std@@V?$allocator@D@2@@std@@UDockContext@@U?$less@V?$basic_string@DU?$char_traits@D@std@@V?$allocator@D@2@@std@@@2@V?$allocator@U?$pair@$$CBV?$basic_string@DU?$char_traits@D@std@@V?$allocator@D@2@@std@@UDockContext@@@std@@@2@$0A@@std@@@std@@QAEXXZ 00550b60 f i imgui_dock.obj
 0001:0014fc30       ?_Buyheadnode@?$_Tree_comp_alloc@V?$_Tmap_traits@V?$basic_string@DU?$char_traits@D@std@@V?$allocator@D@2@@std@@UDockContext@@U?$less@V?$basic_string@DU?$char_traits@D@std@@V?$allocator@D@2@@std@@@2@V?$allocator@U?$pair@$$CBV?$basic_string@DU?$char_traits@D@std@@V?$allocator@D@2@@std@@UDockContext@@@std@@@2@$0A@@std@@@std@@QAEPAU?$_Tree_node@U?$pair@$$CBV?$basic_string@DU?$char_traits@D@std@@V?$allocator@D@2@@std@@UDockContext@@@std@@PAX@2@XZ 00550c30 f i imgui_dock.obj
 0001:0014fd50       ?_Buynode0@?$_Tree_comp_alloc@V?$_Tmap_traits@V?$basic_string@DU?$char_traits@D@std@@V?$allocator@D@2@@std@@UDockContext@@U?$less@V?$basic_string@DU?$char_traits@D@std@@V?$allocator@D@2@@std@@@2@V?$allocator@U?$pair@$$CBV?$basic_string@DU?$char_traits@D@std@@V?$allocator@D@2@@std@@UDockContext@@@std@@@2@$0A@@std@@@std@@QAEPAU?$_Tree_node@U?$pair@$$CBV?$basic_string@DU?$char_traits@D@std@@V?$allocator@D@2@@std@@UDockContext@@@std@@PAX@2@XZ 00550d50 f i imgui_dock.obj
 0001:0014fe60       ?_Construct@?$_Tree_comp_alloc@V?$_Tmap_traits@V?$basic_string@DU?$char_traits@D@std@@V?$allocator@D@2@@std@@UDockContext@@U?$less@V?$basic_string@DU?$char_traits@D@std@@V?$allocator@D@2@@std@@@2@V?$allocator@U?$pair@$$CBV?$basic_string@DU?$char_traits@D@std@@V?$allocator@D@2@@std@@UDockContext@@@std@@@2@$0A@@std@@@std@@QAEXXZ 00550e60 f i imgui_dock.obj
 0001:0014ff00       ?_Destroy_if_node@?$_Tree@V?$_Tmap_traits@V?$basic_string@DU?$char_traits@D@std@@V?$allocator@D@2@@std@@UDockContext@@U?$less@V?$basic_string@DU?$char_traits@D@std@@V?$allocator@D@2@@std@@@2@V?$allocator@U?$pair@$$CBV?$basic_string@DU?$char_traits@D@std@@V?$allocator@D@2@@std@@UDockContext@@@std@@@2@$0A@@std@@@std@@IAEXPAU?$_Tree_node@U?$pair@$$CBV?$basic_string@DU?$char_traits@D@std@@V?$allocator@D@2@@std@@UDockContext@@@std@@PAX@2@@Z 00550f00 f i imgui_dock.obj
 0001:0014ff60       ?_Erase@?$_Tree@V?$_Tmap_traits@V?$basic_string@DU?$char_traits@D@std@@V?$allocator@D@2@@std@@UDockContext@@U?$less@V?$basic_string@DU?$char_traits@D@std@@V?$allocator@D@2@@std@@@2@V?$allocator@U?$pair@$$CBV?$basic_string@DU?$char_traits@D@std@@V?$allocator@D@2@@std@@UDockContext@@@std@@@2@$0A@@std@@@std@@IAEXPAU?$_Tree_node@U?$pair@$$CBV?$basic_string@DU?$char_traits@D@std@@V?$allocator@D@2@@std@@UDockContext@@@std@@PAX@2@@Z 00550f60 f i imgui_dock.obj
 0001:0014fff0       ?_Extract@?$_Tree_val@U?$_Tree_simple_types@U?$pair@$$CBV?$basic_string@DU?$char_traits@D@std@@V?$allocator@D@2@@std@@UDockContext@@@std@@@std@@@std@@QAEPAU?$_Tree_node@U?$pair@$$CBV?$basic_string@DU?$char_traits@D@std@@V?$allocator@D@2@@std@@UDockContext@@@std@@PAX@2@V?$_Tree_const_iterator@V?$_Tree_val@U?$_Tree_simple_types@U?$pair@$$CBV?$basic_string@DU?$char_traits@D@std@@V?$allocator@D@2@@std@@UDockContext@@@std@@@std@@@std@@@2@@Z 00550ff0 f i imgui_dock.obj
 0001:00150540       ?_Free_proxy@?$_Tree_comp_alloc@V?$_Tmap_traits@V?$basic_string@DU?$char_traits@D@std@@V?$allocator@D@2@@std@@UDockContext@@U?$less@V?$basic_string@DU?$char_traits@D@std@@V?$allocator@D@2@@std@@@2@V?$allocator@U?$pair@$$CBV?$basic_string@DU?$char_traits@D@std@@V?$allocator@D@2@@std@@UDockContext@@@std@@@2@$0A@@std@@@std@@QAEXXZ 00551540 f i imgui_dock.obj
 0001:00150610       ?_Freeheadnode@?$_Tree_comp_alloc@V?$_Tmap_traits@V?$basic_string@DU?$char_traits@D@std@@V?$allocator@D@2@@std@@UDockContext@@U?$less@V?$basic_string@DU?$char_traits@D@std@@V?$allocator@D@2@@std@@@2@V?$allocator@U?$pair@$$CBV?$basic_string@DU?$char_traits@D@std@@V?$allocator@D@2@@std@@UDockContext@@@std@@@2@$0A@@std@@@std@@QAEXPAU?$_Tree_node@U?$pair@$$CBV?$basic_string@DU?$char_traits@D@std@@V?$allocator@D@2@@std@@UDockContext@@@std@@PAX@2@@Z 00551610 f i imgui_dock.obj
 0001:00150650       ?_Freenode0@?$_Tree_comp_alloc@V?$_Tmap_traits@V?$basic_string@DU?$char_traits@D@std@@V?$allocator@D@2@@std@@UDockContext@@U?$less@V?$basic_string@DU?$char_traits@D@std@@V?$allocator@D@2@@std@@@2@V?$allocator@U?$pair@$$CBV?$basic_string@DU?$char_traits@D@std@@V?$allocator@D@2@@std@@UDockContext@@@std@@@2@$0A@@std@@@std@@QAEXPAU?$_Tree_node@U?$pair@$$CBV?$basic_string@DU?$char_traits@D@std@@V?$allocator@D@2@@std@@UDockContext@@@std@@PAX@2@@Z 00551650 f i imgui_dock.obj
 0001:00150690       ?_Lrotate@?$_Tree_val@U?$_Tree_simple_types@U?$pair@$$CBV?$basic_string@DU?$char_traits@D@std@@V?$allocator@D@2@@std@@UDockContext@@@std@@@std@@@std@@QAEXPAU?$_Tree_node@U?$pair@$$CBV?$basic_string@DU?$char_traits@D@std@@V?$allocator@D@2@@std@@UDockContext@@@std@@PAX@2@@Z 00551690 f i imgui_dock.obj
 0001:00150730       ?_Orphan_ptr@?$_Tree@V?$_Tmap_traits@V?$basic_string@DU?$char_traits@D@std@@V?$allocator@D@2@@std@@UDockContext@@U?$less@V?$basic_string@DU?$char_traits@D@std@@V?$allocator@D@2@@std@@@2@V?$allocator@U?$pair@$$CBV?$basic_string@DU?$char_traits@D@std@@V?$allocator@D@2@@std@@UDockContext@@@std@@@2@$0A@@std@@@std@@IAEXPAU?$_Tree_node@U?$pair@$$CBV?$basic_string@DU?$char_traits@D@std@@V?$allocator@D@2@@std@@UDockContext@@@std@@PAX@2@@Z 00551730 f i imgui_dock.obj
 0001:00150820       ?_Rrotate@?$_Tree_val@U?$_Tree_simple_types@U?$pair@$$CBV?$basic_string@DU?$char_traits@D@std@@V?$allocator@D@2@@std@@UDockContext@@@std@@@std@@@std@@QAEXPAU?$_Tree_node@U?$pair@$$CBV?$basic_string@DU?$char_traits@D@std@@V?$allocator@D@2@@std@@UDockContext@@@std@@PAX@2@@Z 00551820 f i imgui_dock.obj
 0001:001508c0       ?_Tidy@?$_Tree@V?$_Tmap_traits@V?$basic_string@DU?$char_traits@D@std@@V?$allocator@D@2@@std@@UDockContext@@U?$less@V?$basic_string@DU?$char_traits@D@std@@V?$allocator@D@2@@std@@@2@V?$allocator@U?$pair@$$CBV?$basic_string@DU?$char_traits@D@std@@V?$allocator@D@2@@std@@UDockContext@@@std@@@2@$0A@@std@@@std@@IAEXXZ 005518c0 f i imgui_dock.obj
 0001:00150a60       ?allocate@?$allocator@U?$_Tree_node@U?$pair@$$CBV?$basic_string@DU?$char_traits@D@std@@V?$allocator@D@2@@std@@UDockContext@@@std@@PAX@std@@@std@@QAEPAU?$_Tree_node@U?$pair@$$CBV?$basic_string@DU?$char_traits@D@std@@V?$allocator@D@2@@std@@UDockContext@@@std@@PAX@2@I@Z 00551a60 f i imgui_dock.obj
 0001:00150ad0       ?begin@?$_Tree@V?$_Tmap_traits@V?$basic_string@DU?$char_traits@D@std@@V?$allocator@D@2@@std@@UDockContext@@U?$less@V?$basic_string@DU?$char_traits@D@std@@V?$allocator@D@2@@std@@@2@V?$allocator@U?$pair@$$CBV?$basic_string@DU?$char_traits@D@std@@V?$allocator@D@2@@std@@UDockContext@@@std@@@2@$0A@@std@@@std@@QAE?AV?$_Tree_iterator@V?$_Tree_val@U?$_Tree_simple_types@U?$pair@$$CBV?$basic_string@DU?$char_traits@D@std@@V?$allocator@D@2@@std@@UDockContext@@@std@@@std@@@std@@@2@XZ 00551ad0 f i imgui_dock.obj
 0001:00150b30       ?begin@DockContext@@QAE_NPBDPA_NH@Z 00551b30 f i imgui_dock.obj
 0001:00151070       ?checkNonexistent@DockContext@@QAEXXZ 00552070 f i imgui_dock.obj
 0001:00151190       ?clear@?$_Tree@V?$_Tmap_traits@V?$basic_string@DU?$char_traits@D@std@@V?$allocator@D@2@@std@@UDockContext@@U?$less@V?$basic_string@DU?$char_traits@D@std@@V?$allocator@D@2@@std@@@2@V?$allocator@U?$pair@$$CBV?$basic_string@DU?$char_traits@D@std@@V?$allocator@D@2@@std@@UDockContext@@@std@@@2@$0A@@std@@@std@@QAEXXZ 00552190 f i imgui_dock.obj
 0001:00151230       ?deallocate@?$allocator@U?$_Tree_node@U?$pair@$$CBV?$basic_string@DU?$char_traits@D@std@@V?$allocator@D@2@@std@@UDockContext@@@std@@PAX@std@@@std@@QAEXQAU?$_Tree_node@U?$pair@$$CBV?$basic_string@DU?$char_traits@D@std@@V?$allocator@D@2@@std@@UDockContext@@@std@@PAX@2@I@Z 00552230 f i imgui_dock.obj
 0001:00151280       ?debugWindow@DockContext@@QAEXXZ 00552280 f i imgui_dock.obj
 0001:00151480       ?doDock@DockContext@@QAEXAAUDock@1@PAU21@W4ImGuiDockSlot@@@Z 00552480 f i imgui_dock.obj
 0001:001517e0       ?doUndock@DockContext@@QAEXAAUDock@1@@Z 005527e0 f i imgui_dock.obj
 0001:00151b50       ?dockSlots@DockContext@@QAE_NAAUDock@1@PAU21@ABUImRect@@_N@Z 00552b50 f i imgui_dock.obj
 0001:00151d60       ?drawTabbarListButton@DockContext@@QAEXAAUDock@1@@Z 00552d60 f i imgui_dock.obj
 0001:001520b0       ?end@?$_Tree@V?$_Tmap_traits@V?$basic_string@DU?$char_traits@D@std@@V?$allocator@D@2@@std@@UDockContext@@U?$less@V?$basic_string@DU?$char_traits@D@std@@V?$allocator@D@2@@std@@@2@V?$allocator@U?$pair@$$CBV?$basic_string@DU?$char_traits@D@std@@V?$allocator@D@2@@std@@UDockContext@@@std@@@2@$0A@@std@@@std@@QAE?AV?$_Tree_iterator@V?$_Tree_val@U?$_Tree_simple_types@U?$pair@$$CBV?$basic_string@DU?$char_traits@D@std@@V?$allocator@D@2@@std@@UDockContext@@@std@@@std@@@std@@@2@XZ 005530b0 f i imgui_dock.obj
 0001:00152110       ?end@DockContext@@QAEXXZ   00553110 f i imgui_dock.obj
 0001:00152190       ?erase@?$ImVector@PAUDock@DockContext@@@@QAEPAPAUDock@DockContext@@PBQAU23@@Z 00553190 f i imgui_dock.obj
 0001:00152230       ?erase@?$_Tree@V?$_Tmap_traits@V?$basic_string@DU?$char_traits@D@std@@V?$allocator@D@2@@std@@UDockContext@@U?$less@V?$basic_string@DU?$char_traits@D@std@@V?$allocator@D@2@@std@@@2@V?$allocator@U?$pair@$$CBV?$basic_string@DU?$char_traits@D@std@@V?$allocator@D@2@@std@@UDockContext@@@std@@@2@$0A@@std@@@std@@QAE?AV?$_Tree_iterator@V?$_Tree_val@U?$_Tree_simple_types@U?$pair@$$CBV?$basic_string@DU?$char_traits@D@std@@V?$allocator@D@2@@std@@UDockContext@@@std@@@std@@@std@@@2@V?$_Tree_const_iterator@V?$_Tree_val@U?$_Tree_simple_types@U?$pair@$$CBV?$basic_string@DU?$char_traits@D@std@@V?$allocator@D@2@@std@@UDockContext@@@std@@@std@@@std@@@2@0@Z 00553230 f i imgui_dock.obj
 0001:001525a0       ?erase@?$_Tree@V?$_Tmap_traits@V?$basic_string@DU?$char_traits@D@std@@V?$allocator@D@2@@std@@UDockContext@@U?$less@V?$basic_string@DU?$char_traits@D@std@@V?$allocator@D@2@@std@@@2@V?$allocator@U?$pair@$$CBV?$basic_string@DU?$char_traits@D@std@@V?$allocator@D@2@@std@@UDockContext@@@std@@@2@$0A@@std@@@std@@QAE?AV?$_Tree_iterator@V?$_Tree_val@U?$_Tree_simple_types@U?$pair@$$CBV?$basic_string@DU?$char_traits@D@std@@V?$allocator@D@2@@std@@UDockContext@@@std@@@std@@@std@@@2@V?$_Tree_const_iterator@V?$_Tree_val@U?$_Tree_simple_types@U?$pair@$$CBV?$basic_string@DU?$char_traits@D@std@@V?$allocator@D@2@@std@@UDockContext@@@std@@@std@@@std@@@2@@Z 005535a0 f i imgui_dock.obj
 0001:001527c0       ?fillLocation@DockContext@@QAEXAAUDock@1@@Z 005537c0 f i imgui_dock.obj
 0001:00152820       ?find@?$_Tree@V?$_Tmap_traits@V?$basic_string@DU?$char_traits@D@std@@V?$allocator@D@2@@std@@UDockContext@@U?$less@V?$basic_string@DU?$char_traits@D@std@@V?$allocator@D@2@@std@@@2@V?$allocator@U?$pair@$$CBV?$basic_string@DU?$char_traits@D@std@@V?$allocator@D@2@@std@@UDockContext@@@std@@@2@$0A@@std@@@std@@QAE?AV?$_Tree_iterator@V?$_Tree_val@U?$_Tree_simple_types@U?$pair@$$CBV?$basic_string@DU?$char_traits@D@std@@V?$allocator@D@2@@std@@UDockContext@@@std@@@std@@@std@@@2@ABV?$basic_string@DU?$char_traits@D@std@@V?$allocator@D@2@@2@@Z 00553820 f i imgui_dock.obj
 0001:00152ab0       ?getDock@DockContext@@QAEAAUDock@1@PBD_N@Z 00553ab0 f i imgui_dock.obj
 0001:00152d10       ?getDockAt@DockContext@@QBEPAUDock@1@XZ 00553d10 f i imgui_dock.obj
 0001:00152e30       ?getDockedRect@DockContext@@SA?AUImRect@@ABU2@W4ImGuiDockSlot@@@Z 00553e30 f i imgui_dock.obj
 0001:00153080       ?getLocationCode@DockContext@@SADPAUDock@1@@Z 00554080 f i imgui_dock.obj
 0001:00153140       ?getMinSize@Dock@DockContext@@QBE?AUImVec2@@XZ 00554140 f i imgui_dock.obj
 0001:00153290       ?getRootDock@DockContext@@QAEPAUDock@1@XZ 00554290 f i imgui_dock.obj
 0001:001533c0       ?getSibling@Dock@DockContext@@QAEAAU12@XZ 005543c0 f i imgui_dock.obj
 0001:00153450       ?getSlotRect@DockContext@@SA?AUImRect@@U2@W4ImGuiDockSlot@@@Z 00554450 f i imgui_dock.obj
 0001:001539d0       ?getSlotRectOnBorder@DockContext@@SA?AUImRect@@U2@W4ImGuiDockSlot@@@Z 005549d0 f i imgui_dock.obj
 0001:00153de0       ?handleDrag@DockContext@@QAEXAAUDock@1@@Z 00554de0 f i imgui_dock.obj
 0001:001540d0       ?isHorizontal@Dock@DockContext@@QBE_NXZ 005550d0 f i imgui_dock.obj
 0001:00154120       ?lower_bound@?$_Tree@V?$_Tmap_traits@V?$basic_string@DU?$char_traits@D@std@@V?$allocator@D@2@@std@@UDockContext@@U?$less@V?$basic_string@DU?$char_traits@D@std@@V?$allocator@D@2@@std@@@2@V?$allocator@U?$pair@$$CBV?$basic_string@DU?$char_traits@D@std@@V?$allocator@D@2@@std@@UDockContext@@@std@@@2@$0A@@std@@@std@@QAE?AV?$_Tree_iterator@V?$_Tree_val@U?$_Tree_simple_types@U?$pair@$$CBV?$basic_string@DU?$char_traits@D@std@@V?$allocator@D@2@@std@@UDockContext@@@std@@@std@@@std@@@2@ABV?$basic_string@DU?$char_traits@D@std@@V?$allocator@D@2@@2@@Z 00555120 f i imgui_dock.obj
 0001:001541a0       ?push_back@?$ImVector@PAUDock@DockContext@@@@QAEXABQAUDock@DockContext@@@Z 005551a0 f i imgui_dock.obj
 0001:00154240       ?putInBackground@DockContext@@QAEXXZ 00555240 f i imgui_dock.obj
 0001:00154410       ?reserve@?$ImVector@PAUDock@DockContext@@@@QAEXH@Z 00555410 f i imgui_dock.obj
 0001:00154490       ?setActive@Dock@DockContext@@QAEXXZ 00555490 f i imgui_dock.obj
 0001:001544f0       ?setChildrenPosSize@Dock@DockContext@@QAEXABUImVec2@@0@Z 005554f0 f i imgui_dock.obj
 0001:00154850       ?setDockPosSize@DockContext@@SAXAAUDock@1@0W4ImGuiDockSlot@@0@Z 00555850 f i imgui_dock.obj
 0001:00154b10       ?setParent@Dock@DockContext@@QAEXPAU12@@Z 00555b10 f i imgui_dock.obj
 0001:00154b80       ?setPosSize@Dock@DockContext@@QAEXABUImVec2@@0@Z 00555b80 f i imgui_dock.obj
 0001:00154c70       ?splits@DockContext@@QAEXXZ 00555c70 f i imgui_dock.obj
 0001:00155510       ?tabbar@DockContext@@QAE_NAAUDock@1@_N@Z 00556510 f i imgui_dock.obj
 0001:00155da0       ?tryDockToStoredLocation@DockContext@@QAEXAAUDock@1@@Z 00556da0 f i imgui_dock.obj
 0001:00155f30       ?StyleColorsDark@ImGui@@YAXPAUImGuiStyle@@@Z 00556f30 f   imgui_draw.obj
 0001:001570c0       ?StyleColorsClassic@ImGui@@YAXPAUImGuiStyle@@@Z 005580c0 f   imgui_draw.obj
 0001:00158230       ?StyleColorsLight@ImGui@@YAXPAUImGuiStyle@@@Z 00559230 f   imgui_draw.obj
 0001:001593a0       ?StyleColorsSkel@ImGui@@YAXPAUImGuiStyle@@@Z 0055a3a0 f   imgui_draw.obj
 0001:0015a530       ?PushClipRect@ImDrawList@@QAEXUImVec2@@0_N@Z 0055b530 f   imgui_draw.obj
 0001:0015a670       ?PushClipRectFullScreen@ImDrawList@@QAEXXZ 0055b670 f   imgui_draw.obj
 0001:0015a700       ?PopClipRect@ImDrawList@@QAEXXZ 0055b700 f   imgui_draw.obj
 0001:0015a770       ?PushTextureID@ImDrawList@@QAEXPAX@Z 0055b770 f   imgui_draw.obj
 0001:0015a7a0       ?PopTextureID@ImDrawList@@QAEXXZ 0055b7a0 f   imgui_draw.obj
 0001:0015a810       ?AddLine@ImDrawList@@QAEXABUImVec2@@0IM@Z 0055b810 f   imgui_draw.obj
 0001:0015a930       ?AddRect@ImDrawList@@QAEXABUImVec2@@0IMHM@Z 0055b930 f   imgui_draw.obj
 0001:0015ab20       ?AddRectFilled@ImDrawList@@QAEXABUImVec2@@0IMH@Z 0055bb20 f   imgui_draw.obj
 0001:0015abb0       ?AddRectFilledMultiColor@ImDrawList@@QAEXABUImVec2@@0IIII@Z 0055bbb0 f   imgui_draw.obj
 0001:0015ae80       ?AddQuad@ImDrawList@@QAEXABUImVec2@@000IM@Z 0055be80 f   imgui_draw.obj
 0001:0015af10       ?AddQuadFilled@ImDrawList@@QAEXABUImVec2@@000I@Z 0055bf10 f   imgui_draw.obj
 0001:0015af90       ?AddTriangle@ImDrawList@@QAEXABUImVec2@@00IM@Z 0055bf90 f   imgui_draw.obj
 0001:0015b010       ?AddTriangleFilled@ImDrawList@@QAEXABUImVec2@@00I@Z 0055c010 f   imgui_draw.obj
 0001:0015b080       ?AddCircle@ImDrawList@@QAEXABUImVec2@@MIHM@Z 0055c080 f   imgui_draw.obj
 0001:0015b130       ?AddCircleFilled@ImDrawList@@QAEXABUImVec2@@MIH@Z 0055c130 f   imgui_draw.obj
 0001:0015b1d0       ?AddText@ImDrawList@@QAEXABUImVec2@@IPBD1@Z 0055c1d0 f   imgui_draw.obj
 0001:0015b210       ?AddText@ImDrawList@@QAEXPBUImFont@@MABUImVec2@@IPBD2MPBUImVec4@@@Z 0055c210 f   imgui_draw.obj
 0001:0015b440       ?AddImage@ImDrawList@@QAEXPAXABUImVec2@@111I@Z 0055c440 f   imgui_draw.obj
 0001:0015b4f0       ?AddImageQuad@ImDrawList@@QAEXPAXABUImVec2@@1111111I@Z 0055c4f0 f   imgui_draw.obj
 0001:0015b5b0       ?AddImageRounded@ImDrawList@@QAEXPAXABUImVec2@@111IMH@Z 0055c5b0 f   imgui_draw.obj
 0001:0015b6f0       ?AddPolyline@ImDrawList@@QAEXPBUImVec2@@HI_NM@Z 0055c6f0 f   imgui_draw.obj
 0001:0015d640       ?AddConvexPolyFilled@ImDrawList@@QAEXPBUImVec2@@HI@Z 0055e640 f   imgui_draw.obj
 0001:0015dd40       ?AddBezierCurve@ImDrawList@@QAEXABUImVec2@@000IMH@Z 0055ed40 f   imgui_draw.obj
 0001:0015ddc0       ?PathArcTo@ImDrawList@@QAEXABUImVec2@@MMMH@Z 0055edc0 f   imgui_draw.obj
 0001:0015ded0       ?PathArcToFast@ImDrawList@@QAEXABUImVec2@@MHH@Z 0055eed0 f   imgui_draw.obj
 0001:0015dfc0       ?PathBezierCurveTo@ImDrawList@@QAEXABUImVec2@@00H@Z 0055efc0 f   imgui_draw.obj
 0001:0015e1e0       ?PathRect@ImDrawList@@QAEXABUImVec2@@0MH@Z 0055f1e0 f   imgui_draw.obj
 0001:0015e5f0       ?ChannelsSplit@ImDrawList@@QAEXH@Z 0055f5f0 f   imgui_draw.obj
 0001:0015e8c0       ?ChannelsMerge@ImDrawList@@QAEXXZ 0055f8c0 f   imgui_draw.obj
 0001:0015eb40       ?ChannelsSetCurrent@ImDrawList@@QAEXH@Z 0055fb40 f   imgui_draw.obj
 0001:0015ec30       ?AddCallback@ImDrawList@@QAEXP6AXPBU1@PBUImDrawCmd@@@ZPAX@Z 0055fc30 f   imgui_draw.obj
 0001:0015ecb0       ?AddDrawCmd@ImDrawList@@QAEXXZ 0055fcb0 f   imgui_draw.obj
 0001:0015ed80       ?CloneOutput@ImDrawList@@QBEPAU1@XZ 0055fd80 f   imgui_draw.obj
 0001:0015ee50       ?Clear@ImDrawList@@QAEXXZ  0055fe50 f   imgui_draw.obj
 0001:0015eef0       ?ClearFreeMemory@ImDrawList@@QAEXXZ 0055fef0 f   imgui_draw.obj
 0001:0015f240       ?PrimReserve@ImDrawList@@QAEXHH@Z 00560240 f   imgui_draw.obj
 0001:0015f2d0       ?PrimRect@ImDrawList@@QAEXABUImVec2@@0I@Z 005602d0 f   imgui_draw.obj
 0001:0015f550       ?PrimRectUV@ImDrawList@@QAEXABUImVec2@@000I@Z 00560550 f   imgui_draw.obj
 0001:0015f820       ?PrimQuadUV@ImDrawList@@QAEXABUImVec2@@0000000I@Z 00560820 f   imgui_draw.obj
 0001:0015fa40       ?UpdateClipRect@ImDrawList@@QAEXXZ 00560a40 f   imgui_draw.obj
 0001:0015fbf0       ?UpdateTextureID@ImDrawList@@QAEXXZ 00560bf0 f   imgui_draw.obj
 0001:0015fd60       ?DeIndexAllBuffers@ImDrawData@@QAEXXZ 00560d60 f   imgui_draw.obj
 0001:0015ffb0       ?ScaleClipRects@ImDrawData@@QAEXABUImVec2@@@Z 00560fb0 f   imgui_draw.obj
 0001:001600f0       ??0ImFontConfig@@QAE@XZ    005610f0 f   imgui_draw.obj
 0001:00160240       ??0ImFontAtlas@@QAE@XZ     00561240 f   imgui_draw.obj
 0001:001603c0       ??1ImFontAtlas@@QAE@XZ     005613c0 f   imgui_draw.obj
 0001:001604c0       ?AddFont@ImFontAtlas@@QAEPAUImFont@@PBUImFontConfig@@@Z 005614c0 f   imgui_draw.obj
 0001:001606a0       ?AddFontDefault@ImFontAtlas@@QAEPAUImFont@@PBUImFontConfig@@@Z 005616a0 f   imgui_draw.obj
 0001:00160850       ?AddFontFromFileTTF@ImFontAtlas@@QAEPAUImFont@@PBDMPBUImFontConfig@@PBG@Z 00561850 f   imgui_draw.obj
 0001:00160a60       ?AddFontFromMemoryTTF@ImFontAtlas@@QAEPAUImFont@@PAXHMPBUImFontConfig@@PBG@Z 00561a60 f   imgui_draw.obj
 0001:00160b70       ?AddFontFromMemoryCompressedTTF@ImFontAtlas@@QAEPAUImFont@@PBXHMPBUImFontConfig@@PBG@Z 00561b70 f   imgui_draw.obj
 0001:00160c80       ?AddFontFromMemoryCompressedBase85TTF@ImFontAtlas@@QAEPAUImFont@@PBDMPBUImFontConfig@@PBG@Z 00561c80 f   imgui_draw.obj
 0001:00160d30       ?ClearInputData@ImFontAtlas@@QAEXXZ 00561d30 f   imgui_draw.obj
 0001:00161060       ?ClearTexData@ImFontAtlas@@QAEXXZ 00562060 f   imgui_draw.obj
 0001:001610e0       ?ClearFonts@ImFontAtlas@@QAEXXZ 005620e0 f   imgui_draw.obj
 0001:001611c0       ?Clear@ImFontAtlas@@QAEXXZ 005621c0 f   imgui_draw.obj
 0001:001611f0       ?Build@ImFontAtlas@@QAE_NXZ 005621f0 f   imgui_draw.obj
 0001:00161240       ?GetTexDataAsAlpha8@ImFontAtlas@@QAEXPAPAEPAH11@Z 00562240 f   imgui_draw.obj
 0001:001612d0       ?GetTexDataAsRGBA32@ImFontAtlas@@QAEXPAPAEPAH11@Z 005622d0 f   imgui_draw.obj
 0001:001613d0       ?GetGlyphRangesDefault@ImFontAtlas@@QAEPBGXZ 005623d0 f   imgui_draw.obj
 0001:001613f0       ?GetGlyphRangesKorean@ImFontAtlas@@QAEPBGXZ 005623f0 f   imgui_draw.obj
 0001:00161410       ?GetGlyphRangesJapanese@ImFontAtlas@@QAEPBGXZ 00562410 f   imgui_draw.obj
 0001:00161490       ?GetGlyphRangesChineseFull@ImFontAtlas@@QAEPBGXZ 00562490 f   imgui_draw.obj
 0001:001614b0       ?GetGlyphRangesChineseSimplifiedCommon@ImFontAtlas@@QAEPBGXZ 005624b0 f   imgui_draw.obj
 0001:00161530       ?GetGlyphRangesCyrillic@ImFontAtlas@@QAEPBGXZ 00562530 f   imgui_draw.obj
 0001:00161550       ?GetGlyphRangesThai@ImFontAtlas@@QAEPBGXZ 00562550 f   imgui_draw.obj
 0001:00161570       ?AddText@GlyphRangesBuilder@ImFontAtlas@@QAEXPBD0@Z 00562570 f   imgui_draw.obj
 0001:00161610       ?AddRanges@GlyphRangesBuilder@ImFontAtlas@@QAEXPBG@Z 00562610 f   imgui_draw.obj
 0001:00161690       ?BuildRanges@GlyphRangesBuilder@ImFontAtlas@@QAEXPAV?$ImVector@G@@@Z 00562690 f   imgui_draw.obj
 0001:00161740       ?AddCustomRectRegular@ImFontAtlas@@QAEHIHH@Z 00562740 f   imgui_draw.obj
 0001:00161800       ?AddCustomRectFontGlyph@ImFontAtlas@@QAEHPAUImFont@@GHHMABUImVec2@@@Z 00562800 f   imgui_draw.obj
 0001:001618d0       ?CalcCustomRectUV@ImFontAtlas@@QAEXPBUCustomRect@1@PAUImVec2@@1@Z 005628d0 f   imgui_draw.obj
 0001:00161a00       ?GetMouseCursorTexData@ImFontAtlas@@QAE_NHPAUImVec2@@0QAU2@1@Z 00562a00 f   imgui_draw.obj
 0001:00161dc0       ??0ImFont@@QAE@XZ          00562dc0 f   imgui_draw.obj
 0001:00161ef0       ??1ImFont@@QAE@XZ          00562ef0 f   imgui_draw.obj
 0001:00161fc0       ?ClearOutputData@ImFont@@QAEXXZ 00562fc0 f   imgui_draw.obj
 0001:001620f0       ?BuildLookupTable@ImFont@@QAEXXZ 005630f0 f   imgui_draw.obj
 0001:00162540       ?FindGlyph@ImFont@@QBEPBUImFontGlyph@@G@Z 00563540 f   imgui_draw.obj
 0001:001625d0       ?FindGlyphNoFallback@ImFont@@QBEPBUImFontGlyph@@G@Z 005635d0 f   imgui_draw.obj
 0001:00162650       ?SetFallbackChar@ImFont@@QAEXG@Z 00563650 f   imgui_draw.obj
 0001:00162670       ?CalcTextSizeA@ImFont@@QBE?AUImVec2@@MMMPBD0PAPBD@Z 00563670 f   imgui_draw.obj
 0001:001629c0       ?CalcWordWrapPositionA@ImFont@@QBEPBDMPBD0M@Z 005639c0 f   imgui_draw.obj
 0001:00162c40       ?RenderChar@ImFont@@QBEXPAUImDrawList@@MUImVec2@@IG@Z 00563c40 f   imgui_draw.obj
 0001:00162e00       ?RenderText@ImFont@@QBEXPAUImDrawList@@MUImVec2@@IABUImVec4@@PBD3M_N@Z 00563e00 f   imgui_draw.obj
 0001:001636a0       ?GrowIndex@ImFont@@QAEXH@Z 005646a0 f   imgui_draw.obj
 0001:00163720       ?AddGlyph@ImFont@@QAEXGMMMMMMMMM@Z 00564720 f   imgui_draw.obj
 0001:00163880       ?AddRemapChar@ImFont@@QAEXGG_N@Z 00564880 f   imgui_draw.obj
 0001:00163c80       ??0ImDrawListSharedData@@QAE@XZ 00564c80 f   imgui_draw.obj
 0001:00163e20       ?RenderRectFilledRangeH@ImGui@@YAXPAUImDrawList@@ABUImRect@@IMMM@Z 00564e20 f   imgui_draw.obj
 0001:001646a0       ?ShadeVertsLinearColorGradientKeepAlpha@ImGui@@YAXPAUImDrawList@@HHUImVec2@@1II@Z 005656a0 f   imgui_draw.obj
 0001:001648c0       ?ShadeVertsLinearUV@ImGui@@YAXPAUImDrawList@@HHABUImVec2@@111_N@Z 005658c0 f   imgui_draw.obj
 0001:00164c90       ?ImFontAtlasBuildWithStbTruetype@@YA_NPAUImFontAtlas@@@Z 00565c90 f   imgui_draw.obj
 0001:001660b0       ?ImFontAtlasBuildRegisterDefaultCustomRects@@YAXPAUImFontAtlas@@@Z 005670b0 f   imgui_draw.obj
 0001:00166120       ?ImFontAtlasBuildSetupFont@@YAXPAUImFontAtlas@@PAUImFont@@PAUImFontConfig@@MM@Z 00567120 f   imgui_draw.obj
 0001:00166190       ?ImFontAtlasBuildPackCustomRects@@YAXPAUImFontAtlas@@PAX@Z 00567190 f   imgui_draw.obj
 0001:00166620       ?ImFontAtlasBuildFinish@@YAXPAUImFontAtlas@@@Z 00567620 f   imgui_draw.obj
 0001:00166840       ?ImFontAtlasBuildMultiplyCalcLookupTable@@YAXQAEM@Z 00567840 f   imgui_draw.obj
 0001:001668c0       ?ImFontAtlasBuildMultiplyRectAlpha8@@YAXQBEPAEHHHHH@Z 005678c0 f   imgui_draw.obj
 0001:00171090       ??$IM_DELETE@UImFont@@@@YAXPAUImFont@@@Z 00572090 f i imgui_draw.obj
 0001:001710d0       ??0CustomRect@ImFontAtlas@@QAE@XZ 005720d0 f i imgui_draw.obj
 0001:00171170       ??0ImDrawCmd@@QAE@XZ       00572170 f i imgui_draw.obj
 0001:00171210       ??1?$ImVector@M@@QAE@XZ    00572210 f i imgui_draw.obj
 0001:00171260       ??1?$ImVector@UImFontGlyph@@@@QAE@XZ 00572260 f i imgui_draw.obj
 0001:001712b0       ??1?$ImVector@Ustbrp_rect@@@@QAE@XZ 005722b0 f i imgui_draw.obj
 0001:00171300       ??4?$ImVector@G@@QAEAAV0@ABV0@@Z 00572300 f i imgui_draw.obj
 0001:00171380       ??4?$ImVector@UImDrawCmd@@@@QAEAAV0@ABV0@@Z 00572380 f i imgui_draw.obj
 0001:00171400       ??4?$ImVector@UImDrawVert@@@@QAEAAV0@ABV0@@Z 00572400 f i imgui_draw.obj
 0001:00171470       ?GetBit@GlyphRangesBuilder@ImFontAtlas@@QBE_NH@Z 00572470 f i imgui_draw.obj
 0001:001714f0       ?SetBit@GlyphRangesBuilder@ImFontAtlas@@QAEXH@Z 005724f0 f i imgui_draw.obj
 0001:00171560       ?back@?$ImVector@PAX@@QAEAAPAXXZ 00572560 f i imgui_draw.obj
 0001:001715a0       ?back@?$ImVector@UImFontConfig@@@@QAEAAUImFontConfig@@XZ 005725a0 f i imgui_draw.obj
 0001:001715e0       ?back@?$ImVector@UImFontGlyph@@@@QAEAAUImFontGlyph@@XZ 005725e0 f i imgui_draw.obj
 0001:00171620       ?back@?$ImVector@UImVec2@@@@QAEAAUImVec2@@XZ 00572620 f i imgui_draw.obj
 0001:00171660       ?push_back@?$ImVector@G@@QAEXABG@Z 00572660 f i imgui_draw.obj
 0001:00171700       ?push_back@?$ImVector@PAX@@QAEXABQAX@Z 00572700 f i imgui_draw.obj
 0001:001717a0       ?push_back@?$ImVector@UCustomRect@ImFontAtlas@@@@QAEXABUCustomRect@ImFontAtlas@@@Z 005727a0 f i imgui_draw.obj
 0001:00171840       ?push_back@?$ImVector@UImDrawCmd@@@@QAEXABUImDrawCmd@@@Z 00572840 f i imgui_draw.obj
 0001:001718e0       ?push_back@?$ImVector@UImFontConfig@@@@QAEXABUImFontConfig@@@Z 005728e0 f i imgui_draw.obj
 0001:00171980       ?push_back@?$ImVector@UImVec4@@@@QAEXABUImVec4@@@Z 00572980 f i imgui_draw.obj
 0001:00171a30       ?reserve@?$ImVector@PAX@@QAEXH@Z 00572a30 f i imgui_draw.obj
 0001:00171ab0       ?reserve@?$ImVector@UCustomRect@ImFontAtlas@@@@QAEXH@Z 00572ab0 f i imgui_draw.obj
 0001:00171b20       ?reserve@?$ImVector@UImDrawChannel@@@@QAEXH@Z 00572b20 f i imgui_draw.obj
 0001:00171b90       ?reserve@?$ImVector@UImDrawCmd@@@@QAEXH@Z 00572b90 f i imgui_draw.obj
 0001:00171c10       ?reserve@?$ImVector@UImDrawVert@@@@QAEXH@Z 00572c10 f i imgui_draw.obj
 0001:00171c80       ?reserve@?$ImVector@UImFontConfig@@@@QAEXH@Z 00572c80 f i imgui_draw.obj
 0001:00171cf0       ?reserve@?$ImVector@UImFontGlyph@@@@QAEXH@Z 00572cf0 f i imgui_draw.obj
 0001:00171d60       ?reserve@?$ImVector@UImVec4@@@@QAEXH@Z 00572d60 f i imgui_draw.obj
 0001:00171de0       ?reserve@?$ImVector@Ustbrp_rect@@@@QAEXH@Z 00572de0 f i imgui_draw.obj
 0001:00171e60       ?resize@?$ImVector@G@@QAEXHABG@Z 00572e60 f i imgui_draw.obj
 0001:00171f10       ?resize@?$ImVector@M@@QAEXHABM@Z 00572f10 f i imgui_draw.obj
 0001:00171fc0       ?resize@?$ImVector@PAX@@QAEXH@Z 00572fc0 f i imgui_draw.obj
 0001:00172030       ?resize@?$ImVector@UImDrawChannel@@@@QAEXH@Z 00573030 f i imgui_draw.obj
 0001:001720a0       ?resize@?$ImVector@UImDrawCmd@@@@QAEXH@Z 005730a0 f i imgui_draw.obj
 0001:00172110       ?resize@?$ImVector@UImDrawVert@@@@QAEXH@Z 00573110 f i imgui_draw.obj
 0001:00172180       ?resize@?$ImVector@UImFontGlyph@@@@QAEXH@Z 00573180 f i imgui_draw.obj
 0001:001721f0       ?resize@?$ImVector@UImVec4@@@@QAEXH@Z 005731f0 f i imgui_draw.obj
 0001:00172260       ?resize@?$ImVector@Ustbrp_rect@@@@QAEXH@Z 00573260 f i imgui_draw.obj
 0001:001722d0       ?ImGui_ImplGlfw_InitForOpenGL@@YA_NPAUGLFWwindow@@_N@Z 005732d0 f   imgui_impl_glfw.obj
 0001:001722f0       ?ImGui_ImplGlfw_InitForVulkan@@YA_NPAUGLFWwindow@@_N@Z 005732f0 f   imgui_impl_glfw.obj
 0001:00172310       ?ImGui_ImplGlfw_Shutdown@@YAXXZ 00573310 f   imgui_impl_glfw.obj
 0001:00172360       ?ImGui_ImplGlfw_NewFrame@@YAXXZ 00573360 f   imgui_impl_glfw.obj
 0001:00172a80       ?ImGui_ImplGlfw_MouseButtonCallback@@YAXPAUGLFWwindow@@HHH@Z 00573a80 f   imgui_impl_glfw.obj
 0001:00172ab0       ?ImGui_ImplGlfw_ScrollCallback@@YAXPAUGLFWwindow@@NN@Z 00573ab0 f   imgui_impl_glfw.obj
 0001:00172b00       ?ImGui_ImplGlfw_KeyCallback@@YAXPAUGLFWwindow@@HHHH@Z 00573b00 f   imgui_impl_glfw.obj
 0001:00172c80       ?ImGui_ImplGlfw_CharCallback@@YAXPAUGLFWwindow@@I@Z 00573c80 f   imgui_impl_glfw.obj
 0001:00172cf0       ?ImGui_ImplGlfw_InstallCallbacks@@YAXPAUGLFWwindow@@@Z 00573cf0 f   imgui_impl_glfw.obj
 0001:001732e0       ?ImGui_ImplOpenGL3_Init@@YA_NPBD@Z 005742e0 f   imgui_impl_opengl3.obj
 0001:001733b0       ?ImGui_ImplOpenGL3_Shutdown@@YAXXZ 005743b0 f   imgui_impl_opengl3.obj
 0001:001733c0       ?ImGui_ImplOpenGL3_NewFrame@@YAXXZ 005743c0 f   imgui_impl_opengl3.obj
 0001:001733e0       ?ImGui_ImplOpenGL3_RenderDrawData@@YAXPAUImDrawData@@@Z 005743e0 f   imgui_impl_opengl3.obj
 0001:00173cd0       ?ImGui_ImplOpenGL3_CreateFontsTexture@@YA_NXZ 00574cd0 f   imgui_impl_opengl3.obj
 0001:00173db0       ?ImGui_ImplOpenGL3_DestroyFontsTexture@@YAXXZ 00574db0 f   imgui_impl_opengl3.obj
 0001:00173df0       ?ImGui_ImplOpenGL3_CreateDeviceObjects@@YA_NXZ 00574df0 f   imgui_impl_opengl3.obj
 0001:00174090       ?ImGui_ImplOpenGL3_DestroyDeviceObjects@@YAXXZ 00575090 f   imgui_impl_opengl3.obj
 0001:00174406       ??0Importer@Assimp@@QAE@XZ 00575406 f   assimp:assimp-vc140-mt.dll
 0001:0017440c       ??1Importer@Assimp@@QAE@XZ 0057540c f   assimp:assimp-vc140-mt.dll
 0001:00174412       ?ReadFile@Importer@Assimp@@QAEPBUaiScene@@PBDI@Z 00575412 f   assimp:assimp-vc140-mt.dll
 0001:00174418       ?GetErrorString@Importer@Assimp@@QBEPBDXZ 00575418 f   assimp:assimp-vc140-mt.dll
 0001:0017441e       _aiGetMaterialTextureCount 0057541e f   assimp:assimp-vc140-mt.dll
 0001:00174424       _aiGetMaterialTexture      00575424 f   assimp:assimp-vc140-mt.dll
 0001:00174430       __glfwInputError           00575430 f   glfw3:init.c.obj
 0001:00174570       _glfwGetVersion            00575570 f   glfw3:init.c.obj
 0001:001745a0       _glfwGetVersionString      005755a0 f   glfw3:init.c.obj
 0001:001745b0       _glfwInit                  005755b0 f   glfw3:init.c.obj
 0001:00174620       _glfwSetErrorCallback      00575620 f   glfw3:init.c.obj
 0001:00174630       _glfwTerminate             00575630 f   glfw3:init.c.obj
 0001:00174710       _vsnprintf                 00575710 f i glfw3:init.c.obj
 0001:00174750       __glfwInputFramebufferSize 00575750 f   glfw3:window.c.obj
 0001:00174770       __glfwInputWindowCloseRequest 00575770 f   glfw3:window.c.obj
 0001:00174790       __glfwInputWindowDamage    00575790 f   glfw3:window.c.obj
 0001:001747b0       __glfwInputWindowFocus     005757b0 f   glfw3:window.c.obj
 0001:00174830       __glfwInputWindowIconify   00575830 f   glfw3:window.c.obj
 0001:00174850       __glfwInputWindowMonitorChange 00575850 f   glfw3:window.c.obj
 0001:00174860       __glfwInputWindowPos       00575860 f   glfw3:window.c.obj
 0001:00174880       __glfwInputWindowSize      00575880 f   glfw3:window.c.obj
 0001:001748a0       _glfwCreateWindow          005758a0 f   glfw3:window.c.obj
 0001:00174b80       _glfwDefaultWindowHints    00575b80 f   glfw3:window.c.obj
 0001:00174c10       _glfwDestroyWindow         00575c10 f   glfw3:window.c.obj
 0001:00174c90       _glfwFocusWindow           00575c90 f   glfw3:window.c.obj
 0001:00174cb0       _glfwGetFramebufferSize    00575cb0 f   glfw3:window.c.obj
 0001:00174d00       _glfwGetWindowAttrib       00575d00 f   glfw3:window.c.obj
 0001:00174e80       _glfwGetWindowFrameSize    00575e80 f   glfw3:window.c.obj
 0001:00174ef0       _glfwGetWindowMonitor      00575ef0 f   glfw3:window.c.obj
 0001:00174f20       _glfwGetWindowPos          00575f20 f   glfw3:window.c.obj
 0001:00174f70       _glfwGetWindowSize         00575f70 f   glfw3:window.c.obj
 0001:00174fc0       _glfwGetWindowUserPointer  00575fc0 f   glfw3:window.c.obj
 0001:00174ff0       _glfwHideWindow            00575ff0 f   glfw3:window.c.obj
 0001:00175020       _glfwIconifyWindow         00576020 f   glfw3:window.c.obj
 0001:00175040       _glfwMaximizeWindow        00576040 f   glfw3:window.c.obj
 0001:00175060       _glfwPollEvents            00576060 f   glfw3:window.c.obj
 0001:00175080       _glfwPostEmptyEvent        00576080 f   glfw3:window.c.obj
 0001:001750b0       _glfwRestoreWindow         005760b0 f   glfw3:window.c.obj
 0001:001750d0       _glfwSetFramebufferSizeCallback 005760d0 f   glfw3:window.c.obj
 0001:00175100       _glfwSetWindowAspectRatio  00576100 f   glfw3:window.c.obj
 0001:00175170       _glfwSetWindowCloseCallback 00576170 f   glfw3:window.c.obj
 0001:001751a0       _glfwSetWindowFocusCallback 005761a0 f   glfw3:window.c.obj
 0001:001751d0       _glfwSetWindowIcon         005761d0 f   glfw3:window.c.obj
 0001:001751f0       _glfwSetWindowIconifyCallback 005761f0 f   glfw3:window.c.obj
 0001:00175220       _glfwSetWindowMonitor      00576220 f   glfw3:window.c.obj
 0001:001752b0       _glfwSetWindowPos          005762b0 f   glfw3:window.c.obj
 0001:001752e0       _glfwSetWindowPosCallback  005762e0 f   glfw3:window.c.obj
 0001:00175310       _glfwSetWindowRefreshCallback 00576310 f   glfw3:window.c.obj
 0001:00175340       _glfwSetWindowShouldClose  00576340 f   glfw3:window.c.obj
 0001:00175370       _glfwSetWindowSize         00576370 f   glfw3:window.c.obj
 0001:001753b0       _glfwSetWindowSizeCallback 005763b0 f   glfw3:window.c.obj
 0001:001753e0       _glfwSetWindowSizeLimits   005763e0 f   glfw3:window.c.obj
 0001:00175490       _glfwSetWindowTitle        00576490 f   glfw3:window.c.obj
 0001:001754c0       _glfwSetWindowUserPointer  005764c0 f   glfw3:window.c.obj
 0001:001754f0       _glfwShowWindow            005764f0 f   glfw3:window.c.obj
 0001:00175530       _glfwWaitEvents            00576530 f   glfw3:window.c.obj
 0001:00175560       _glfwWaitEventsTimeout     00576560 f   glfw3:window.c.obj
 0001:001755d0       _glfwWindowHint            005765d0 f   glfw3:window.c.obj
 0001:00175880       _glfwWindowShouldClose     00576880 f   glfw3:window.c.obj
 0001:001758b0       __glfwInputChar            005768b0 f   glfw3:input.c.obj
 0001:00175900       __glfwInputCursorEnter     00576900 f   glfw3:input.c.obj
 0001:00175920       __glfwInputCursorPos       00576920 f   glfw3:input.c.obj
 0001:00175990       __glfwInputDrop            00576990 f   glfw3:input.c.obj
 0001:001759b0       __glfwInputJoystickChange  005769b0 f   glfw3:input.c.obj
 0001:001759c0       __glfwInputKey             005769c0 f   glfw3:input.c.obj
 0001:00175a30       __glfwInputMouseClick      00576a30 f   glfw3:input.c.obj
 0001:00175a70       __glfwInputScroll          00576a70 f   glfw3:input.c.obj
 0001:00175aa0       __glfwIsPrintable          00576aa0 f   glfw3:input.c.obj
 0001:00175ad0       _glfwCreateCursor          00576ad0 f   glfw3:input.c.obj
 0001:00175b30       _glfwCreateStandardCursor  00576b30 f   glfw3:input.c.obj
 0001:00175be0       _glfwDestroyCursor         00576be0 f   glfw3:input.c.obj
 0001:00175c80       _glfwGetClipboardString    00576c80 f   glfw3:input.c.obj
 0001:00175ca0       _glfwGetCursorPos          00576ca0 f   glfw3:input.c.obj
 0001:00175d20       _glfwGetInputMode          00576d20 f   glfw3:input.c.obj
 0001:00175d80       _glfwGetJoystickAxes       00576d80 f   glfw3:input.c.obj
 0001:00175de0       _glfwGetJoystickButtons    00576de0 f   glfw3:input.c.obj
 0001:00175e40       _glfwGetJoystickName       00576e40 f   glfw3:input.c.obj
 0001:00175e90       _glfwGetKey                00576e90 f   glfw3:input.c.obj
 0001:00175ef0       _glfwGetKeyName            00576ef0 f   glfw3:input.c.obj
 0001:00175f10       _glfwGetMouseButton        00576f10 f   glfw3:input.c.obj
 0001:00175f70       _glfwGetTime               00576f70 f   glfw3:input.c.obj
 0001:00175fd0       _glfwGetTimerFrequency     00576fd0 f   glfw3:input.c.obj
 0001:00176000       _glfwGetTimerValue         00577000 f   glfw3:input.c.obj
 0001:00176030       _glfwJoystickPresent       00577030 f   glfw3:input.c.obj
 0001:00176080       _glfwSetCharCallback       00577080 f   glfw3:input.c.obj
 0001:001760b0       _glfwSetCharModsCallback   005770b0 f   glfw3:input.c.obj
 0001:001760e0       _glfwSetClipboardString    005770e0 f   glfw3:input.c.obj
 0001:00176110       _glfwSetCursor             00577110 f   glfw3:input.c.obj
 0001:00176150       _glfwSetCursorEnterCallback 00577150 f   glfw3:input.c.obj
 0001:00176180       _glfwSetCursorPos          00577180 f   glfw3:input.c.obj
 0001:00176270       _glfwSetCursorPosCallback  00577270 f   glfw3:input.c.obj
 0001:001762a0       _glfwSetDropCallback       005772a0 f   glfw3:input.c.obj
 0001:001762d0       _glfwSetInputMode          005772d0 f   glfw3:input.c.obj
 0001:00176400       _glfwSetJoystickCallback   00577400 f   glfw3:input.c.obj
 0001:00176430       _glfwSetKeyCallback        00577430 f   glfw3:input.c.obj
 0001:00176460       _glfwSetMouseButtonCallback 00577460 f   glfw3:input.c.obj
 0001:00176490       _glfwSetScrollCallback     00577490 f   glfw3:input.c.obj
 0001:001764c0       _glfwSetTime               005774c0 f   glfw3:input.c.obj
 0001:00176550       __glfwChooseFBConfig       00577550 f   glfw3:context.c.obj
 0001:00176720       __glfwIsValidContextConfig 00577720 f   glfw3:context.c.obj
 0001:00176900       __glfwRefreshContextAttribs 00577900 f   glfw3:context.c.obj
 0001:00176d10       __glfwStringInExtensionString 00577d10 f   glfw3:context.c.obj
 0001:00176d80       __vsscanf_l                00577d80 f i glfw3:context.c.obj
 0001:00176db0       _glfwExtensionSupported    00577db0 f   glfw3:context.c.obj
 0001:00176ed0       _glfwGetCurrentContext     00577ed0 f   glfw3:context.c.obj
 0001:00176ef0       _glfwGetProcAddress        00577ef0 f   glfw3:context.c.obj
 0001:00176f30       _glfwMakeContextCurrent    00577f30 f   glfw3:context.c.obj
 0001:00176fb0       _glfwSwapBuffers           00577fb0 f   glfw3:context.c.obj
 0001:00177000       _glfwSwapInterval          00578000 f   glfw3:context.c.obj
 0001:00177040       __glfwPlatformCreateCursor 00578040 f   glfw3:win32_window.c.obj
 0001:00177070       __glfwPlatformCreateStandardCursor 00578070 f   glfw3:win32_window.c.obj
 0001:00177100       __glfwPlatformCreateWindow 00578100 f   glfw3:win32_window.c.obj
 0001:001771c0       __glfwPlatformCreateWindowSurface 005781c0 f   glfw3:win32_window.c.obj
 0001:00177260       __glfwPlatformDestroyCursor 00578260 f   glfw3:win32_window.c.obj
 0001:00177280       __glfwPlatformDestroyWindow 00578280 f   glfw3:win32_window.c.obj
 0001:00177320       __glfwPlatformFocusWindow  00578320 f   glfw3:win32_window.c.obj
 0001:00177350       __glfwPlatformGetClipboardString 00578350 f   glfw3:win32_window.c.obj
 0001:00177420       __glfwPlatformGetCursorPos 00578420 f   glfw3:win32_window.c.obj
 0001:00177480       __glfwPlatformGetFramebufferSize 00578480 f   glfw3:win32_window.c.obj
 0001:001774e0       __glfwPlatformGetKeyName   005784e0 f   glfw3:win32_window.c.obj
 0001:00177580       __glfwPlatformGetPhysicalDevicePresentationSupport 00578580 f   glfw3:win32_window.c.obj
 0001:001775c0       __glfwPlatformGetRequiredInstanceExtensions 005785c0 f   glfw3:win32_window.c.obj
 0001:00177610       __glfwPlatformGetWindowFrameSize 00578610 f   glfw3:win32_window.c.obj
 0001:00177700       __glfwPlatformGetWindowPos 00578700 f   glfw3:win32_window.c.obj
 0001:00177750       __glfwPlatformGetWindowSize 00578750 f   glfw3:win32_window.c.obj
 0001:001777b0       __glfwPlatformHideWindow   005787b0 f   glfw3:win32_window.c.obj
 0001:001777d0       __glfwPlatformIconifyWindow 005787d0 f   glfw3:win32_window.c.obj
 0001:001777f0       __glfwPlatformMaximizeWindow 005787f0 f   glfw3:win32_window.c.obj
 0001:00177810       __glfwPlatformPollEvents   00578810 f   glfw3:win32_window.c.obj
 0001:001779a0       __glfwPlatformPostEmptyEvent 005789a0 f   glfw3:win32_window.c.obj
 0001:001779c0       __glfwPlatformRestoreWindow 005789c0 f   glfw3:win32_window.c.obj
 0001:001779e0       __glfwPlatformSetClipboardString 005789e0 f   glfw3:win32_window.c.obj
 0001:00177ad0       __glfwPlatformSetCursor    00578ad0 f   glfw3:win32_window.c.obj
 0001:00177b20       __glfwPlatformSetCursorMode 00578b20 f   glfw3:win32_window.c.obj
 0001:00177c60       __glfwPlatformSetCursorPos 00578c60 f   glfw3:win32_window.c.obj
 0001:00177cb0       __glfwPlatformSetWindowAspectRatio 00578cb0 f   glfw3:win32_window.c.obj
 0001:00177dc0       __glfwPlatformSetWindowIcon 00578dc0 f   glfw3:win32_window.c.obj
 0001:00177eb0       __glfwPlatformSetWindowMonitor 00578eb0 f   glfw3:win32_window.c.obj
 0001:00178180       __glfwPlatformSetWindowPos 00579180 f   glfw3:win32_window.c.obj
 0001:00178220       __glfwPlatformSetWindowSize 00579220 f   glfw3:win32_window.c.obj
 0001:00178300       __glfwPlatformSetWindowSizeLimits 00579300 f   glfw3:win32_window.c.obj
 0001:00178380       __glfwPlatformSetWindowTitle 00579380 f   glfw3:win32_window.c.obj
 0001:001783d0       __glfwPlatformShowWindow   005793d0 f   glfw3:win32_window.c.obj
 0001:001783f0       __glfwPlatformWaitEvents   005793f0 f   glfw3:win32_window.c.obj
 0001:00178400       __glfwPlatformWaitEventsTimeout 00579400 f   glfw3:win32_window.c.obj
 0001:00178430       __glfwPlatformWindowFocused 00579430 f   glfw3:win32_window.c.obj
 0001:00178450       __glfwPlatformWindowIconified 00579450 f   glfw3:win32_window.c.obj
 0001:00178470       __glfwPlatformWindowMaximized 00579470 f   glfw3:win32_window.c.obj
 0001:00178490       __glfwPlatformWindowVisible 00579490 f   glfw3:win32_window.c.obj
 0001:001784b0       __glfwRegisterWindowClassWin32 005794b0 f   glfw3:win32_window.c.obj
 0001:00178570       __glfwUnregisterWindowClassWin32 00579570 f   glfw3:win32_window.c.obj
 0001:00178ea0       _glfwGetWin32Window        00579ea0 f   glfw3:win32_window.c.obj
 0001:00179b50       __glfwCreateUTF8FromWideStringWin32 0057ab50 f   glfw3:win32_init.c.obj
 0001:00179bc0       __glfwCreateWideStringFromUTF8Win32 0057abc0 f   glfw3:win32_init.c.obj
 0001:00179c20       __glfwPlatformGetVersionString 0057ac20 f   glfw3:win32_init.c.obj
 0001:00179c30       __glfwPlatformInit         0057ac30 f   glfw3:win32_init.c.obj
 0001:00179cc0       __glfwPlatformTerminate    0057acc0 f   glfw3:win32_init.c.obj
 0001:0017a2f0       __glfwPlatformGetGammaRamp 0057b2f0 f   glfw3:win32_monitor.c.obj
 0001:0017a3a0       __glfwPlatformGetMonitorPos 0057b3a0 f   glfw3:win32_monitor.c.obj
 0001:0017a430       __glfwPlatformGetMonitors  0057b430 f   glfw3:win32_monitor.c.obj
 0001:0017a6b0       __glfwPlatformGetVideoMode 0057b6b0 f   glfw3:win32_monitor.c.obj
 0001:0017a760       __glfwPlatformGetVideoModes 0057b760 f   glfw3:win32_monitor.c.obj
 0001:0017a9b0       __glfwPlatformIsSameMonitor 0057b9b0 f   glfw3:win32_monitor.c.obj
 0001:0017aa60       __glfwPlatformSetGammaRamp 0057ba60 f   glfw3:win32_monitor.c.obj
 0001:0017ab30       __glfwRestoreVideoModeWin32 0057bb30 f   glfw3:win32_monitor.c.obj
 0001:0017ab60       __glfwSetVideoModeWin32    0057bb60 f   glfw3:win32_monitor.c.obj
 0001:0017ada0       _glfwGetWin32Adapter       0057bda0 f   glfw3:win32_monitor.c.obj
 0001:0017add0       _glfwGetWin32Monitor       0057bdd0 f   glfw3:win32_monitor.c.obj
 0001:0017ae00       __glfwInitTimerWin32       0057be00 f   glfw3:win32_time.c.obj
 0001:0017ae60       __glfwPlatformGetTimerFrequency 0057be60 f   glfw3:win32_time.c.obj
 0001:0017ae70       __glfwPlatformGetTimerValue 0057be70 f   glfw3:win32_time.c.obj
 0001:0017aea0       __glfwAllocGammaArrays     0057bea0 f   glfw3:monitor.c.obj
 0001:0017aee0       __glfwAllocMonitor         0057bee0 f   glfw3:monitor.c.obj
 0001:0017af20       __glfwChooseVideoMode      0057bf20 f   glfw3:monitor.c.obj
 0001:0017b060       __glfwCompareVideoModes    0057c060 f   glfw3:monitor.c.obj
 0001:0017b0b0       __glfwFreeGammaArrays      0057c0b0 f   glfw3:monitor.c.obj
 0001:0017b0e0       __glfwFreeMonitor          0057c0e0 f   glfw3:monitor.c.obj
 0001:0017b130       __glfwFreeMonitors         0057c130 f   glfw3:monitor.c.obj
 0001:0017b1b0       __glfwInputMonitorChange   0057c1b0 f   glfw3:monitor.c.obj
 0001:0017b3d0       __glfwInputMonitorWindowChange 0057c3d0 f   glfw3:monitor.c.obj
 0001:0017b3e0       __glfwSplitBPP             0057c3e0 f   glfw3:monitor.c.obj
 0001:0017b480       _glfwGetGammaRamp          0057c480 f   glfw3:monitor.c.obj
 0001:0017b4d0       _glfwGetMonitorName        0057c4d0 f   glfw3:monitor.c.obj
 0001:0017b500       _glfwGetMonitorPhysicalSize 0057c500 f   glfw3:monitor.c.obj
 0001:0017b550       _glfwGetMonitorPos         0057c550 f   glfw3:monitor.c.obj
 0001:0017b5a0       _glfwGetMonitors           0057c5a0 f   glfw3:monitor.c.obj
 0001:0017b5e0       _glfwGetPrimaryMonitor     0057c5e0 f   glfw3:monitor.c.obj
 0001:0017b610       _glfwGetVideoMode          0057c610 f   glfw3:monitor.c.obj
 0001:0017b650       _glfwGetVideoModes         0057c650 f   glfw3:monitor.c.obj
 0001:0017b6a0       _glfwSetGamma              0057c6a0 f   glfw3:monitor.c.obj
 0001:0017b800       _glfwSetGammaRamp          0057c800 f   glfw3:monitor.c.obj
 0001:0017b870       _glfwSetMonitorCallback    0057c870 f   glfw3:monitor.c.obj
 0001:0017b900       __glfwGetVulkanResultString 0057c900 f   glfw3:vulkan.c.obj
 0001:0017ba20       __glfwInitVulkan           0057ca20 f   glfw3:vulkan.c.obj
 0001:0017bd60       __glfwTerminateVulkan      0057cd60 f   glfw3:vulkan.c.obj
 0001:0017bdb0       _glfwCreateWindowSurface   0057cdb0 f   glfw3:vulkan.c.obj
 0001:0017be40       _glfwGetInstanceProcAddress 0057ce40 f   glfw3:vulkan.c.obj
 0001:0017bea0       _glfwGetPhysicalDevicePresentationSupport 0057cea0 f   glfw3:vulkan.c.obj
 0001:0017bf00       _glfwGetRequiredInstanceExtensions 0057cf00 f   glfw3:vulkan.c.obj
 0001:0017bf60       _glfwVulkanSupported       0057cf60 f   glfw3:vulkan.c.obj
 0001:0017bf80       __glfwInitThreadLocalStorageWin32 0057cf80 f   glfw3:win32_tls.c.obj
 0001:0017bfc0       __glfwPlatformGetCurrentContext 0057cfc0 f   glfw3:win32_tls.c.obj
 0001:0017bfd0       __glfwPlatformSetCurrentContext 0057cfd0 f   glfw3:win32_tls.c.obj
 0001:0017bff0       __glfwTerminateThreadLocalStorageWin32 0057cff0 f   glfw3:win32_tls.c.obj
 0001:0017c010       __glfwDetectJoystickConnectionWin32 0057d010 f   glfw3:win32_joystick.c.obj
 0001:0017c070       __glfwDetectJoystickDisconnectionWin32 0057d070 f   glfw3:win32_joystick.c.obj
 0001:0017c130       __glfwInitJoysticksWin32   0057d130 f   glfw3:win32_joystick.c.obj
 0001:0017c180       __glfwPlatformGetJoystickAxes 0057d180 f   glfw3:win32_joystick.c.obj
 0001:0017c1c0       __glfwPlatformGetJoystickButtons 0057d1c0 f   glfw3:win32_joystick.c.obj
 0001:0017c200       __glfwPlatformGetJoystickName 0057d200 f   glfw3:win32_joystick.c.obj
 0001:0017c230       __glfwPlatformJoystickPresent 0057d230 f   glfw3:win32_joystick.c.obj
 0001:0017c250       __glfwTerminateJoysticksWin32 0057d250 f   glfw3:win32_joystick.c.obj
 0001:0017d110       __glfwCreateContextWGL     0057e110 f   glfw3:wgl_context.c.obj
 0001:0017d540       __glfwInitWGL              0057e540 f   glfw3:wgl_context.c.obj
 0001:0017d5f0       __glfwTerminateWGL         0057e5f0 f   glfw3:wgl_context.c.obj
 0001:0017db70       _glfwGetWGLContext         0057eb70 f   glfw3:wgl_context.c.obj
 0001:0017df10       __glfwCreateContextEGL     0057ef10 f   glfw3:egl_context.c.obj
 0001:0017e380       __glfwInitEGL              0057f380 f   glfw3:egl_context.c.obj
 0001:0017e730       __glfwTerminateEGL         0057f730 f   glfw3:egl_context.c.obj
 0001:0017ebb0       _glfwGetEGLContext         0057fbb0 f   glfw3:egl_context.c.obj
 0001:0017ec00       _glfwGetEGLDisplay         0057fc00 f   glfw3:egl_context.c.obj
 0001:0017ec30       _glfwGetEGLSurface         0057fc30 f   glfw3:egl_context.c.obj
 0001:0017ed61       _glGetString@4             0057fd61 f   opengl32:OPENGL32.dll
 0001:0017ed67       _glPolygonMode@8           0057fd67 f   opengl32:OPENGL32.dll
 0001:0017ed6d       _glViewport@16             0057fd6d f   opengl32:OPENGL32.dll
 0001:0017ed73       _glDrawElements@16         0057fd73 f   opengl32:OPENGL32.dll
 0001:0017ed79       _glGetError@0              0057fd79 f   opengl32:OPENGL32.dll
 0001:0017ed7f       _glBindTexture@8           0057fd7f f   opengl32:OPENGL32.dll
 0001:0017ed85       _glGenTextures@8           0057fd85 f   opengl32:OPENGL32.dll
 0001:0017ed8b       _glTexImage2D@36           0057fd8b f   opengl32:OPENGL32.dll
 0001:0017ed91       _glTexParameteri@12        0057fd91 f   opengl32:OPENGL32.dll
 0001:0017ed97       _glDepthFunc@4             0057fd97 f   opengl32:OPENGL32.dll
 0001:0017ed9d       _glDrawArrays@12           0057fd9d f   opengl32:OPENGL32.dll
 0001:0017eda3       _glBlendFunc@8             0057fda3 f   opengl32:OPENGL32.dll
 0001:0017eda9       _glClear@4                 0057fda9 f   opengl32:OPENGL32.dll
 0001:0017edaf       _glClearColor@16           0057fdaf f   opengl32:OPENGL32.dll
 0001:0017edb5       _glEnable@4                0057fdb5 f   opengl32:OPENGL32.dll
 0001:0017edbb       _glGetIntegerv@8           0057fdbb f   opengl32:OPENGL32.dll
 0001:0017edc1       _wglGetCurrentDC@0         0057fdc1 f   opengl32:OPENGL32.dll
 0001:0017edc7       _wglGetProcAddress@4       0057fdc7 f   opengl32:OPENGL32.dll
 0001:0017edcd       _wglCreateContext@4        0057fdcd f   opengl32:OPENGL32.dll
